	.file	"/home/vdelacruz/Documents/Ethernet 2 Ports/module_xtcp/src/xtcp_uip/autoip/autoip.c"

.set autoip_init.locnoside, 1

.set autoip_init.locnochandec, 1

.set autoip_init.locnoglobalaccess, 1

.set autoip_init.locnointerfaceaccess, 1

.set autoip_init.locnonotificationselect, 1

.set autoip_start.locnoside, 1

.set autoip_start.locnochandec, 1

.set autoip_start.locnoglobalaccess, 1

.set autoip_start.locnointerfaceaccess, 1

.set autoip_start.locnonotificationselect, 1

.set autoip_stop.locnoside, 1

.set autoip_stop.locnochandec, 1

.set autoip_stop.locnoglobalaccess, 1

.set autoip_stop.locnointerfaceaccess, 1

.set autoip_stop.locnonotificationselect, 1

.set autoip_arp_in.locnoside, 1

.set autoip_arp_in.locnochandec, 1

.set autoip_arp_in.locnoglobalaccess, 1

.set autoip_arp_in.locnointerfaceaccess, 1

.set autoip_arp_in.locnonotificationselect, 1

.set autoip_periodic.locnoside, 1

.set autoip_periodic.locnochandec, 1

.set autoip_periodic.locnoglobalaccess, 1

.set autoip_periodic.locnointerfaceaccess, 1

.set autoip_periodic.locnonotificationselect, 1


	.file	1 "/home/vdelacruz/Documents/Ethernet 2 Ports/module_xtcp/src/xtcp_uip/autoip/autoip.c"
	.file	2 "/home/vdelacruz/Documents/Ethernet 2 Ports/module_xtcp/src/xtcp_uip/timer.h"
	.file	3 "/home/vdelacruz/Documents/Ethernet 2 Ports/module_xtcp/src/xtcp_uip/uip-conf.h"
	.file	4 "/home/vdelacruz/Documents/Ethernet 2 Ports/module_xtcp/src/xtcp_uip/uip.h"
	.file	5 "/home/vdelacruz/Documents/Ethernet 2 Ports/module_xtcp/src/xtcp_uip/uip_arp.h"
	.text
.Ltext_begin:
	.section	.dp.data,"awd",@progbits
	.text
	.cc_top autoip_init.function
	.globl	autoip_init
	.align	2
	.type	autoip_init,@function
autoip_init:
.Ltmp0:
	.cfi_startproc
.Lfunc_begin0:
	.loc	1 100 0
	ldc r1, 0
	.loc	1 101 0 prologue_end
.Ltmp1:
	stw r1, dp[my_autoip_state]
	.loc	1 102 0
	stw r1, dp[my_autoip_state+4]
	.loc	1 103 0
	stw r1, dp[my_autoip_state+8]
	.loc	1 104 0
	stw r1, dp[my_autoip_state+12]
	.loc	1 105 0
	stw r1, dp[my_autoip_state+16]
	.loc	1 106 0
	stw r0, dp[my_autoip_state+24]
	.loc	1 107 0
	stw r0, dp[my_autoip_state+20]
	.loc	1 108 0
	retsp 0
.Ltmp2:
.Ltmp3:
	.size	autoip_init, .Ltmp3-autoip_init
.Lfunc_end0:
.Ltmp4:
	.cfi_endproc
.Leh_func_end0:

	.cc_bottom autoip_init.function
	.set	autoip_init.nstackwords,0
	.globl	autoip_init.nstackwords
	.set	autoip_init.maxcores,1
	.globl	autoip_init.maxcores
	.set	autoip_init.maxtimers,0
	.globl	autoip_init.maxtimers
	.set	autoip_init.maxchanends,0
	.globl	autoip_init.maxchanends
	.cc_top rand.function
	.section	.cp.rodata.cst4,"aMc",@progbits,4
	.cc_top .LCPI1_0.data
	.align	4
.LCPI1_0:
	.long	1664525
	.cc_bottom .LCPI1_0.data
	.cc_top .LCPI1_1.data
	.align	4
.LCPI1_1:
	.long	1013904223
	.cc_bottom .LCPI1_1.data
	.text
	.align	2
	.type	rand,@function
rand:
.Ltmp5:
	.cfi_startproc
.Lfunc_begin1:
	.loc	1 94 0
	ldw r0, cp[.LCPI1_0]
	.loc	1 95 0 prologue_end
.Ltmp6:
	ldw r1, dp[my_autoip_state+20]
	mul r0, r1, r0
	ldw r1, cp[.LCPI1_1]
	add r0, r0, r1
	stw r0, dp[my_autoip_state+20]
	.loc	1 96 0
	retsp 0
.Ltmp7:
.Ltmp8:
	.size	rand, .Ltmp8-rand
.Lfunc_end1:
.Ltmp9:
	.cfi_endproc
.Leh_func_end1:

	.cc_bottom rand.function
	.set	rand.nstackwords,0
	.set	rand.maxcores,1
	.set	rand.maxtimers,0
	.set	rand.maxchanends,0
	.cc_top autoip_start.function
	.globl	autoip_start
	.align	2
	.type	autoip_start,@function
autoip_start:
.Ltmp11:
	.cfi_startproc
.Lfunc_begin2:
	.loc	1 239 0
	entsp 1
.Ltmp12:
	.cfi_def_cfa_offset 4
.Ltmp13:
	.cfi_offset 15, 0
	.loc	1 240 0 prologue_end
.Ltmp14:
	ldw r0, dp[my_autoip_state]
	bt r0, .LBB2_2
	.loc	1 241 0
	ldw r0, dp[my_autoip_state+24]
	bl autoip_init
	.loc	1 242 0
	bl rand
	mkmsk r0, 1
	.loc	1 243 0
	stw r0, dp[my_autoip_state]
.LBB2_2:
	.loc	1 245 0
	retsp 1
.Ltmp15:
.Ltmp16:
	.size	autoip_start, .Ltmp16-autoip_start
.Lfunc_end2:
.Ltmp17:
	.cfi_endproc
.Leh_func_end2:

	.cc_bottom autoip_start.function
	.set	autoip_start.nstackwords,((autoip_init.nstackwords $M rand.nstackwords) + 1)
	.globl	autoip_start.nstackwords
	.set	autoip_start.maxcores,autoip_init.maxcores $M rand.maxcores $M 1
	.globl	autoip_start.maxcores
	.set	autoip_start.maxtimers,autoip_init.maxtimers $M rand.maxtimers $M 0
	.globl	autoip_start.maxtimers
	.set	autoip_start.maxchanends,autoip_init.maxchanends $M rand.maxchanends $M 0
	.globl	autoip_start.maxchanends
	.cc_top autoip_stop.function
	.globl	autoip_stop
	.align	2
	.type	autoip_stop,@function
autoip_stop:
.Ltmp18:
	.cfi_startproc
.Lfunc_begin3:
	.loc	1 248 0
	ldc r0, 0
	.loc	1 249 0 prologue_end
.Ltmp19:
	stw r0, dp[my_autoip_state]
	.loc	1 250 0
	retsp 0
.Ltmp20:
.Ltmp21:
	.size	autoip_stop, .Ltmp21-autoip_stop
.Lfunc_end3:
.Ltmp22:
	.cfi_endproc
.Leh_func_end3:

	.cc_bottom autoip_stop.function
	.set	autoip_stop.nstackwords,0
	.globl	autoip_stop.nstackwords
	.set	autoip_stop.maxcores,1
	.globl	autoip_stop.maxcores
	.set	autoip_stop.maxtimers,0
	.globl	autoip_stop.maxtimers
	.set	autoip_stop.maxchanends,0
	.globl	autoip_stop.maxchanends
	.cc_top autoip_arp_in.function
	.globl	autoip_arp_in
	.align	2
	.type	autoip_arp_in,@function
autoip_arp_in:
.Ltmp24:
	.cfi_startproc
.Lfunc_begin4:
	.loc	1 222 0
	entsp 1
.Ltmp25:
	.cfi_def_cfa_offset 4
.Ltmp26:
	.cfi_offset 15, 0
	.loc	1 223 0 prologue_end
.Ltmp27:
	ldw r0, dp[my_autoip_state]
	sub r0, r0, 2
	ldc r1, 2
	lsu r0, r1, r0
	bt r0, .LBB4_3
	.loc	1 228 0
	ldw r0, dp[uip_buf]
	ldaw r0, r0[7]
	ldaw r1, dp[my_autoip_state+36]
	bl uip_ipaddr_cmp
	bf r0, .LBB4_3
	.loc	1 229 0
	ldw r0, dp[my_autoip_state+12]
	add r0, r0, 1
	stw r0, dp[my_autoip_state+12]
.LBB4_3:
	.loc	1 235 0
	retsp 1
.Ltmp28:
.Ltmp29:
	.size	autoip_arp_in, .Ltmp29-autoip_arp_in
.Lfunc_end4:
.Ltmp30:
	.cfi_endproc
.Leh_func_end4:

	.cc_bottom autoip_arp_in.function
	.set	autoip_arp_in.nstackwords,(uip_ipaddr_cmp.nstackwords + 1)
	.globl	autoip_arp_in.nstackwords
	.set	autoip_arp_in.maxcores,uip_ipaddr_cmp.maxcores $M 1
	.globl	autoip_arp_in.maxcores
	.set	autoip_arp_in.maxtimers,uip_ipaddr_cmp.maxtimers $M 0
	.globl	autoip_arp_in.maxtimers
	.set	autoip_arp_in.maxchanends,uip_ipaddr_cmp.maxchanends $M 0
	.globl	autoip_arp_in.maxchanends
	.cc_top random_timer_set.function
	.align	2
	.type	random_timer_set,@function
random_timer_set:
.Ltmp33:
	.cfi_startproc
.Lfunc_begin5:
	.loc	1 113 0
	entsp 2
.Ltmp34:
	.cfi_def_cfa_offset 8
.Ltmp35:
	.cfi_offset 15, 0
	stw r4, sp[1]
.Ltmp36:
	.cfi_offset 4, -4
	mov r4, r0
	.loc	1 115 0 prologue_end
.Ltmp37:
	bl rand
	.loc	1 118 0
	ldaw r0, dp[my_autoip_state+28]
.Ltmp38:
	mov r1, r4
	bl timer_set
	.loc	1 119 0
	ldw r4, sp[1]
	retsp 2
.Ltmp39:
.Ltmp40:
	.size	random_timer_set, .Ltmp40-random_timer_set
.Lfunc_end5:
.Ltmp41:
	.cfi_endproc
.Leh_func_end5:

	.cc_bottom random_timer_set.function
	.set	random_timer_set.nstackwords,((rand.nstackwords $M timer_set.nstackwords) + 2)
	.set	random_timer_set.maxcores,rand.maxcores $M timer_set.maxcores $M 1
	.set	random_timer_set.maxtimers,rand.maxtimers $M timer_set.maxtimers $M 0
	.set	random_timer_set.maxchanends,rand.maxchanends $M timer_set.maxchanends $M 0
	.cc_top create_arp_packet.function
	.align	2
	.type	create_arp_packet,@function
create_arp_packet:
.Ltmp46:
	.cfi_startproc
.Lfunc_begin6:
	.loc	1 123 0
	entsp 4
.Ltmp47:
	.cfi_def_cfa_offset 16
.Ltmp48:
	.cfi_offset 15, 0
	.loc	1 124 0 prologue_end
.Ltmp49:
	stw r4, sp[3]
.Ltmp50:
	.cfi_offset 4, -4
	stw r5, sp[2]
.Ltmp51:
	.cfi_offset 5, -8
	stw r6, sp[1]
.Ltmp52:
	.cfi_offset 6, -12
	ldw r0, dp[uip_buf]
	ldaw r1, dp[autoip_arp_pkt]
	ldc r4, 42
	mov r2, r4
	bl memcpy
	.loc	1 125 0
	ldw r0, dp[uip_buf]
	add r0, r0, 6
	ldaw r6, dp[uip_ethaddr]
	ldc r5, 6
	mov r1, r6
	mov r2, r5
	bl memcpy
	ldc r0, 22
	.loc	1 126 0
	ldw r1, dp[uip_buf]
	add r0, r1, r0
	mov r1, r6
	mov r2, r5
	bl memcpy
	ldc r0, 54
	.loc	1 128 0
	ldw r1, dp[uip_buf]
	add r0, r1, r0
	stw r0, dp[uip_appdata]
	.loc	1 129 0
	ldc r0, 0
	ldaw r1, dp[uip_len]
	st16 r4, r1[r0]
	.loc	1 130 0
	ldw r6, sp[1]
	ldw r5, sp[2]
	ldw r4, sp[3]
	retsp 4
.Ltmp53:
.Ltmp54:
	.size	create_arp_packet, .Ltmp54-create_arp_packet
.Lfunc_end6:
.Ltmp55:
	.cfi_endproc
.Leh_func_end6:

	.cc_bottom create_arp_packet.function
	.set	create_arp_packet.nstackwords,(memcpy.nstackwords + 4)
	.set	create_arp_packet.maxcores,1
	.set	create_arp_packet.maxtimers,0
	.set	create_arp_packet.maxchanends,0
	.cc_top send_probe.function
	.align	2
	.type	send_probe,@function
send_probe:
.Ltmp57:
	.cfi_startproc
.Lfunc_begin7:
	.loc	1 133 0
	entsp 1
.Ltmp58:
	.cfi_def_cfa_offset 4
.Ltmp59:
	.cfi_offset 15, 0
	.loc	1 134 0 prologue_end
.Ltmp60:
	bl create_arp_packet
	ldc r0, 38
	.loc	1 135 0
	ldw r1, dp[uip_buf]
	add r0, r1, r0
	ldaw r1, dp[my_autoip_state+36]
	bl uip_ipaddr_copy
	.loc	1 137 0
	ldw r0, dp[my_autoip_state+4]
	add r0, r0, 1
	stw r0, dp[my_autoip_state+4]
	ldc r0, 1000
	.loc	1 138 0
	bl random_timer_set
	.loc	1 141 0
	retsp 1
.Ltmp61:
.Ltmp62:
	.size	send_probe, .Ltmp62-send_probe
.Lfunc_end7:
.Ltmp63:
	.cfi_endproc
.Leh_func_end7:

	.cc_bottom send_probe.function
	.set	send_probe.nstackwords,((create_arp_packet.nstackwords $M uip_ipaddr_copy.nstackwords $M random_timer_set.nstackwords) + 1)
	.set	send_probe.maxcores,create_arp_packet.maxcores $M random_timer_set.maxcores $M uip_ipaddr_copy.maxcores $M 1
	.set	send_probe.maxtimers,create_arp_packet.maxtimers $M random_timer_set.maxtimers $M uip_ipaddr_copy.maxtimers $M 0
	.set	send_probe.maxchanends,create_arp_packet.maxchanends $M random_timer_set.maxchanends $M uip_ipaddr_copy.maxchanends $M 0
	.cc_top send_announce.function
	.align	2
	.type	send_announce,@function
send_announce:
.Ltmp66:
	.cfi_startproc
.Lfunc_begin8:
	.loc	1 144 0
	entsp 2
.Ltmp67:
	.cfi_def_cfa_offset 8
.Ltmp68:
	.cfi_offset 15, 0
	.loc	1 145 0 prologue_end
.Ltmp69:
	stw r4, sp[1]
.Ltmp70:
	.cfi_offset 4, -4
	bl create_arp_packet
	ldc r0, 38
	.loc	1 146 0
	ldw r1, dp[uip_buf]
	add r0, r1, r0
	ldaw r4, dp[my_autoip_state+36]
	mov r1, r4
	bl uip_ipaddr_copy
	.loc	1 147 0
	ldw r0, dp[uip_buf]
	ldaw r0, r0[7]
	mov r1, r4
	bl uip_ipaddr_copy
	.loc	1 149 0
	ldw r0, dp[my_autoip_state+8]
	add r0, r0, 1
	stw r0, dp[my_autoip_state+8]
	.loc	1 150 0
	ldaw r0, dp[my_autoip_state+28]
	ldc r1, 2000
	bl timer_set
	.loc	1 151 0
	ldw r4, sp[1]
	retsp 2
.Ltmp71:
.Ltmp72:
	.size	send_announce, .Ltmp72-send_announce
.Lfunc_end8:
.Ltmp73:
	.cfi_endproc
.Leh_func_end8:

	.cc_bottom send_announce.function
	.set	send_announce.nstackwords,((create_arp_packet.nstackwords $M uip_ipaddr_copy.nstackwords $M timer_set.nstackwords) + 2)
	.set	send_announce.maxcores,create_arp_packet.maxcores $M timer_set.maxcores $M uip_ipaddr_copy.maxcores $M 1
	.set	send_announce.maxtimers,create_arp_packet.maxtimers $M timer_set.maxtimers $M uip_ipaddr_copy.maxtimers $M 0
	.set	send_announce.maxchanends,create_arp_packet.maxchanends $M timer_set.maxchanends $M uip_ipaddr_copy.maxchanends $M 0
	.cc_top autoip_periodic.function
	.section	.cp.rodata.cst4,"aMc",@progbits,4
	.cc_top .LCPI9_0.data
	.align	4
.LCPI9_0:
	.long	4294966953
	.cc_bottom .LCPI9_0.data
	.text
	.globl	autoip_periodic
	.align	2
	.type	autoip_periodic,@function
autoip_periodic:
.Ltmp76:
	.cfi_startproc
.Lfunc_begin9:
	.loc	1 154 0
	entsp 2
.Ltmp77:
	.cfi_def_cfa_offset 8
.Ltmp78:
	.cfi_offset 15, 0
	.loc	1 155 0 prologue_end
.Ltmp79:
	stw r4, sp[1]
.Ltmp80:
	.cfi_offset 4, -4
	ldw r0, dp[my_autoip_state]
	sub r0, r0, 1
	ldc r4, 4
	lsu r1, r4, r0
	bt r1, .LBB9_17
	
	.xtabranch .Ljumptable0+2,.Ljumptable0+4,.Ljumptable0+6,.Ljumptable0+8,.Ljumptable0+10
.Ljumptable0:
		bru r0
	.jmptable .LBB9_2,.LBB9_5,.LBB9_8,.LBB9_11,.LBB9_15
.LBB9_2:
	.loc	1 162 0
.Ltmp81:
	ldw r0, dp[my_autoip_state+16]
	bf r0, .LBB9_4
	ldaw r0, dp[my_autoip_state+28]
	bl timer_expired
	bf r0, .LBB9_17
.LBB9_4:
	.loc	1 163 0
	bl rand
	.loc	1 164 0
	ldw r1, dp[my_autoip_state+20]
	.loc	1 166 0
	ldc r0, 0
	ldaw r2, dp[my_autoip_state+36]
	ldw r3, cp[.LCPI9_0]
	st16 r3, r2[r0]
	ldc r2, 38
	.loc	1 164 0
	ldaw r3, dp[my_autoip_state]
	.loc	1 166 0
	add r2, r3, r2
	st16 r1, r2[r0]
	ldc r1, 2
	.loc	1 167 0
	stw r1, dp[my_autoip_state]
	.loc	1 168 0
	bl random_timer_set
	bu .LBB9_17
.Ltmp82:
.LBB9_5:
	.loc	1 173 0
	ldaw r0, dp[my_autoip_state+28]
	bl timer_expired
	bf r0, .LBB9_17
	mkmsk r0, 2
	.loc	1 174 0
	stw r0, dp[my_autoip_state]
.LBB9_7:
	.loc	1 187 0
	bl send_probe
	bu .LBB9_17
.LBB9_8:
	.loc	1 179 0
	ldaw r0, dp[my_autoip_state+28]
	bl timer_expired
	bf r0, .LBB9_17
	.loc	1 181 0
	ldw r0, dp[my_autoip_state+4]
	eq r0, r0, 3
	bf r0, .LBB9_7
	.loc	1 183 0
	stw r4, dp[my_autoip_state]
	.loc	1 184 0
	ldaw r0, dp[my_autoip_state+28]
	ldc r1, 2000
	bl timer_set
	bu .LBB9_17
.LBB9_11:
	.loc	1 191 0
	ldaw r0, dp[my_autoip_state+28]
	bl timer_expired
	bf r0, .LBB9_17
	.loc	1 192 0
	ldw r0, dp[my_autoip_state+12]
	bt r0, .LBB9_14
	ldc r0, 5
	.loc	1 193 0
	stw r0, dp[my_autoip_state]
	.loc	1 194 0
	bl send_announce
	bu .LBB9_17
.LBB9_14:
	mkmsk r0, 1
	.loc	1 197 0
	stw r0, dp[my_autoip_state]
	ldc r0, 0
	.loc	1 198 0
	stw r0, dp[my_autoip_state+4]
	.loc	1 199 0
	stw r0, dp[my_autoip_state+8]
	.loc	1 200 0
	stw r0, dp[my_autoip_state+12]
	.loc	1 201 0
	ldw r0, dp[my_autoip_state+16]
	eq r0, r0, 0
	eq r0, r0, 0
	stw r0, dp[my_autoip_state+16]
	.loc	1 204 0
	ldaw r0, dp[my_autoip_state+28]
	ldc r1, 60000
	bl timer_set
	bu .LBB9_17
.LBB9_15:
	.loc	1 209 0
	bl send_announce
	.loc	1 210 0
	ldw r0, dp[my_autoip_state+8]
	eq r0, r0, 2
	bf r0, .LBB9_17
	ldc r0, 6
	.loc	1 211 0
	stw r0, dp[my_autoip_state]
	.loc	1 212 0
	ldaw r0, dp[my_autoip_state+36]
	bl autoip_configured
.LBB9_17:
	.loc	1 218 0
	ldw r4, sp[1]
	retsp 2
.Ltmp83:
.Ltmp84:
	.size	autoip_periodic, .Ltmp84-autoip_periodic
.Lfunc_end9:
.Ltmp85:
	.cfi_endproc
.Leh_func_end9:

	.cc_bottom autoip_periodic.function
	.set	autoip_periodic.nstackwords,((rand.nstackwords $M random_timer_set.nstackwords $M send_probe.nstackwords $M timer_expired.nstackwords $M timer_set.nstackwords $M send_announce.nstackwords $M autoip_configured.nstackwords) + 2)
	.globl	autoip_periodic.nstackwords
	.set	autoip_periodic.maxcores,autoip_configured.maxcores $M rand.maxcores $M random_timer_set.maxcores $M send_announce.maxcores $M send_probe.maxcores $M timer_expired.maxcores $M timer_set.maxcores $M 1
	.globl	autoip_periodic.maxcores
	.set	autoip_periodic.maxtimers,autoip_configured.maxtimers $M rand.maxtimers $M random_timer_set.maxtimers $M send_announce.maxtimers $M send_probe.maxtimers $M timer_expired.maxtimers $M timer_set.maxtimers $M 0
	.globl	autoip_periodic.maxtimers
	.set	autoip_periodic.maxchanends,autoip_configured.maxchanends $M rand.maxchanends $M random_timer_set.maxchanends $M send_announce.maxchanends $M send_probe.maxchanends $M timer_expired.maxchanends $M timer_set.maxchanends $M 0
	.globl	autoip_periodic.maxchanends
	.section	.dp.bss,"awd",@nobits
	.cc_top my_autoip_state.data
	.align	4
	.type	my_autoip_state,@object
	.size my_autoip_state,40
my_autoip_state:
	.space	40
	.cc_bottom my_autoip_state.data
	.section	.dp.rodata,"awd",@progbits
	.cc_top autoip_arp_pkt.data
	.align	4
	.type	autoip_arp_pkt,@object
	.size autoip_arp_pkt,42
autoip_arp_pkt:
	.ascii	 "\377\377\377\377\377\377"
	.space	6
	.short	1544
	.short	256
	.short	8
	.byte	6
	.byte	4
	.short	256
	.space	6
	.space	4
	.space	6
	.space	4
	.cc_bottom autoip_arp_pkt.data
	.cfi_sections .debug_frame
	.text
.Ltext_end:
	.section	.dp.data,"awd",@progbits
.Ldata_end:
	.text
.Lsection_end1: