	.file	"/home/vdelacruz/Documents/Ethernet 2 Ports/module_xtcp/src/ethernet_xtcp_server.xc"

	.inline_definition xtcp_complete_send
	.inline_definition delay_seconds
	.inline_definition delay_milliseconds
	.inline_definition delay_microseconds
	.inline_definition mii_packet_get_length
	.inline_definition mii_packet_set_length
	.inline_definition mii_packet_get_timestamp
	.inline_definition mii_packet_set_timestamp
	.inline_definition mii_packet_get_filter_result
	.inline_definition mii_packet_set_filter_result
	.inline_definition mii_packet_get_src_port
	.inline_definition mii_packet_set_src_port
	.inline_definition mii_packet_get_timestamp_id
	.inline_definition mii_packet_set_timestamp_id
	.inline_definition mii_packet_get_stage
	.inline_definition mii_packet_set_stage
	.inline_definition mii_packet_get_tcount
	.inline_definition mii_packet_set_tcount
	.inline_definition mii_packet_get_crc
	.inline_definition mii_packet_set_crc
	.inline_definition mii_packet_get_forwarding
	.inline_definition mii_packet_set_forwarding
	.inline_definition mii_packet_get_user_data
	.inline_definition mii_packet_set_user_data
	.inline_definition mii_packet_get_data_ptr
	.inline_definition mii_packet_set_data_word
	.inline_definition mii_packet_get_data_word
	.inline_definition mii_packet_set_data
	.inline_definition mii_packet_set_data_short
	.inline_definition mii_packet_set_data_byte
	.inline_definition eth_phy_reset
	.set usage.anon.0,0
	.set usage.anon.1,0
	.set usage.anon.2,0
	.set usage.anon.3,0
	.set usage.anon.4,0
	.set usage.anon.5,0
	.set usage.anon.6,0
	.set usage.anon.7,0
	.set usage.anon.8,0
	.set usage.anon.9,0
	.set usage.anon.10,0
	.set usage.anon.11,0
	.set usage.anon.12,0
	.set usage.anon.13,0
	.set usage.anon.14,0
	.set usage.anon.15,0
	.set usage.anon.16,0
	.set usage.anon.17,0
	.set usage.anon.18,0
	.set usage.anon.19,0
	.set usage.anon.20,0
	.set usage.anon.21,0
	.set usage.anon.22,0
	.set usage.anon.23,0
	.set usage.anon.24,0
	.set usage.anon.25,0
	.set usage.anon.26,0
	.set usage.anon.27,0
	.set usage.anon.28,0
	.set usage.anon.29,0
	.set usage.anon.30,0
	.call ethernet_xtcp_server,usage.anon.30
	.call ethernet_xtcp_server,uip_single_server
	.call ethernet_xtcp_server,otp_board_info_get_mac
	.call usage.anon.3,delay_ticks_longlong
	.call usage.anon.2,delay_ticks_longlong
	.call usage.anon.1,delay_ticks_longlong
	.call usage.anon.0,xtcp_send
	.set usage.anon.1.locnoside, 1
	.set usage.anon.2.locnoside, 1
	.set usage.anon.3.locnoside, 1
	.set usage.anon.4.locnoside, 1
	.set usage.anon.5.locnoside, 1
	.set usage.anon.6.locnoside, 1
	.set usage.anon.7.locnoside, 1
	.set usage.anon.8.locnoside, 1
	.set usage.anon.9.locnoside, 1
	.set usage.anon.10.locnoside, 1
	.set usage.anon.11.locnoside, 1
	.set usage.anon.12.locnoside, 1
	.set usage.anon.13.locnoside, 1
	.set usage.anon.14.locnoside, 1
	.set usage.anon.15.locnoside, 1
	.set usage.anon.16.locnoside, 1
	.set usage.anon.17.locnoside, 1
	.set usage.anon.18.locnoside, 1
	.set usage.anon.19.locnoside, 1
	.set usage.anon.20.locnoside, 1
	.set usage.anon.21.locnoside, 1
	.set usage.anon.22.locnoside, 1
	.set usage.anon.23.locnoside, 1
	.set usage.anon.24.locnoside, 1
	.set usage.anon.25.locnoside, 1
	.set usage.anon.26.locnoside, 1
	.set usage.anon.27.locnoside, 1
	.set usage.anon.28.locnoside, 1
	.set usage.anon.29.locnoside, 1
	.set usage.anon.30.locnoside, 1
	.set usage.anon.0.locnochandec, 1
	.set usage.anon.1.locnochandec, 1
	.set usage.anon.2.locnochandec, 1
	.set usage.anon.3.locnochandec, 1
	.set usage.anon.4.locnochandec, 1
	.set usage.anon.5.locnochandec, 1
	.set usage.anon.6.locnochandec, 1
	.set usage.anon.7.locnochandec, 1
	.set usage.anon.8.locnochandec, 1
	.set usage.anon.9.locnochandec, 1
	.set usage.anon.10.locnochandec, 1
	.set usage.anon.11.locnochandec, 1
	.set usage.anon.12.locnochandec, 1
	.set usage.anon.13.locnochandec, 1
	.set usage.anon.14.locnochandec, 1
	.set usage.anon.15.locnochandec, 1
	.set usage.anon.16.locnochandec, 1
	.set usage.anon.17.locnochandec, 1
	.set usage.anon.18.locnochandec, 1
	.set usage.anon.19.locnochandec, 1
	.set usage.anon.20.locnochandec, 1
	.set usage.anon.21.locnochandec, 1
	.set usage.anon.22.locnochandec, 1
	.set usage.anon.23.locnochandec, 1
	.set usage.anon.24.locnochandec, 1
	.set usage.anon.25.locnochandec, 1
	.set usage.anon.26.locnochandec, 1
	.set usage.anon.27.locnochandec, 1
	.set usage.anon.28.locnochandec, 1
	.set usage.anon.29.locnochandec, 1
	.set usage.anon.30.locnochandec, 1
	.set ethernet_xtcp_server.locnochandec, 1
	.set usage.anon.0.locnoglobalaccess, 1
	.set usage.anon.1.locnoglobalaccess, 1
	.set usage.anon.2.locnoglobalaccess, 1
	.set usage.anon.3.locnoglobalaccess, 1
	.set usage.anon.4.locnoglobalaccess, 1
	.set usage.anon.5.locnoglobalaccess, 1
	.set usage.anon.6.locnoglobalaccess, 1
	.set usage.anon.7.locnoglobalaccess, 1
	.set usage.anon.8.locnoglobalaccess, 1
	.set usage.anon.9.locnoglobalaccess, 1
	.set usage.anon.10.locnoglobalaccess, 1
	.set usage.anon.11.locnoglobalaccess, 1
	.set usage.anon.12.locnoglobalaccess, 1
	.set usage.anon.13.locnoglobalaccess, 1
	.set usage.anon.14.locnoglobalaccess, 1
	.set usage.anon.15.locnoglobalaccess, 1
	.set usage.anon.16.locnoglobalaccess, 1
	.set usage.anon.17.locnoglobalaccess, 1
	.set usage.anon.18.locnoglobalaccess, 1
	.set usage.anon.19.locnoglobalaccess, 1
	.set usage.anon.20.locnoglobalaccess, 1
	.set usage.anon.21.locnoglobalaccess, 1
	.set usage.anon.22.locnoglobalaccess, 1
	.set usage.anon.23.locnoglobalaccess, 1
	.set usage.anon.24.locnoglobalaccess, 1
	.set usage.anon.25.locnoglobalaccess, 1
	.set usage.anon.26.locnoglobalaccess, 1
	.set usage.anon.27.locnoglobalaccess, 1
	.set usage.anon.28.locnoglobalaccess, 1
	.set usage.anon.29.locnoglobalaccess, 1
	.set usage.anon.30.locnoglobalaccess, 1
	.set ethernet_xtcp_server.locnoglobalaccess, 1
	.set usage.anon.0.locnointerfaceaccess, 1
	.set usage.anon.1.locnointerfaceaccess, 1
	.set usage.anon.2.locnointerfaceaccess, 1
	.set usage.anon.3.locnointerfaceaccess, 1
	.set usage.anon.4.locnointerfaceaccess, 1
	.set usage.anon.5.locnointerfaceaccess, 1
	.set usage.anon.6.locnointerfaceaccess, 1
	.set usage.anon.7.locnointerfaceaccess, 1
	.set usage.anon.8.locnointerfaceaccess, 1
	.set usage.anon.9.locnointerfaceaccess, 1
	.set usage.anon.10.locnointerfaceaccess, 1
	.set usage.anon.11.locnointerfaceaccess, 1
	.set usage.anon.12.locnointerfaceaccess, 1
	.set usage.anon.13.locnointerfaceaccess, 1
	.set usage.anon.14.locnointerfaceaccess, 1
	.set usage.anon.15.locnointerfaceaccess, 1
	.set usage.anon.16.locnointerfaceaccess, 1
	.set usage.anon.17.locnointerfaceaccess, 1
	.set usage.anon.18.locnointerfaceaccess, 1
	.set usage.anon.19.locnointerfaceaccess, 1
	.set usage.anon.20.locnointerfaceaccess, 1
	.set usage.anon.21.locnointerfaceaccess, 1
	.set usage.anon.22.locnointerfaceaccess, 1
	.set usage.anon.23.locnointerfaceaccess, 1
	.set usage.anon.24.locnointerfaceaccess, 1
	.set usage.anon.25.locnointerfaceaccess, 1
	.set usage.anon.26.locnointerfaceaccess, 1
	.set usage.anon.27.locnointerfaceaccess, 1
	.set usage.anon.28.locnointerfaceaccess, 1
	.set usage.anon.29.locnointerfaceaccess, 1
	.set usage.anon.30.locnointerfaceaccess, 1
	.set ethernet_xtcp_server.locnointerfaceaccess, 1
	.set usage.anon.0.locnonotificationselect, 1
	.set usage.anon.1.locnonotificationselect, 1
	.set usage.anon.2.locnonotificationselect, 1
	.set usage.anon.3.locnonotificationselect, 1
	.set usage.anon.4.locnonotificationselect, 1
	.set usage.anon.5.locnonotificationselect, 1
	.set usage.anon.6.locnonotificationselect, 1
	.set usage.anon.7.locnonotificationselect, 1
	.set usage.anon.8.locnonotificationselect, 1
	.set usage.anon.9.locnonotificationselect, 1
	.set usage.anon.10.locnonotificationselect, 1
	.set usage.anon.11.locnonotificationselect, 1
	.set usage.anon.12.locnonotificationselect, 1
	.set usage.anon.13.locnonotificationselect, 1
	.set usage.anon.14.locnonotificationselect, 1
	.set usage.anon.15.locnonotificationselect, 1
	.set usage.anon.16.locnonotificationselect, 1
	.set usage.anon.17.locnonotificationselect, 1
	.set usage.anon.18.locnonotificationselect, 1
	.set usage.anon.19.locnonotificationselect, 1
	.set usage.anon.20.locnonotificationselect, 1
	.set usage.anon.21.locnonotificationselect, 1
	.set usage.anon.22.locnonotificationselect, 1
	.set usage.anon.23.locnonotificationselect, 1
	.set usage.anon.24.locnonotificationselect, 1
	.set usage.anon.25.locnonotificationselect, 1
	.set usage.anon.26.locnonotificationselect, 1
	.set usage.anon.27.locnonotificationselect, 1
	.set usage.anon.28.locnonotificationselect, 1
	.set usage.anon.29.locnonotificationselect, 1
	.set usage.anon.30.locnonotificationselect, 1
	.set ethernet_xtcp_server.locnonotificationselect, 1


	.file	1 "/home/vdelacruz/Documents/Ethernet 2 Ports/module_xtcp/src/ethernet_xtcp_server.xc"
	.file	2 "/home/vdelacruz/Documents/Ethernet 2 Ports/app_simple_webserver/.build_IPV4/xtcp_client.h"
	.file	3 "/home/vdelacruz/Documents/Ethernet 2 Ports/app_simple_webserver/.build_IPV4/timer.h"
	.file	4 "/home/vdelacruz/Documents/Ethernet 2 Ports/app_simple_webserver/.build_IPV4/mii_full.h"
	.file	5 "/home/vdelacruz/Documents/Ethernet 2 Ports/app_simple_webserver/.build_IPV4/ethernet_phy_reset.h"
	.text
.Ltext_begin:
	.section	.dp.data,"awd",@progbits
	.text
	.cc_top ethernet_xtcp_server.function
	.globl	ethernet_xtcp_server
	.align	2
	.type	ethernet_xtcp_server,@function
ethernet_xtcp_server:
.Ltmp6:
	.cfi_startproc
.Lfunc_begin0:
	.loc	1 10 0
.Lxtalabel0:
	entsp 12
.Ltmp7:
	.cfi_def_cfa_offset 48
.Ltmp8:
	.cfi_offset 15, 0
	.loc	1 6 0 prologue_end
.Ltmp9:
	stw r4, sp[11]
.Ltmp10:
	.cfi_offset 4, -4
	stw r5, sp[10]
.Ltmp11:
	.cfi_offset 5, -8
	stw r6, sp[9]
.Ltmp12:
	.cfi_offset 6, -12
	stw r7, sp[8]
.Ltmp13:
	.cfi_offset 7, -16
	stw r8, sp[7]
.Ltmp14:
	.cfi_offset 8, -20
	mov r4, r2
.Ltmp15:
	mov r7, r1
.Ltmp16:
	mov r5, r0
.Ltmp17:
	ldc r6, 0
	ldaw r8, sp[5]
	.loc	1 12 0
.Ltmp18:
	mov r0, r5
	mov r1, r6
	mov r2, r8
.Lxta.call_labels0:
	bl otp_board_info_get_mac
.Ltmp19:
	ldw r0, sp[13]
	.loc	1 16 0
	stw r0, sp[4]
	stw r8, sp[3]
	stw r7, sp[2]
	mkmsk r0, 1
	stw r0, sp[1]
	.loc	1 16 0
	ldaw r1, r5[3]
	ldaw r2, r5[5]
	.loc	1 16 0
	mov r0, r6
	mov r3, r4
.Ltmp20:
.Lxta.call_labels1:
	bl uip_single_server
.Ltmp21:
	ldw r8, sp[7]
	ldw r7, sp[8]
.Ltmp22:
	ldw r6, sp[9]
	ldw r5, sp[10]
.Ltmp23:
	ldw r4, sp[11]
	retsp 12
.Ltmp24:
.Ltmp25:
	.size	ethernet_xtcp_server, .Ltmp25-ethernet_xtcp_server
.Lfunc_end0:
.Ltmp26:
	.cfi_endproc
.Leh_func_end0:

	.cc_bottom ethernet_xtcp_server.function
	.set	ethernet_xtcp_server.nstackwords,((otp_board_info_get_mac.nstackwords $M uip_single_server.nstackwords) + 12)
	.globl	ethernet_xtcp_server.nstackwords
	.set	ethernet_xtcp_server.maxcores,otp_board_info_get_mac.maxcores $M uip_single_server.maxcores $M 1
	.globl	ethernet_xtcp_server.maxcores
	.set	ethernet_xtcp_server.maxtimers,otp_board_info_get_mac.maxtimers $M uip_single_server.maxtimers $M 0
	.globl	ethernet_xtcp_server.maxtimers
	.set	ethernet_xtcp_server.maxchanends,otp_board_info_get_mac.maxchanends $M uip_single_server.maxchanends $M 0
	.globl	ethernet_xtcp_server.maxchanends
	.cfi_sections .debug_frame
.Ltext_end:
	.section	.dp.data,"awd",@progbits
.Ldata_end:
	.text
.Lsection_end1:
	.section	.xtacalltable,"",@progbits
.Lentries_start0:
	.long	.Lentries_end1-.Lentries_start0
	.long	0
	.ascii	 "/home/vdelacruz/Documents/Ethernet 2 Ports/app_simple_webserver/.build_IPV4"
	.byte	0
.cc_top cc_0,.Lxta.call_labels0
	.ascii	 "/home/vdelacruz/Documents/Ethernet 2 Ports/module_xtcp/src/ethernet_xtcp_server.xc"
	.byte	0
	.long	12
	.long	.Lxta.call_labels0
.cc_bottom cc_0
.cc_top cc_1,.Lxta.call_labels1
	.ascii	 "/home/vdelacruz/Documents/Ethernet 2 Ports/module_xtcp/src/ethernet_xtcp_server.xc"
	.byte	0
	.long	15
	.long	.Lxta.call_labels1
.cc_bottom cc_1
.Lentries_end1:
	.section	.xtalabeltable,"",@progbits
.Lentries_start2:
	.long	.Lentries_end3-.Lentries_start2
	.long	0
	.ascii	 "/home/vdelacruz/Documents/Ethernet 2 Ports/app_simple_webserver/.build_IPV4"
	.byte	0
.cc_top cc_2,.Lxtalabel0
	.ascii	 "/home/vdelacruz/Documents/Ethernet 2 Ports/module_xtcp/src/ethernet_xtcp_server.xc"
	.byte	0
	.long	10
	.long	17
	.long	.Lxtalabel0
.cc_bottom cc_2
.Lentries_end3:
