	.file	"/home/vdelacruz/Documents/Ethernet 2 Ports/module_ethernet/src/full/ethernet_tx_client.xc"

	.inline_definition delay_seconds
	.inline_definition delay_milliseconds
	.inline_definition delay_microseconds
	.set usage.anon.0,0
	.set usage.anon.1,0
	.set usage.anon.2,0
	.set usage.anon.3,0
	.call mac_tx_timed,usage.anon.3
	.call mac_tx_full,usage.anon.3
	.call usage.anon.2,delay_ticks_longlong
	.call usage.anon.1,delay_ticks_longlong
	.call usage.anon.0,delay_ticks_longlong
	.set usage.anon.0.locnoside, 1
	.set usage.anon.1.locnoside, 1
	.set usage.anon.2.locnoside, 1
	.set mac_set_qav_bandwidth.locnoside, 1
	.set usage.anon.0.locnochandec, 1
	.set usage.anon.1.locnochandec, 1
	.set usage.anon.2.locnochandec, 1
	.set mac_check_link_client.locnochandec, 1
	.set usage.anon.3.locnochandec, 1
	.set mac_tx_full.locnochandec, 1
	.set mac_tx_offset2.locnochandec, 1
	.set mac_tx_timed.locnochandec, 1
	.set mac_get_macaddr_full.locnochandec, 1
	.set mac_set_qav_bandwidth.locnochandec, 1
	.set usage.anon.0.locnoglobalaccess, 1
	.set usage.anon.1.locnoglobalaccess, 1
	.set usage.anon.2.locnoglobalaccess, 1
	.set mac_check_link_client.locnoglobalaccess, 1
	.set usage.anon.3.locnoglobalaccess, 1
	.set mac_tx_full.locnoglobalaccess, 1
	.set mac_tx_offset2.locnoglobalaccess, 1
	.set mac_tx_timed.locnoglobalaccess, 1
	.set mac_get_macaddr_full.locnoglobalaccess, 1
	.set mac_set_qav_bandwidth.locnoglobalaccess, 1
	.set usage.anon.0.locnointerfaceaccess, 1
	.set usage.anon.1.locnointerfaceaccess, 1
	.set usage.anon.2.locnointerfaceaccess, 1
	.set mac_check_link_client.locnointerfaceaccess, 1
	.set usage.anon.3.locnointerfaceaccess, 1
	.set mac_tx_full.locnointerfaceaccess, 1
	.set mac_tx_offset2.locnointerfaceaccess, 1
	.set mac_tx_timed.locnointerfaceaccess, 1
	.set mac_get_macaddr_full.locnointerfaceaccess, 1
	.set mac_set_qav_bandwidth.locnointerfaceaccess, 1
	.set usage.anon.0.locnonotificationselect, 1
	.set usage.anon.1.locnonotificationselect, 1
	.set usage.anon.2.locnonotificationselect, 1
	.set mac_check_link_client.locnonotificationselect, 1
	.set usage.anon.3.locnonotificationselect, 1
	.set mac_tx_full.locnonotificationselect, 1
	.set mac_tx_offset2.locnonotificationselect, 1
	.set mac_tx_timed.locnonotificationselect, 1
	.set mac_get_macaddr_full.locnonotificationselect, 1
	.set mac_set_qav_bandwidth.locnonotificationselect, 1


	.file	1 "/home/vdelacruz/Documents/Ethernet 2 Ports/module_ethernet/src/full/ethernet_tx_client.xc"
	.file	2 "/home/vdelacruz/Documents/Ethernet 2 Ports/app_simple_webserver/.build_IPV4/timer.h"
	.text
.Ltext_begin:
	.section	.dp.data,"awd",@progbits
	.text
	.cc_top mac_tx_full.function
	.section	.cp.rodata.cst4,"aMc",@progbits,4
	.cc_top .LCPI0_0.data
	.align	4
.LCPI0_0:
	.long	2147483648
	.cc_bottom .LCPI0_0.data
	.text
	.globl	mac_tx_full
	.align	4
	.type	mac_tx_full,@function
mac_tx_full:
.Ltmp1:
	.cfi_startproc
.Lfunc_begin0:
	.loc	1 82 0
.Lxtalabel0:
	stw lr, sp[0]
.Ltmp2:
	.cfi_offset 15, 0
.Ltmp3:
	.loc	1 63 0 prologue_end
	outct res[r0], 1
	chkct res[r0], 1
	ldw r11, cp[.LCPI0_0]
	.loc	1 63 0
.Lxta.endpoint_labels0:
	out res[r0], r11
	.loc	1 63 0
	outct res[r0], 1
	chkct res[r0], 1
	.loc	1 65 0
	chkct res[r0], 1
	.loc	1 66 0
.Lxta.endpoint_labels1:
	out res[r0], r2
	.loc	1 67 0
.Lxta.endpoint_labels2:
	out res[r0], r3
	.loc	1 68 0
	add r2, r2, 3
.Ltmp4:
	ashr r2, r2, 2
	mkmsk r3, 1
.Ltmp5:
	lss r3, r2, r3
	bt r3, .LBB0_3
	ldc r3, 0
.LBB0_2:
.Lxtalabel1:
.Ltmp6:
	.loc	1 69 0
	ldw r11, r1[r3]
	.loc	1 69 0
.Lxta.endpoint_labels3:
	out res[r0], r11
	.loc	1 68 0
	add r3, r3, 1
.Ltmp7:
	eq r11, r3, r2
.Lxta.loop_labels0:
	# LOOPMARKER 0
	bf r11, .LBB0_2
.Ltmp8:
.LBB0_3:
.Lxtalabel2:
	outct res[r0], 1
	chkct res[r0], 1
.Ltmp9:
	ldw lr, sp[0]
	retsp 0
.Ltmp10:
.Ltmp11:
	.size	mac_tx_full, .Ltmp11-mac_tx_full
.Lfunc_end0:
.Ltmp12:
	.cfi_endproc
.Leh_func_end0:

	.align	4
	.cc_bottom mac_tx_full.function
	.set	mac_tx_full.nstackwords,0
	.globl	mac_tx_full.nstackwords
	.set	mac_tx_full.maxcores,1
	.globl	mac_tx_full.maxcores
	.set	mac_tx_full.maxtimers,0
	.globl	mac_tx_full.maxtimers
	.set	mac_tx_full.maxchanends,0
	.globl	mac_tx_full.maxchanends
	.cc_top mac_tx_offset2.function
	.section	.cp.rodata.cst4,"aMc",@progbits,4
	.cc_top .LCPI1_0.data
	.align	4
.LCPI1_0:
	.long	2147483652
	.cc_bottom .LCPI1_0.data
	.text
	.globl	mac_tx_offset2
	.align	4
	.type	mac_tx_offset2,@function
mac_tx_offset2:
.Ltmp14:
	.cfi_startproc
.Lfunc_begin1:
	.loc	1 93 0
.Lxtalabel3:
	stw lr, sp[0]
.Ltmp15:
	.cfi_offset 15, 0
.Ltmp16:
	.loc	1 99 0 prologue_end
	outct res[r0], 1
	chkct res[r0], 1
	ldw r11, cp[.LCPI1_0]
	.loc	1 99 0
.Lxta.endpoint_labels4:
	out res[r0], r11
	.loc	1 99 0
	outct res[r0], 1
	chkct res[r0], 1
	.loc	1 101 0
	chkct res[r0], 1
	.loc	1 102 0
.Lxta.endpoint_labels5:
	out res[r0], r2
	.loc	1 103 0
.Lxta.endpoint_labels6:
	out res[r0], r3
	.loc	1 104 0
.Ltmp17:
	add r2, r2, 7
.Ltmp18:
	ashr r2, r2, 2
	mkmsk r3, 1
.Ltmp19:
	lss r3, r2, r3
	bt r3, .LBB1_3
	ldc r3, 0
.LBB1_2:
.Lxtalabel4:
.Ltmp20:
	.loc	1 105 0
	ldw r11, r1[r3]
	byterev r11, r11
	.loc	1 105 0
.Lxta.endpoint_labels7:
	out res[r0], r11
	.loc	1 104 0
	add r3, r3, 1
	eq r11, r3, r2
.Lxta.loop_labels1:
	# LOOPMARKER 0
	bf r11, .LBB1_2
.Ltmp21:
.LBB1_3:
.Lxtalabel5:
	outct res[r0], 1
	chkct res[r0], 1
	ldw lr, sp[0]
	retsp 0
.Ltmp22:
.Ltmp23:
	.size	mac_tx_offset2, .Ltmp23-mac_tx_offset2
.Lfunc_end1:
.Ltmp24:
	.cfi_endproc
.Leh_func_end1:

	.align	4
	.cc_bottom mac_tx_offset2.function
	.set	mac_tx_offset2.nstackwords,0
	.globl	mac_tx_offset2.nstackwords
	.set	mac_tx_offset2.maxcores,1
	.globl	mac_tx_offset2.maxcores
	.set	mac_tx_offset2.maxtimers,0
	.globl	mac_tx_offset2.maxtimers
	.set	mac_tx_offset2.maxchanends,0
	.globl	mac_tx_offset2.maxchanends
	.cc_top mac_tx_timed.function
	.section	.cp.rodata.cst4,"aMc",@progbits,4
	.cc_top .LCPI2_0.data
	.align	4
.LCPI2_0:
	.long	2147483649
	.cc_bottom .LCPI2_0.data
	.text
	.globl	mac_tx_timed
	.align	4
	.type	mac_tx_timed,@function
mac_tx_timed:
.Ltmp27:
	.cfi_startproc
.Lfunc_begin2:
	.loc	1 112 0
.Lxtalabel6:
	entsp 1
.Ltmp28:
	.cfi_def_cfa_offset 4
.Ltmp29:
	.cfi_offset 15, 0
	.loc	1 111 0 prologue_end
.Ltmp30:
	stw r4, sp[0]
.Ltmp31:
	.cfi_offset 4, -4
.Ltmp32:
	.loc	1 63 0
	outct res[r0], 1
	chkct res[r0], 1
	ldw r11, cp[.LCPI2_0]
	.loc	1 63 0
.Lxta.endpoint_labels8:
	out res[r0], r11
	.loc	1 63 0
	outct res[r0], 1
	chkct res[r0], 1
	.loc	1 65 0
	chkct res[r0], 1
	.loc	1 66 0
.Lxta.endpoint_labels9:
	out res[r0], r2
	ldw r11, sp[2]
	.loc	1 67 0
.Lxta.endpoint_labels10:
	out res[r0], r11
	.loc	1 68 0
	add r2, r2, 3
.Ltmp33:
	ashr r2, r2, 2
	mkmsk r11, 1
	lss r11, r2, r11
	bt r11, .LBB2_3
	ldc r11, 0
.LBB2_2:
.Lxtalabel7:
.Ltmp34:
	.loc	1 69 0
	ldw r4, r1[r11]
	.loc	1 69 0
.Lxta.endpoint_labels11:
	out res[r0], r4
	.loc	1 68 0
	add r11, r11, 1
.Ltmp35:
	eq r4, r11, r2
.Lxta.loop_labels2:
	# LOOPMARKER 0
	bf r4, .LBB2_2
.Ltmp36:
.LBB2_3:
.Lxtalabel8:
	outct res[r0], 1
	chkct res[r0], 1
	.loc	1 74 0
	chkct res[r0], 1
	outct res[r0], 1
	.loc	1 74 0
.Lxta.endpoint_labels12:
	in r1, res[r0]
	.loc	1 74 0
	stw r1, r3[0]
	chkct res[r0], 1
	outct res[r0], 1
	ldw r4, sp[0]
	retsp 1
.Ltmp37:
.Ltmp38:
	.size	mac_tx_timed, .Ltmp38-mac_tx_timed
.Lfunc_end2:
.Ltmp39:
	.cfi_endproc
.Leh_func_end2:

	.align	4
	.cc_bottom mac_tx_timed.function
	.set	mac_tx_timed.nstackwords,1
	.globl	mac_tx_timed.nstackwords
	.set	mac_tx_timed.maxcores,1
	.globl	mac_tx_timed.maxcores
	.set	mac_tx_timed.maxtimers,0
	.globl	mac_tx_timed.maxtimers
	.set	mac_tx_timed.maxchanends,0
	.globl	mac_tx_timed.maxchanends
	.cc_top mac_get_macaddr_full.function
	.section	.cp.rodata.cst4,"aMc",@progbits,4
	.cc_top .LCPI3_0.data
	.align	4
.LCPI3_0:
	.long	2147483650
	.cc_bottom .LCPI3_0.data
	.text
	.globl	mac_get_macaddr_full
	.align	4
	.type	mac_get_macaddr_full,@function
mac_get_macaddr_full:
.Ltmp40:
	.cfi_startproc
.Lfunc_begin3:
	.loc	1 119 0
.Lxtalabel9:
	.loc	1 121 0 prologue_end
	outct res[r0], 1
	chkct res[r0], 1
	ldw r2, cp[.LCPI3_0]
	.loc	1 121 0
.Lxta.endpoint_labels13:
	out res[r0], r2
	.loc	1 121 0
	outct res[r0], 1
	chkct res[r0], 1
	.loc	1 123 0
	outct res[r0], 1
	.loc	1 127 0
.Lxta.endpoint_labels14:
	int r3, res[r0]
	.loc	1 127 0
	ldc r2, 0
	st8 r3, r1[r2]
	.loc	1 127 0
.Lxta.endpoint_labels15:
	int r3, res[r0]
.Ltmp41:
	mkmsk r11, 1
	.loc	1 127 0
	st8 r3, r1[r11]
	.loc	1 127 0
.Lxta.endpoint_labels16:
	int r3, res[r0]
	ldc r11, 2
	.loc	1 127 0
	st8 r3, r1[r11]
	.loc	1 127 0
.Lxta.endpoint_labels17:
	int r3, res[r0]
	mkmsk r11, 2
	.loc	1 127 0
	st8 r3, r1[r11]
	.loc	1 127 0
.Lxta.endpoint_labels18:
	int r3, res[r0]
	ldc r11, 4
	.loc	1 127 0
	st8 r3, r1[r11]
	.loc	1 127 0
.Lxta.endpoint_labels19:
	int r3, res[r0]
	ldc r11, 5
	.loc	1 127 0
	st8 r3, r1[r11]
	.loc	1 125 0
	chkct res[r0], 1
	outct res[r0], 1
	mov r0, r2
.Ltmp42:
	retsp 0
.Ltmp43:
.Ltmp44:
	.size	mac_get_macaddr_full, .Ltmp44-mac_get_macaddr_full
.Lfunc_end3:
.Ltmp45:
	.cfi_endproc
.Leh_func_end3:

	.align	4
	.cc_bottom mac_get_macaddr_full.function
	.set	mac_get_macaddr_full.nstackwords,0
	.globl	mac_get_macaddr_full.nstackwords
	.set	mac_get_macaddr_full.maxcores,1
	.globl	mac_get_macaddr_full.maxcores
	.set	mac_get_macaddr_full.maxtimers,0
	.globl	mac_get_macaddr_full.maxtimers
	.set	mac_get_macaddr_full.maxchanends,0
	.globl	mac_get_macaddr_full.maxchanends
	.cc_top mac_set_qav_bandwidth.function
	.globl	mac_set_qav_bandwidth
	.align	4
	.type	mac_set_qav_bandwidth,@function
mac_set_qav_bandwidth:
.Ltmp46:
	.cfi_startproc
.Lxtalabel10:
	retsp 0
.Ltmp47:
	.size	mac_set_qav_bandwidth, .Ltmp47-mac_set_qav_bandwidth
.Ltmp48:
	.cfi_endproc
.Leh_func_end4:

	.align	4
	.cc_bottom mac_set_qav_bandwidth.function
	.set	mac_set_qav_bandwidth.nstackwords,0
	.globl	mac_set_qav_bandwidth.nstackwords
	.set	mac_set_qav_bandwidth.maxcores,1
	.globl	mac_set_qav_bandwidth.maxcores
	.set	mac_set_qav_bandwidth.maxtimers,0
	.globl	mac_set_qav_bandwidth.maxtimers
	.set	mac_set_qav_bandwidth.maxchanends,0
	.globl	mac_set_qav_bandwidth.maxchanends
	.cc_top mac_check_link_client.function
	.globl	mac_check_link_client
	.align	4
	.type	mac_check_link_client,@function
mac_check_link_client:
.Ltmp49:
	.cfi_startproc
.Lfunc_begin5:
	.loc	1 28 0
.Lxtalabel11:
	.loc	1 29 0 prologue_end
.Lxta.endpoint_labels20:
	int r3, res[r0]
	.loc	1 29 0
	ldc r11, 0
	st8 r3, r1[r11]
	.loc	1 31 0
.Lxta.endpoint_labels21:
	int r1, res[r0]
.Ltmp50:
	.loc	1 31 0
	stw r1, r2[0]
	.loc	1 32 0
.Lxta.endpoint_labels22:
	int r1, res[r0]
	.loc	1 33 0
.Lxta.endpoint_labels23:
	inct r0, res[r0]
.Ltmp51:
	retsp 0
.Ltmp52:
.Ltmp53:
	.size	mac_check_link_client, .Ltmp53-mac_check_link_client
.Lfunc_end5:
.Ltmp54:
	.cfi_endproc
.Leh_func_end5:

	.align	4
	.cc_bottom mac_check_link_client.function
	.set	mac_check_link_client.nstackwords,0
	.globl	mac_check_link_client.nstackwords
	.set	mac_check_link_client.maxcores,1
	.globl	mac_check_link_client.maxcores
	.set	mac_check_link_client.maxtimers,0
	.globl	mac_check_link_client.maxtimers
	.set	mac_check_link_client.maxchanends,0
	.globl	mac_check_link_client.maxchanends
	.cfi_sections .debug_frame
.Ltext_end:
	.section	.dp.data,"awd",@progbits
.Ldata_end:
	.text
.Lsection_end1:
	.section	.xtaendpointtable,"",@progbits
.Lentries_start0:
	.long	.Lentries_end1-.Lentries_start0
	.long	0
	.ascii	 "/home/vdelacruz/Documents/Ethernet 2 Ports/app_simple_webserver/.build_IPV4"
	.byte	0
.cc_top cc_0,.Lxta.endpoint_labels20
	.ascii	 "/home/vdelacruz/Documents/Ethernet 2 Ports/module_ethernet/src/full/ethernet_tx_client.xc"
	.byte	0
	.long	29
	.long	.Lxta.endpoint_labels20
.cc_bottom cc_0
.cc_top cc_1,.Lxta.endpoint_labels21
	.ascii	 "/home/vdelacruz/Documents/Ethernet 2 Ports/module_ethernet/src/full/ethernet_tx_client.xc"
	.byte	0
	.long	31
	.long	.Lxta.endpoint_labels21
.cc_bottom cc_1
.cc_top cc_2,.Lxta.endpoint_labels22
	.ascii	 "/home/vdelacruz/Documents/Ethernet 2 Ports/module_ethernet/src/full/ethernet_tx_client.xc"
	.byte	0
	.long	32
	.long	.Lxta.endpoint_labels22
.cc_bottom cc_2
.cc_top cc_3,.Lxta.endpoint_labels23
	.ascii	 "/home/vdelacruz/Documents/Ethernet 2 Ports/module_ethernet/src/full/ethernet_tx_client.xc"
	.byte	0
	.long	33
	.long	.Lxta.endpoint_labels23
.cc_bottom cc_3
.cc_top cc_4,.Lxta.endpoint_labels0
	.ascii	 "/home/vdelacruz/Documents/Ethernet 2 Ports/module_ethernet/src/full/ethernet_tx_client.xc"
	.byte	0
	.long	63
	.long	.Lxta.endpoint_labels0
.cc_bottom cc_4
.cc_top cc_5,.Lxta.endpoint_labels8
	.ascii	 "/home/vdelacruz/Documents/Ethernet 2 Ports/module_ethernet/src/full/ethernet_tx_client.xc"
	.byte	0
	.long	63
	.long	.Lxta.endpoint_labels8
.cc_bottom cc_5
.cc_top cc_6,.Lxta.endpoint_labels1
	.ascii	 "/home/vdelacruz/Documents/Ethernet 2 Ports/module_ethernet/src/full/ethernet_tx_client.xc"
	.byte	0
	.long	66
	.long	.Lxta.endpoint_labels1
.cc_bottom cc_6
.cc_top cc_7,.Lxta.endpoint_labels9
	.ascii	 "/home/vdelacruz/Documents/Ethernet 2 Ports/module_ethernet/src/full/ethernet_tx_client.xc"
	.byte	0
	.long	66
	.long	.Lxta.endpoint_labels9
.cc_bottom cc_7
.cc_top cc_8,.Lxta.endpoint_labels10
	.ascii	 "/home/vdelacruz/Documents/Ethernet 2 Ports/module_ethernet/src/full/ethernet_tx_client.xc"
	.byte	0
	.long	67
	.long	.Lxta.endpoint_labels10
.cc_bottom cc_8
.cc_top cc_9,.Lxta.endpoint_labels2
	.ascii	 "/home/vdelacruz/Documents/Ethernet 2 Ports/module_ethernet/src/full/ethernet_tx_client.xc"
	.byte	0
	.long	67
	.long	.Lxta.endpoint_labels2
.cc_bottom cc_9
.cc_top cc_10,.Lxta.endpoint_labels11
	.ascii	 "/home/vdelacruz/Documents/Ethernet 2 Ports/module_ethernet/src/full/ethernet_tx_client.xc"
	.byte	0
	.long	69
	.long	.Lxta.endpoint_labels11
.cc_bottom cc_10
.cc_top cc_11,.Lxta.endpoint_labels3
	.ascii	 "/home/vdelacruz/Documents/Ethernet 2 Ports/module_ethernet/src/full/ethernet_tx_client.xc"
	.byte	0
	.long	69
	.long	.Lxta.endpoint_labels3
.cc_bottom cc_11
.cc_top cc_12,.Lxta.endpoint_labels12
	.ascii	 "/home/vdelacruz/Documents/Ethernet 2 Ports/module_ethernet/src/full/ethernet_tx_client.xc"
	.byte	0
	.long	74
	.long	.Lxta.endpoint_labels12
.cc_bottom cc_12
.cc_top cc_13,.Lxta.endpoint_labels4
	.ascii	 "/home/vdelacruz/Documents/Ethernet 2 Ports/module_ethernet/src/full/ethernet_tx_client.xc"
	.byte	0
	.long	99
	.long	.Lxta.endpoint_labels4
.cc_bottom cc_13
.cc_top cc_14,.Lxta.endpoint_labels5
	.ascii	 "/home/vdelacruz/Documents/Ethernet 2 Ports/module_ethernet/src/full/ethernet_tx_client.xc"
	.byte	0
	.long	102
	.long	.Lxta.endpoint_labels5
.cc_bottom cc_14
.cc_top cc_15,.Lxta.endpoint_labels6
	.ascii	 "/home/vdelacruz/Documents/Ethernet 2 Ports/module_ethernet/src/full/ethernet_tx_client.xc"
	.byte	0
	.long	103
	.long	.Lxta.endpoint_labels6
.cc_bottom cc_15
.cc_top cc_16,.Lxta.endpoint_labels7
	.ascii	 "/home/vdelacruz/Documents/Ethernet 2 Ports/module_ethernet/src/full/ethernet_tx_client.xc"
	.byte	0
	.long	105
	.long	.Lxta.endpoint_labels7
.cc_bottom cc_16
.cc_top cc_17,.Lxta.endpoint_labels13
	.ascii	 "/home/vdelacruz/Documents/Ethernet 2 Ports/module_ethernet/src/full/ethernet_tx_client.xc"
	.byte	0
	.long	121
	.long	.Lxta.endpoint_labels13
.cc_bottom cc_17
.cc_top cc_18,.Lxta.endpoint_labels16
	.ascii	 "/home/vdelacruz/Documents/Ethernet 2 Ports/module_ethernet/src/full/ethernet_tx_client.xc"
	.byte	0
	.long	127
	.long	.Lxta.endpoint_labels16
.cc_bottom cc_18
.cc_top cc_19,.Lxta.endpoint_labels17
	.ascii	 "/home/vdelacruz/Documents/Ethernet 2 Ports/module_ethernet/src/full/ethernet_tx_client.xc"
	.byte	0
	.long	127
	.long	.Lxta.endpoint_labels17
.cc_bottom cc_19
.cc_top cc_20,.Lxta.endpoint_labels18
	.ascii	 "/home/vdelacruz/Documents/Ethernet 2 Ports/module_ethernet/src/full/ethernet_tx_client.xc"
	.byte	0
	.long	127
	.long	.Lxta.endpoint_labels18
.cc_bottom cc_20
.cc_top cc_21,.Lxta.endpoint_labels19
	.ascii	 "/home/vdelacruz/Documents/Ethernet 2 Ports/module_ethernet/src/full/ethernet_tx_client.xc"
	.byte	0
	.long	127
	.long	.Lxta.endpoint_labels19
.cc_bottom cc_21
.cc_top cc_22,.Lxta.endpoint_labels15
	.ascii	 "/home/vdelacruz/Documents/Ethernet 2 Ports/module_ethernet/src/full/ethernet_tx_client.xc"
	.byte	0
	.long	127
	.long	.Lxta.endpoint_labels15
.cc_bottom cc_22
.cc_top cc_23,.Lxta.endpoint_labels14
	.ascii	 "/home/vdelacruz/Documents/Ethernet 2 Ports/module_ethernet/src/full/ethernet_tx_client.xc"
	.byte	0
	.long	127
	.long	.Lxta.endpoint_labels14
.cc_bottom cc_23
.Lentries_end1:
	.section	.xtalabeltable,"",@progbits
.Lentries_start2:
	.long	.Lentries_end3-.Lentries_start2
	.long	0
	.ascii	 "/home/vdelacruz/Documents/Ethernet 2 Ports/app_simple_webserver/.build_IPV4"
	.byte	0
.cc_top cc_24,.Lxtalabel11
	.ascii	 "/home/vdelacruz/Documents/Ethernet 2 Ports/module_ethernet/src/full/ethernet_tx_client.xc"
	.byte	0
	.long	28
	.long	34
	.long	.Lxtalabel11
.cc_bottom cc_24
.cc_top cc_25,.Lxtalabel1
	.ascii	 "/home/vdelacruz/Documents/Ethernet 2 Ports/module_ethernet/src/full/ethernet_tx_client.xc"
	.byte	0
	.long	69
	.long	69
	.long	.Lxtalabel1
.cc_bottom cc_25
.cc_top cc_26,.Lxtalabel7
	.ascii	 "/home/vdelacruz/Documents/Ethernet 2 Ports/module_ethernet/src/full/ethernet_tx_client.xc"
	.byte	0
	.long	69
	.long	69
	.long	.Lxtalabel7
.cc_bottom cc_26
.cc_top cc_27,.Lxtalabel2
	.ascii	 "/home/vdelacruz/Documents/Ethernet 2 Ports/module_ethernet/src/full/ethernet_tx_client.xc"
	.byte	0
	.long	70
	.long	73
	.long	.Lxtalabel2
.cc_bottom cc_27
.cc_top cc_28,.Lxtalabel8
	.ascii	 "/home/vdelacruz/Documents/Ethernet 2 Ports/module_ethernet/src/full/ethernet_tx_client.xc"
	.byte	0
	.long	70
	.long	73
	.long	.Lxtalabel8
.cc_bottom cc_28
.cc_top cc_29,.Lxtalabel0
	.ascii	 "/home/vdelacruz/Documents/Ethernet 2 Ports/module_ethernet/src/full/ethernet_tx_client.xc"
	.byte	0
	.long	82
	.long	86
	.long	.Lxtalabel0
.cc_bottom cc_29
.cc_top cc_30,.Lxtalabel3
	.ascii	 "/home/vdelacruz/Documents/Ethernet 2 Ports/module_ethernet/src/full/ethernet_tx_client.xc"
	.byte	0
	.long	93
	.long	95
	.long	.Lxtalabel3
.cc_bottom cc_30
.cc_top cc_31,.Lxtalabel3
	.ascii	 "/home/vdelacruz/Documents/Ethernet 2 Ports/module_ethernet/src/full/ethernet_tx_client.xc"
	.byte	0
	.long	99
	.long	104
	.long	.Lxtalabel3
.cc_bottom cc_31
.cc_top cc_32,.Lxtalabel4
	.ascii	 "/home/vdelacruz/Documents/Ethernet 2 Ports/module_ethernet/src/full/ethernet_tx_client.xc"
	.byte	0
	.long	105
	.long	105
	.long	.Lxtalabel4
.cc_bottom cc_32
.cc_top cc_33,.Lxtalabel5
	.ascii	 "/home/vdelacruz/Documents/Ethernet 2 Ports/module_ethernet/src/full/ethernet_tx_client.xc"
	.byte	0
	.long	106
	.long	108
	.long	.Lxtalabel5
.cc_bottom cc_33
.cc_top cc_34,.Lxtalabel6
	.ascii	 "/home/vdelacruz/Documents/Ethernet 2 Ports/module_ethernet/src/full/ethernet_tx_client.xc"
	.byte	0
	.long	112
	.long	115
	.long	.Lxtalabel6
.cc_bottom cc_34
.cc_top cc_35,.Lxtalabel9
	.ascii	 "/home/vdelacruz/Documents/Ethernet 2 Ports/module_ethernet/src/full/ethernet_tx_client.xc"
	.byte	0
	.long	119
	.long	125
	.long	.Lxtalabel9
.cc_bottom cc_35
.cc_top cc_36,.Lxtalabel9
	.ascii	 "/home/vdelacruz/Documents/Ethernet 2 Ports/module_ethernet/src/full/ethernet_tx_client.xc"
	.byte	0
	.long	126
	.long	128
	.long	.Lxtalabel9
.cc_bottom cc_36
.cc_top cc_37,.Lxtalabel9
	.ascii	 "/home/vdelacruz/Documents/Ethernet 2 Ports/module_ethernet/src/full/ethernet_tx_client.xc"
	.byte	0
	.long	126
	.long	128
	.long	.Lxtalabel9
.cc_bottom cc_37
.cc_top cc_38,.Lxtalabel9
	.ascii	 "/home/vdelacruz/Documents/Ethernet 2 Ports/module_ethernet/src/full/ethernet_tx_client.xc"
	.byte	0
	.long	126
	.long	128
	.long	.Lxtalabel9
.cc_bottom cc_38
.cc_top cc_39,.Lxtalabel9
	.ascii	 "/home/vdelacruz/Documents/Ethernet 2 Ports/module_ethernet/src/full/ethernet_tx_client.xc"
	.byte	0
	.long	126
	.long	128
	.long	.Lxtalabel9
.cc_bottom cc_39
.cc_top cc_40,.Lxtalabel9
	.ascii	 "/home/vdelacruz/Documents/Ethernet 2 Ports/module_ethernet/src/full/ethernet_tx_client.xc"
	.byte	0
	.long	126
	.long	128
	.long	.Lxtalabel9
.cc_bottom cc_40
.cc_top cc_41,.Lxtalabel9
	.ascii	 "/home/vdelacruz/Documents/Ethernet 2 Ports/module_ethernet/src/full/ethernet_tx_client.xc"
	.byte	0
	.long	126
	.long	128
	.long	.Lxtalabel9
.cc_bottom cc_41
.cc_top cc_42,.Lxtalabel9
	.ascii	 "/home/vdelacruz/Documents/Ethernet 2 Ports/module_ethernet/src/full/ethernet_tx_client.xc"
	.byte	0
	.long	129
	.long	132
	.long	.Lxtalabel9
.cc_bottom cc_42
.cc_top cc_43,.Lxtalabel10
	.ascii	 "/home/vdelacruz/Documents/Ethernet 2 Ports/module_ethernet/src/full/ethernet_tx_client.xc"
	.byte	0
	.long	183
	.long	184
	.long	.Lxtalabel10
.cc_bottom cc_43
.cc_top cc_44,.Lxtalabel10
	.ascii	 "/home/vdelacruz/Documents/Ethernet 2 Ports/module_ethernet/src/full/ethernet_tx_client.xc"
	.byte	0
	.long	192
	.long	192
	.long	.Lxtalabel10
.cc_bottom cc_44
.Lentries_end3:
	.section	.xtalooplabeltable,"",@progbits
.Lentries_start4:
	.long	.Lentries_end5-.Lentries_start4
	.long	0
	.ascii	 "/home/vdelacruz/Documents/Ethernet 2 Ports/app_simple_webserver/.build_IPV4"
	.byte	0
.cc_top cc_45,.Lxta.loop_labels0
	.ascii	 "/home/vdelacruz/Documents/Ethernet 2 Ports/module_ethernet/src/full/ethernet_tx_client.xc"
	.byte	0
	.long	69
	.long	69
	.long	.Lxta.loop_labels0
.cc_bottom cc_45
.cc_top cc_46,.Lxta.loop_labels2
	.ascii	 "/home/vdelacruz/Documents/Ethernet 2 Ports/module_ethernet/src/full/ethernet_tx_client.xc"
	.byte	0
	.long	69
	.long	69
	.long	.Lxta.loop_labels2
.cc_bottom cc_46
.cc_top cc_47,.Lxta.loop_labels1
	.ascii	 "/home/vdelacruz/Documents/Ethernet 2 Ports/module_ethernet/src/full/ethernet_tx_client.xc"
	.byte	0
	.long	105
	.long	105
	.long	.Lxta.loop_labels1
.cc_bottom cc_47
.Lentries_end5:
