	.file	"/home/vdelacruz/Documents/Ethernet sin mii/module_ethernet/src/full/ethernet_rx_client.xc"

	.inline_definition delay_seconds
	.inline_definition delay_milliseconds
	.inline_definition delay_microseconds
	.inline_definition mii_packet_get_length
	.inline_definition mii_packet_set_length
	.inline_definition mii_packet_get_timestamp
	.inline_definition mii_packet_set_timestamp
	.inline_definition mii_packet_get_filter_result
	.inline_definition mii_packet_set_filter_result
	.inline_definition mii_packet_get_src_port
	.inline_definition mii_packet_set_src_port
	.inline_definition mii_packet_get_timestamp_id
	.inline_definition mii_packet_set_timestamp_id
	.inline_definition mii_packet_get_stage
	.inline_definition mii_packet_set_stage
	.inline_definition mii_packet_get_tcount
	.inline_definition mii_packet_set_tcount
	.inline_definition mii_packet_get_crc
	.inline_definition mii_packet_set_crc
	.inline_definition mii_packet_get_forwarding
	.inline_definition mii_packet_set_forwarding
	.inline_definition mii_packet_get_user_data
	.inline_definition mii_packet_set_user_data
	.inline_definition mii_packet_get_data_ptr
	.inline_definition mii_packet_set_data_word
	.inline_definition mii_packet_get_data_word
	.inline_definition mii_packet_set_data
	.inline_definition mii_packet_set_data_short
	.inline_definition mii_packet_set_data_byte
	.set usage.anon.0,0
	.set usage.anon.1,0
	.set usage.anon.2,0
	.set usage.anon.3,0
	.set usage.anon.4,0
	.set usage.anon.5,0
	.set usage.anon.6,0
	.set usage.anon.7,0
	.set usage.anon.8,0
	.set usage.anon.9,0
	.set usage.anon.10,0
	.set usage.anon.11,0
	.set usage.anon.12,0
	.set usage.anon.13,0
	.set usage.anon.14,0
	.set usage.anon.15,0
	.set usage.anon.16,0
	.set usage.anon.17,0
	.set usage.anon.18,0
	.set usage.anon.19,0
	.set usage.anon.20,0
	.set usage.anon.21,0
	.set usage.anon.22,0
	.set usage.anon.23,0
	.set usage.anon.24,0
	.set usage.anon.25,0
	.set usage.anon.26,0
	.set usage.anon.27,0
	.set usage.anon.28,0
	.set usage.anon.29,0
	.set usage.anon.30,0
	.set usage.anon.31,0
	.call mac_get_global_counters,usage.anon.31
	.call mac_get_link_counters,usage.anon.31
	.call mac_set_custom_filter,usage.anon.31
	.call mac_set_queue_size,usage.anon.31
	.call mac_request_status_packets,usage.anon.31
	.call mac_set_drop_packets,usage.anon.31
	.call safe_mac_rx_timed,usage.anon.30
	.call mac_rx_timed,usage.anon.30
	.call safe_mac_rx_full,usage.anon.30
	.call mac_rx_offset2,usage.anon.30
	.call mac_rx_full,usage.anon.30
	.call usage.anon.2,delay_ticks_longlong
	.call usage.anon.1,delay_ticks_longlong
	.call usage.anon.0,delay_ticks_longlong
	.set usage.anon.0.locnoside, 1
	.set usage.anon.1.locnoside, 1
	.set usage.anon.2.locnoside, 1
	.set usage.anon.3.locnoside, 1
	.set usage.anon.4.locnoside, 1
	.set usage.anon.5.locnoside, 1
	.set usage.anon.6.locnoside, 1
	.set usage.anon.7.locnoside, 1
	.set usage.anon.8.locnoside, 1
	.set usage.anon.9.locnoside, 1
	.set usage.anon.10.locnoside, 1
	.set usage.anon.11.locnoside, 1
	.set usage.anon.12.locnoside, 1
	.set usage.anon.13.locnoside, 1
	.set usage.anon.14.locnoside, 1
	.set usage.anon.15.locnoside, 1
	.set usage.anon.16.locnoside, 1
	.set usage.anon.17.locnoside, 1
	.set usage.anon.18.locnoside, 1
	.set usage.anon.19.locnoside, 1
	.set usage.anon.20.locnoside, 1
	.set usage.anon.21.locnoside, 1
	.set usage.anon.22.locnoside, 1
	.set usage.anon.23.locnoside, 1
	.set usage.anon.24.locnoside, 1
	.set usage.anon.25.locnoside, 1
	.set usage.anon.26.locnoside, 1
	.set usage.anon.27.locnoside, 1
	.set usage.anon.28.locnoside, 1
	.set usage.anon.0.locnochandec, 1
	.set usage.anon.1.locnochandec, 1
	.set usage.anon.2.locnochandec, 1
	.set usage.anon.3.locnochandec, 1
	.set usage.anon.4.locnochandec, 1
	.set usage.anon.5.locnochandec, 1
	.set usage.anon.6.locnochandec, 1
	.set usage.anon.7.locnochandec, 1
	.set usage.anon.8.locnochandec, 1
	.set usage.anon.9.locnochandec, 1
	.set usage.anon.10.locnochandec, 1
	.set usage.anon.11.locnochandec, 1
	.set usage.anon.12.locnochandec, 1
	.set usage.anon.13.locnochandec, 1
	.set usage.anon.14.locnochandec, 1
	.set usage.anon.15.locnochandec, 1
	.set usage.anon.16.locnochandec, 1
	.set usage.anon.17.locnochandec, 1
	.set usage.anon.18.locnochandec, 1
	.set usage.anon.19.locnochandec, 1
	.set usage.anon.20.locnochandec, 1
	.set usage.anon.21.locnochandec, 1
	.set usage.anon.22.locnochandec, 1
	.set usage.anon.23.locnochandec, 1
	.set usage.anon.24.locnochandec, 1
	.set usage.anon.25.locnochandec, 1
	.set usage.anon.26.locnochandec, 1
	.set usage.anon.27.locnochandec, 1
	.set usage.anon.28.locnochandec, 1
	.set usage.anon.29.locnochandec, 1
	.set usage.anon.30.locnochandec, 1
	.set mac_rx_full.locnochandec, 1
	.set mac_rx_offset2.locnochandec, 1
	.set safe_mac_rx_full.locnochandec, 1
	.set mac_rx_timed.locnochandec, 1
	.set safe_mac_rx_timed.locnochandec, 1
	.set usage.anon.31.locnochandec, 1
	.set mac_set_drop_packets.locnochandec, 1
	.set mac_request_status_packets.locnochandec, 1
	.set mac_set_queue_size.locnochandec, 1
	.set mac_set_custom_filter.locnochandec, 1
	.set mac_get_link_counters.locnochandec, 1
	.set mac_get_global_counters.locnochandec, 1
	.set usage.anon.0.locnoglobalaccess, 1
	.set usage.anon.1.locnoglobalaccess, 1
	.set usage.anon.2.locnoglobalaccess, 1
	.set usage.anon.3.locnoglobalaccess, 1
	.set usage.anon.4.locnoglobalaccess, 1
	.set usage.anon.5.locnoglobalaccess, 1
	.set usage.anon.6.locnoglobalaccess, 1
	.set usage.anon.7.locnoglobalaccess, 1
	.set usage.anon.8.locnoglobalaccess, 1
	.set usage.anon.9.locnoglobalaccess, 1
	.set usage.anon.10.locnoglobalaccess, 1
	.set usage.anon.11.locnoglobalaccess, 1
	.set usage.anon.12.locnoglobalaccess, 1
	.set usage.anon.13.locnoglobalaccess, 1
	.set usage.anon.14.locnoglobalaccess, 1
	.set usage.anon.15.locnoglobalaccess, 1
	.set usage.anon.16.locnoglobalaccess, 1
	.set usage.anon.17.locnoglobalaccess, 1
	.set usage.anon.18.locnoglobalaccess, 1
	.set usage.anon.19.locnoglobalaccess, 1
	.set usage.anon.20.locnoglobalaccess, 1
	.set usage.anon.21.locnoglobalaccess, 1
	.set usage.anon.22.locnoglobalaccess, 1
	.set usage.anon.23.locnoglobalaccess, 1
	.set usage.anon.24.locnoglobalaccess, 1
	.set usage.anon.25.locnoglobalaccess, 1
	.set usage.anon.26.locnoglobalaccess, 1
	.set usage.anon.27.locnoglobalaccess, 1
	.set usage.anon.28.locnoglobalaccess, 1
	.set usage.anon.29.locnoglobalaccess, 1
	.set usage.anon.30.locnoglobalaccess, 1
	.set mac_rx_full.locnoglobalaccess, 1
	.set mac_rx_offset2.locnoglobalaccess, 1
	.set safe_mac_rx_full.locnoglobalaccess, 1
	.set mac_rx_timed.locnoglobalaccess, 1
	.set safe_mac_rx_timed.locnoglobalaccess, 1
	.set usage.anon.31.locnoglobalaccess, 1
	.set mac_set_drop_packets.locnoglobalaccess, 1
	.set mac_request_status_packets.locnoglobalaccess, 1
	.set mac_set_queue_size.locnoglobalaccess, 1
	.set mac_set_custom_filter.locnoglobalaccess, 1
	.set mac_get_link_counters.locnoglobalaccess, 1
	.set mac_get_global_counters.locnoglobalaccess, 1
	.set usage.anon.0.locnointerfaceaccess, 1
	.set usage.anon.1.locnointerfaceaccess, 1
	.set usage.anon.2.locnointerfaceaccess, 1
	.set usage.anon.3.locnointerfaceaccess, 1
	.set usage.anon.4.locnointerfaceaccess, 1
	.set usage.anon.5.locnointerfaceaccess, 1
	.set usage.anon.6.locnointerfaceaccess, 1
	.set usage.anon.7.locnointerfaceaccess, 1
	.set usage.anon.8.locnointerfaceaccess, 1
	.set usage.anon.9.locnointerfaceaccess, 1
	.set usage.anon.10.locnointerfaceaccess, 1
	.set usage.anon.11.locnointerfaceaccess, 1
	.set usage.anon.12.locnointerfaceaccess, 1
	.set usage.anon.13.locnointerfaceaccess, 1
	.set usage.anon.14.locnointerfaceaccess, 1
	.set usage.anon.15.locnointerfaceaccess, 1
	.set usage.anon.16.locnointerfaceaccess, 1
	.set usage.anon.17.locnointerfaceaccess, 1
	.set usage.anon.18.locnointerfaceaccess, 1
	.set usage.anon.19.locnointerfaceaccess, 1
	.set usage.anon.20.locnointerfaceaccess, 1
	.set usage.anon.21.locnointerfaceaccess, 1
	.set usage.anon.22.locnointerfaceaccess, 1
	.set usage.anon.23.locnointerfaceaccess, 1
	.set usage.anon.24.locnointerfaceaccess, 1
	.set usage.anon.25.locnointerfaceaccess, 1
	.set usage.anon.26.locnointerfaceaccess, 1
	.set usage.anon.27.locnointerfaceaccess, 1
	.set usage.anon.28.locnointerfaceaccess, 1
	.set usage.anon.29.locnointerfaceaccess, 1
	.set usage.anon.30.locnointerfaceaccess, 1
	.set mac_rx_full.locnointerfaceaccess, 1
	.set mac_rx_offset2.locnointerfaceaccess, 1
	.set safe_mac_rx_full.locnointerfaceaccess, 1
	.set mac_rx_timed.locnointerfaceaccess, 1
	.set safe_mac_rx_timed.locnointerfaceaccess, 1
	.set usage.anon.31.locnointerfaceaccess, 1
	.set mac_set_drop_packets.locnointerfaceaccess, 1
	.set mac_request_status_packets.locnointerfaceaccess, 1
	.set mac_set_queue_size.locnointerfaceaccess, 1
	.set mac_set_custom_filter.locnointerfaceaccess, 1
	.set mac_get_link_counters.locnointerfaceaccess, 1
	.set mac_get_global_counters.locnointerfaceaccess, 1
	.set usage.anon.0.locnonotificationselect, 1
	.set usage.anon.1.locnonotificationselect, 1
	.set usage.anon.2.locnonotificationselect, 1
	.set usage.anon.3.locnonotificationselect, 1
	.set usage.anon.4.locnonotificationselect, 1
	.set usage.anon.5.locnonotificationselect, 1
	.set usage.anon.6.locnonotificationselect, 1
	.set usage.anon.7.locnonotificationselect, 1
	.set usage.anon.8.locnonotificationselect, 1
	.set usage.anon.9.locnonotificationselect, 1
	.set usage.anon.10.locnonotificationselect, 1
	.set usage.anon.11.locnonotificationselect, 1
	.set usage.anon.12.locnonotificationselect, 1
	.set usage.anon.13.locnonotificationselect, 1
	.set usage.anon.14.locnonotificationselect, 1
	.set usage.anon.15.locnonotificationselect, 1
	.set usage.anon.16.locnonotificationselect, 1
	.set usage.anon.17.locnonotificationselect, 1
	.set usage.anon.18.locnonotificationselect, 1
	.set usage.anon.19.locnonotificationselect, 1
	.set usage.anon.20.locnonotificationselect, 1
	.set usage.anon.21.locnonotificationselect, 1
	.set usage.anon.22.locnonotificationselect, 1
	.set usage.anon.23.locnonotificationselect, 1
	.set usage.anon.24.locnonotificationselect, 1
	.set usage.anon.25.locnonotificationselect, 1
	.set usage.anon.26.locnonotificationselect, 1
	.set usage.anon.27.locnonotificationselect, 1
	.set usage.anon.28.locnonotificationselect, 1
	.set usage.anon.29.locnonotificationselect, 1
	.set usage.anon.30.locnonotificationselect, 1
	.set mac_rx_full.locnonotificationselect, 1
	.set mac_rx_offset2.locnonotificationselect, 1
	.set safe_mac_rx_full.locnonotificationselect, 1
	.set mac_rx_timed.locnonotificationselect, 1
	.set safe_mac_rx_timed.locnonotificationselect, 1
	.set usage.anon.31.locnonotificationselect, 1
	.set mac_set_drop_packets.locnonotificationselect, 1
	.set mac_request_status_packets.locnonotificationselect, 1
	.set mac_set_queue_size.locnonotificationselect, 1
	.set mac_set_custom_filter.locnonotificationselect, 1
	.set mac_get_link_counters.locnonotificationselect, 1
	.set mac_get_global_counters.locnonotificationselect, 1


	.file	1 "/home/vdelacruz/Documents/Ethernet sin mii/module_ethernet/src/full/ethernet_rx_client.xc"
	.file	2 "/home/vdelacruz/Documents/Ethernet sin mii/app_simple_webserver/.build_IPV4/timer.h"
	.file	3 "/home/vdelacruz/Documents/Ethernet sin mii/app_simple_webserver/.build_IPV4/mii_full.h"
	.text
.Ltext_begin:
	.section	.dp.data,"awd",@progbits
	.text
	.cc_top mac_rx_full.function
	.section	.cp.rodata.cst4,"aMc",@progbits,4
	.cc_top .LCPI0_0.data
	.align	4
.LCPI0_0:
	.long	2147483659
	.cc_bottom .LCPI0_0.data
	.text
	.globl	mac_rx_full
	.align	4
	.type	mac_rx_full,@function
mac_rx_full:
.Ltmp2:
	.cfi_startproc
.Lfunc_begin0:
	.loc	1 93 0
.Lxtalabel0:
	entsp 7
.Ltmp3:
	.cfi_def_cfa_offset 28
.Ltmp4:
	.cfi_offset 15, 0
	.loc	1 90 0 prologue_end
.Ltmp5:
	stw r4, sp[6]
.Ltmp6:
	.cfi_offset 4, -4
	mov r4, r2
.Ltmp7:
	mkmsk r2, 32
	.loc	1 96 0
.Ltmp8:
	stw r2, sp[3]
	ldw r2, cp[.LCPI0_0]
	stw r2, sp[2]
	ldaw r2, sp[4]
	stw r2, sp[1]
	ldaw r2, sp[5]
.Lxta.call_labels0:
	bl ethernet_unified_get_data
.Ltmp9:
	.loc	1 96 0
	stw r0, r4[0]
	ldw r4, sp[6]
.Ltmp10:
	retsp 7
.Ltmp11:
.Ltmp12:
	.size	mac_rx_full, .Ltmp12-mac_rx_full
.Lfunc_end0:
.Ltmp13:
	.cfi_endproc
.Leh_func_end0:

	.align	4
	.cc_bottom mac_rx_full.function
	.set	mac_rx_full.nstackwords,(ethernet_unified_get_data.nstackwords + 7)
	.globl	mac_rx_full.nstackwords
	.set	mac_rx_full.maxcores,ethernet_unified_get_data.maxcores $M 1
	.globl	mac_rx_full.maxcores
	.set	mac_rx_full.maxtimers,ethernet_unified_get_data.maxtimers $M 0
	.globl	mac_rx_full.maxtimers
	.set	mac_rx_full.maxchanends,ethernet_unified_get_data.maxchanends $M 0
	.globl	mac_rx_full.maxchanends
	.cc_top safe_mac_rx_full.function
	.section	.cp.rodata.cst4,"aMc",@progbits,4
	.cc_top .LCPI1_0.data
	.align	4
.LCPI1_0:
	.long	2147483659
	.cc_bottom .LCPI1_0.data
	.text
	.globl	safe_mac_rx_full
	.align	4
	.type	safe_mac_rx_full,@function
safe_mac_rx_full:
.Ltmp16:
	.cfi_startproc
.Lfunc_begin1:
	.loc	1 108 0
.Lxtalabel1:
	entsp 7
.Ltmp17:
	.cfi_def_cfa_offset 28
.Ltmp18:
	.cfi_offset 15, 0
	.loc	1 107 0 prologue_end
.Ltmp19:
	stw r4, sp[6]
.Ltmp20:
	.cfi_offset 4, -4
	mov r4, r2
.Ltmp21:
	ldw r2, sp[8]
	.loc	1 111 0
.Ltmp22:
	stw r2, sp[3]
	ldw r2, cp[.LCPI1_0]
	stw r2, sp[2]
	ldaw r2, sp[4]
	stw r2, sp[1]
	ldaw r2, sp[5]
.Lxta.call_labels1:
	bl ethernet_unified_get_data
.Ltmp23:
	.loc	1 111 0
	stw r0, r4[0]
	ldw r4, sp[6]
.Ltmp24:
	retsp 7
.Ltmp25:
.Ltmp26:
	.size	safe_mac_rx_full, .Ltmp26-safe_mac_rx_full
.Lfunc_end1:
.Ltmp27:
	.cfi_endproc
.Leh_func_end1:

	.align	4
	.cc_bottom safe_mac_rx_full.function
	.set	safe_mac_rx_full.nstackwords,(ethernet_unified_get_data.nstackwords + 7)
	.globl	safe_mac_rx_full.nstackwords
	.set	safe_mac_rx_full.maxcores,ethernet_unified_get_data.maxcores $M 1
	.globl	safe_mac_rx_full.maxcores
	.set	safe_mac_rx_full.maxtimers,ethernet_unified_get_data.maxtimers $M 0
	.globl	safe_mac_rx_full.maxtimers
	.set	safe_mac_rx_full.maxchanends,ethernet_unified_get_data.maxchanends $M 0
	.globl	safe_mac_rx_full.maxchanends
	.cc_top mac_rx_timed.function
	.section	.cp.rodata.cst4,"aMc",@progbits,4
	.cc_top .LCPI2_0.data
	.align	4
.LCPI2_0:
	.long	2147483659
	.cc_bottom .LCPI2_0.data
	.text
	.globl	mac_rx_timed
	.align	4
	.type	mac_rx_timed,@function
mac_rx_timed:
.Ltmp30:
	.cfi_startproc
.Lfunc_begin2:
	.loc	1 116 0
.Lxtalabel2:
	entsp 6
.Ltmp31:
	.cfi_def_cfa_offset 24
.Ltmp32:
	.cfi_offset 15, 0
	.loc	1 115 0 prologue_end
.Ltmp33:
	stw r4, sp[5]
.Ltmp34:
	.cfi_offset 4, -4
	mov r4, r2
.Ltmp35:
	mkmsk r2, 32
	.loc	1 118 0
.Ltmp36:
	stw r2, sp[3]
	ldw r2, cp[.LCPI2_0]
	stw r2, sp[2]
	ldaw r2, sp[4]
	stw r2, sp[1]
	ldw r11, sp[7]
	mov r2, r3
.Ltmp37:
	mov r3, r11
.Lxta.call_labels2:
	bl ethernet_unified_get_data
.Ltmp38:
	.loc	1 118 0
	stw r0, r4[0]
	ldw r4, sp[5]
.Ltmp39:
	retsp 6
.Ltmp40:
.Ltmp41:
	.size	mac_rx_timed, .Ltmp41-mac_rx_timed
.Lfunc_end2:
.Ltmp42:
	.cfi_endproc
.Leh_func_end2:

	.align	4
	.cc_bottom mac_rx_timed.function
	.set	mac_rx_timed.nstackwords,(ethernet_unified_get_data.nstackwords + 6)
	.globl	mac_rx_timed.nstackwords
	.set	mac_rx_timed.maxcores,ethernet_unified_get_data.maxcores $M 1
	.globl	mac_rx_timed.maxcores
	.set	mac_rx_timed.maxtimers,ethernet_unified_get_data.maxtimers $M 0
	.globl	mac_rx_timed.maxtimers
	.set	mac_rx_timed.maxchanends,ethernet_unified_get_data.maxchanends $M 0
	.globl	mac_rx_timed.maxchanends
	.cc_top safe_mac_rx_timed.function
	.section	.cp.rodata.cst4,"aMc",@progbits,4
	.cc_top .LCPI3_0.data
	.align	4
.LCPI3_0:
	.long	2147483659
	.cc_bottom .LCPI3_0.data
	.text
	.globl	safe_mac_rx_timed
	.align	4
	.type	safe_mac_rx_timed,@function
safe_mac_rx_timed:
.Ltmp45:
	.cfi_startproc
.Lfunc_begin3:
	.loc	1 123 0
.Lxtalabel3:
	entsp 6
.Ltmp46:
	.cfi_def_cfa_offset 24
.Ltmp47:
	.cfi_offset 15, 0
	.loc	1 122 0 prologue_end
.Ltmp48:
	stw r4, sp[5]
.Ltmp49:
	.cfi_offset 4, -4
	mov r4, r2
.Ltmp50:
	ldw r2, sp[8]
	.loc	1 125 0
.Ltmp51:
	stw r2, sp[3]
	ldw r2, cp[.LCPI3_0]
	stw r2, sp[2]
	ldaw r2, sp[4]
	stw r2, sp[1]
	ldw r11, sp[7]
	mov r2, r3
.Ltmp52:
	mov r3, r11
.Lxta.call_labels3:
	bl ethernet_unified_get_data
.Ltmp53:
	.loc	1 125 0
	stw r0, r4[0]
	ldw r4, sp[5]
.Ltmp54:
	retsp 6
.Ltmp55:
.Ltmp56:
	.size	safe_mac_rx_timed, .Ltmp56-safe_mac_rx_timed
.Lfunc_end3:
.Ltmp57:
	.cfi_endproc
.Leh_func_end3:

	.align	4
	.cc_bottom safe_mac_rx_timed.function
	.set	safe_mac_rx_timed.nstackwords,(ethernet_unified_get_data.nstackwords + 6)
	.globl	safe_mac_rx_timed.nstackwords
	.set	safe_mac_rx_timed.maxcores,ethernet_unified_get_data.maxcores $M 1
	.globl	safe_mac_rx_timed.maxcores
	.set	safe_mac_rx_timed.maxtimers,ethernet_unified_get_data.maxtimers $M 0
	.globl	safe_mac_rx_timed.maxtimers
	.set	safe_mac_rx_timed.maxchanends,ethernet_unified_get_data.maxchanends $M 0
	.globl	safe_mac_rx_timed.maxchanends
	.cc_top mac_set_drop_packets.function
	.section	.cp.rodata.cst4,"aMc",@progbits,4
	.cc_top .LCPI4_0.data
	.align	4
.LCPI4_0:
	.long	2147483664
	.cc_bottom .LCPI4_0.data
	.text
	.globl	mac_set_drop_packets
	.align	4
	.type	mac_set_drop_packets,@function
mac_set_drop_packets:
.Ltmp58:
	.cfi_startproc
.Lfunc_begin4:
	.loc	1 141 0
.Lxtalabel4:
	mkmsk r2, 1
.Ltmp59:
	.loc	1 131 0 prologue_end
.Lxta.endpoint_labels0:
	outt res[r0], r2
	.loc	1 132 0
.Lxta.endpoint_labels1:
	outct res[r0], 1
	.loc	1 133 0
	chkct res[r0], 1
	ldw r2, cp[.LCPI4_0]
	.loc	1 134 0
.Lxta.endpoint_labels2:
	out res[r0], r2
	.loc	1 135 0
.Lxta.endpoint_labels3:
	outct res[r0], 1
	.loc	1 136 0
	chkct res[r0], 1
.Ltmp60:
	.loc	1 143 0
	outct res[r0], 1
	chkct res[r0], 1
	.loc	1 143 0
.Lxta.endpoint_labels4:
	out res[r0], r1
	.loc	1 143 0
	outct res[r0], 1
	chkct res[r0], 1
.Ltmp61:
	retsp 0
.Ltmp62:
.Ltmp63:
	.size	mac_set_drop_packets, .Ltmp63-mac_set_drop_packets
.Lfunc_end4:
.Ltmp64:
	.cfi_endproc
.Leh_func_end4:

	.align	4
	.cc_bottom mac_set_drop_packets.function
	.set	mac_set_drop_packets.nstackwords,0
	.globl	mac_set_drop_packets.nstackwords
	.set	mac_set_drop_packets.maxcores,1
	.globl	mac_set_drop_packets.maxcores
	.set	mac_set_drop_packets.maxtimers,0
	.globl	mac_set_drop_packets.maxtimers
	.set	mac_set_drop_packets.maxchanends,0
	.globl	mac_set_drop_packets.maxchanends
	.cc_top mac_set_queue_size.function
	.section	.cp.rodata.cst4,"aMc",@progbits,4
	.cc_top .LCPI5_0.data
	.align	4
.LCPI5_0:
	.long	2147483667
	.cc_bottom .LCPI5_0.data
	.text
	.globl	mac_set_queue_size
	.align	4
	.type	mac_set_queue_size,@function
mac_set_queue_size:
.Ltmp65:
	.cfi_startproc
.Lfunc_begin5:
	.loc	1 156 0
.Lxtalabel5:
	mkmsk r2, 1
.Ltmp66:
	.loc	1 131 0 prologue_end
.Lxta.endpoint_labels5:
	outt res[r0], r2
	.loc	1 132 0
.Lxta.endpoint_labels6:
	outct res[r0], 1
	.loc	1 133 0
	chkct res[r0], 1
	ldw r2, cp[.LCPI5_0]
	.loc	1 134 0
.Lxta.endpoint_labels7:
	out res[r0], r2
	.loc	1 135 0
.Lxta.endpoint_labels8:
	outct res[r0], 1
	.loc	1 136 0
	chkct res[r0], 1
.Ltmp67:
	.loc	1 158 0
	outct res[r0], 1
	chkct res[r0], 1
	.loc	1 158 0
.Lxta.endpoint_labels9:
	out res[r0], r1
	.loc	1 158 0
	outct res[r0], 1
	chkct res[r0], 1
.Ltmp68:
	retsp 0
.Ltmp69:
.Ltmp70:
	.size	mac_set_queue_size, .Ltmp70-mac_set_queue_size
.Lfunc_end5:
.Ltmp71:
	.cfi_endproc
.Leh_func_end5:

	.align	4
	.cc_bottom mac_set_queue_size.function
	.set	mac_set_queue_size.nstackwords,0
	.globl	mac_set_queue_size.nstackwords
	.set	mac_set_queue_size.maxcores,1
	.globl	mac_set_queue_size.maxcores
	.set	mac_set_queue_size.maxtimers,0
	.globl	mac_set_queue_size.maxtimers
	.set	mac_set_queue_size.maxchanends,0
	.globl	mac_set_queue_size.maxchanends
	.cc_top mac_set_custom_filter.function
	.section	.cp.rodata.cst4,"aMc",@progbits,4
	.cc_top .LCPI6_0.data
	.align	4
.LCPI6_0:
	.long	2147483666
	.cc_bottom .LCPI6_0.data
	.text
	.globl	mac_set_custom_filter
	.align	4
	.type	mac_set_custom_filter,@function
mac_set_custom_filter:
.Ltmp72:
	.cfi_startproc
.Lfunc_begin6:
	.loc	1 163 0
.Lxtalabel6:
	mkmsk r2, 1
.Ltmp73:
	.loc	1 131 0 prologue_end
.Lxta.endpoint_labels10:
	outt res[r0], r2
	.loc	1 132 0
.Lxta.endpoint_labels11:
	outct res[r0], 1
	.loc	1 133 0
	chkct res[r0], 1
	ldw r2, cp[.LCPI6_0]
	.loc	1 134 0
.Lxta.endpoint_labels12:
	out res[r0], r2
	.loc	1 135 0
.Lxta.endpoint_labels13:
	outct res[r0], 1
	.loc	1 136 0
	chkct res[r0], 1
.Ltmp74:
	.loc	1 165 0
	outct res[r0], 1
	chkct res[r0], 1
	.loc	1 165 0
.Lxta.endpoint_labels14:
	out res[r0], r1
	.loc	1 165 0
	outct res[r0], 1
	chkct res[r0], 1
.Ltmp75:
	retsp 0
.Ltmp76:
.Ltmp77:
	.size	mac_set_custom_filter, .Ltmp77-mac_set_custom_filter
.Lfunc_end6:
.Ltmp78:
	.cfi_endproc
.Leh_func_end6:

	.align	4
	.cc_bottom mac_set_custom_filter.function
	.set	mac_set_custom_filter.nstackwords,0
	.globl	mac_set_custom_filter.nstackwords
	.set	mac_set_custom_filter.maxcores,1
	.globl	mac_set_custom_filter.maxcores
	.set	mac_set_custom_filter.maxtimers,0
	.globl	mac_set_custom_filter.maxtimers
	.set	mac_set_custom_filter.maxchanends,0
	.globl	mac_set_custom_filter.maxchanends
	.cc_top mac_get_link_counters.function
	.section	.cp.rodata.cst4,"aMc",@progbits,4
	.cc_top .LCPI7_0.data
	.align	4
.LCPI7_0:
	.long	2147483661
	.cc_bottom .LCPI7_0.data
	.text
	.globl	mac_get_link_counters
	.align	4
	.type	mac_get_link_counters,@function
mac_get_link_counters:
.Ltmp79:
	.cfi_startproc
.Lfunc_begin7:
	.loc	1 172 0
.Lxtalabel7:
	mkmsk r2, 1
	.loc	1 131 0 prologue_end
.Ltmp80:
.Lxta.endpoint_labels15:
	outt res[r0], r2
	.loc	1 132 0
.Lxta.endpoint_labels16:
	outct res[r0], 1
	.loc	1 133 0
	chkct res[r0], 1
	ldw r2, cp[.LCPI7_0]
	.loc	1 134 0
.Lxta.endpoint_labels17:
	out res[r0], r2
	.loc	1 135 0
.Lxta.endpoint_labels18:
	outct res[r0], 1
	.loc	1 136 0
	chkct res[r0], 1
.Ltmp81:
	.loc	1 175 0
	chkct res[r0], 1
	outct res[r0], 1
	.loc	1 175 0
.Lxta.endpoint_labels19:
	in r2, res[r0]
	.loc	1 175 0
	stw r2, r1[0]
	chkct res[r0], 1
	outct res[r0], 1
	retsp 0
.Ltmp82:
.Ltmp83:
	.size	mac_get_link_counters, .Ltmp83-mac_get_link_counters
.Lfunc_end7:
.Ltmp84:
	.cfi_endproc
.Leh_func_end7:

	.align	4
	.cc_bottom mac_get_link_counters.function
	.set	mac_get_link_counters.nstackwords,0
	.globl	mac_get_link_counters.nstackwords
	.set	mac_get_link_counters.maxcores,1
	.globl	mac_get_link_counters.maxcores
	.set	mac_get_link_counters.maxtimers,0
	.globl	mac_get_link_counters.maxtimers
	.set	mac_get_link_counters.maxchanends,0
	.globl	mac_get_link_counters.maxchanends
	.cc_top mac_get_global_counters.function
	.section	.cp.rodata.cst4,"aMc",@progbits,4
	.cc_top .LCPI8_0.data
	.align	4
.LCPI8_0:
	.long	2147483662
	.cc_bottom .LCPI8_0.data
	.text
	.globl	mac_get_global_counters
	.align	4
	.type	mac_get_global_counters,@function
mac_get_global_counters:
.Ltmp86:
	.cfi_startproc
.Lfunc_begin8:
	.loc	1 186 0
.Lxtalabel8:
	stw lr, sp[0]
.Ltmp87:
	.cfi_offset 15, 0
.Ltmp88:
	mkmsk r11, 1
	.loc	1 131 0 prologue_end
.Ltmp89:
.Lxta.endpoint_labels20:
	outt res[r0], r11
	.loc	1 132 0
.Lxta.endpoint_labels21:
	outct res[r0], 1
	.loc	1 133 0
	chkct res[r0], 1
	ldw r11, cp[.LCPI8_0]
	.loc	1 134 0
.Lxta.endpoint_labels22:
	out res[r0], r11
	.loc	1 135 0
.Lxta.endpoint_labels23:
	outct res[r0], 1
	.loc	1 136 0
	chkct res[r0], 1
.Ltmp90:
	.loc	1 189 0
	chkct res[r0], 1
	outct res[r0], 1
	.loc	1 189 0
.Lxta.endpoint_labels24:
	in r11, res[r0]
	.loc	1 189 0
	stw r11, r1[0]
	chkct res[r0], 1
	outct res[r0], 1
	.loc	1 190 0
	chkct res[r0], 1
	outct res[r0], 1
	.loc	1 190 0
.Lxta.endpoint_labels25:
	in r1, res[r0]
.Ltmp91:
	.loc	1 190 0
	stw r1, r2[0]
	chkct res[r0], 1
	outct res[r0], 1
	.loc	1 191 0
	chkct res[r0], 1
	outct res[r0], 1
	.loc	1 191 0
.Lxta.endpoint_labels26:
	in r1, res[r0]
	.loc	1 191 0
	stw r1, r3[0]
	chkct res[r0], 1
	outct res[r0], 1
	.loc	1 192 0
	chkct res[r0], 1
	outct res[r0], 1
	.loc	1 192 0
.Lxta.endpoint_labels27:
	in r1, res[r0]
	ldw r2, sp[1]
.Ltmp92:
	.loc	1 192 0
	stw r1, r2[0]
	chkct res[r0], 1
	outct res[r0], 1
	.loc	1 193 0
	chkct res[r0], 1
	outct res[r0], 1
	.loc	1 193 0
.Lxta.endpoint_labels28:
	in r1, res[r0]
	ldw r2, sp[2]
	.loc	1 193 0
	stw r1, r2[0]
	chkct res[r0], 1
	outct res[r0], 1
	ldw lr, sp[0]
	retsp 0
.Ltmp93:
.Ltmp94:
	.size	mac_get_global_counters, .Ltmp94-mac_get_global_counters
.Lfunc_end8:
.Ltmp95:
	.cfi_endproc
.Leh_func_end8:

	.align	4
	.cc_bottom mac_get_global_counters.function
	.set	mac_get_global_counters.nstackwords,0
	.globl	mac_get_global_counters.nstackwords
	.set	mac_get_global_counters.maxcores,1
	.globl	mac_get_global_counters.maxcores
	.set	mac_get_global_counters.maxtimers,0
	.globl	mac_get_global_counters.maxtimers
	.set	mac_get_global_counters.maxchanends,0
	.globl	mac_get_global_counters.maxchanends
	.cc_top mac_rx_offset2.function
	.section	.cp.rodata.cst4,"aMc",@progbits,4
	.cc_top .LCPI9_0.data
	.align	4
.LCPI9_0:
	.long	2147483668
	.cc_bottom .LCPI9_0.data
	.text
	.globl	mac_rx_offset2
	.align	4
	.type	mac_rx_offset2,@function
mac_rx_offset2:
.Ltmp98:
	.cfi_startproc
.Lfunc_begin9:
	.loc	1 101 0
.Lxtalabel9:
	entsp 6
.Ltmp99:
	.cfi_def_cfa_offset 24
.Ltmp100:
	.cfi_offset 15, 0
	.loc	1 100 0 prologue_end
.Ltmp101:
	stw r4, sp[5]
.Ltmp102:
	.cfi_offset 4, -4
	mov r4, r2
.Ltmp103:
	mkmsk r2, 32
	.loc	1 103 0
.Ltmp104:
	stw r2, sp[3]
	ldw r2, cp[.LCPI9_0]
	stw r2, sp[2]
	stw r3, sp[1]
	ldaw r2, sp[4]
	ldw r3, sp[7]
.Ltmp105:
.Lxta.call_labels4:
	bl ethernet_unified_get_data
.Ltmp106:
	.loc	1 103 0
	stw r0, r4[0]
	ldw r4, sp[5]
.Ltmp107:
	retsp 6
.Ltmp108:
.Ltmp109:
	.size	mac_rx_offset2, .Ltmp109-mac_rx_offset2
.Lfunc_end9:
.Ltmp110:
	.cfi_endproc
.Leh_func_end9:

	.align	4
	.cc_bottom mac_rx_offset2.function
	.set	mac_rx_offset2.nstackwords,(ethernet_unified_get_data.nstackwords + 6)
	.globl	mac_rx_offset2.nstackwords
	.set	mac_rx_offset2.maxcores,ethernet_unified_get_data.maxcores $M 1
	.globl	mac_rx_offset2.maxcores
	.set	mac_rx_offset2.maxtimers,ethernet_unified_get_data.maxtimers $M 0
	.globl	mac_rx_offset2.maxtimers
	.set	mac_rx_offset2.maxchanends,ethernet_unified_get_data.maxchanends $M 0
	.globl	mac_rx_offset2.maxchanends
	.cc_top mac_request_status_packets.function
	.section	.cp.rodata.cst4,"aMc",@progbits,4
	.cc_top .LCPI10_0.data
	.align	4
.LCPI10_0:
	.long	2147483669
	.cc_bottom .LCPI10_0.data
	.text
	.globl	mac_request_status_packets
	.align	4
	.type	mac_request_status_packets,@function
mac_request_status_packets:
.Ltmp111:
	.cfi_startproc
.Lfunc_begin10:
	.loc	1 149 0
.Lxtalabel10:
	mkmsk r1, 1
.Ltmp112:
	.loc	1 131 0 prologue_end
.Lxta.endpoint_labels29:
	outt res[r0], r1
	.loc	1 132 0
.Lxta.endpoint_labels30:
	outct res[r0], 1
	.loc	1 133 0
	chkct res[r0], 1
	ldw r2, cp[.LCPI10_0]
	.loc	1 134 0
.Lxta.endpoint_labels31:
	out res[r0], r2
	.loc	1 135 0
.Lxta.endpoint_labels32:
	outct res[r0], 1
	.loc	1 136 0
	chkct res[r0], 1
.Ltmp113:
	.loc	1 151 0
	outct res[r0], 1
	chkct res[r0], 1
	.loc	1 151 0
.Lxta.endpoint_labels33:
	out res[r0], r1
	.loc	1 151 0
	outct res[r0], 1
	chkct res[r0], 1
.Ltmp114:
	retsp 0
.Ltmp115:
.Ltmp116:
	.size	mac_request_status_packets, .Ltmp116-mac_request_status_packets
.Lfunc_end10:
.Ltmp117:
	.cfi_endproc
.Leh_func_end10:

	.align	4
	.cc_bottom mac_request_status_packets.function
	.set	mac_request_status_packets.nstackwords,0
	.globl	mac_request_status_packets.nstackwords
	.set	mac_request_status_packets.maxcores,1
	.globl	mac_request_status_packets.maxcores
	.set	mac_request_status_packets.maxtimers,0
	.globl	mac_request_status_packets.maxtimers
	.set	mac_request_status_packets.maxchanends,0
	.globl	mac_request_status_packets.maxchanends
	.cc_top ethernet_unified_get_data.function
	.section	.cp.rodata.cst4,"aMc",@progbits,4
	.cc_top .LCPI11_0.data
	.align	4
.LCPI11_0:
	.long	2147483668
	.cc_bottom .LCPI11_0.data
	.text
	.align	4
	.type	ethernet_unified_get_data,@function
ethernet_unified_get_data:
.Ltmp126:
	.cfi_startproc
.Lfunc_begin11:
	.loc	1 36 0
.Lxtalabel11:
	entsp 8
.Ltmp127:
	.cfi_def_cfa_offset 32
.Ltmp128:
	.cfi_offset 15, 0
	stw r4, sp[7]
.Ltmp129:
	.cfi_offset 4, -4
	stw r5, sp[6]
.Ltmp130:
	.cfi_offset 5, -8
	stw r6, sp[5]
.Ltmp131:
	.cfi_offset 6, -12
	stw r7, sp[4]
.Ltmp132:
	.cfi_offset 7, -16
	stw r8, sp[3]
.Ltmp133:
	.cfi_offset 8, -20
	stw r9, sp[2]
.Ltmp134:
	.cfi_offset 9, -24
	stw r10, sp[1]
.Ltmp135:
	.cfi_offset 10, -28
	stw r2, sp[0]
	.loc	1 40 0 prologue_end
.Ltmp136:
.Lxta.endpoint_labels34:
	inct r2, res[r0]
	ldc r11, 0
	.loc	1 41 0
.Lxta.endpoint_labels35:
	outt res[r0], r11
	.loc	1 42 0
.Lxta.endpoint_labels36:
	outct res[r0], 1
	.loc	1 43 0
.Lxta.endpoint_labels37:
	inct r2, res[r0]
	ldw r5, sp[10]
	.loc	1 44 0
.Lxta.endpoint_labels38:
	out res[r0], r5
	.loc	1 45 0
.Lxta.endpoint_labels39:
	outct res[r0], 1
	.loc	1 46 0
	chkct res[r0], 1
	.loc	1 48 0
	outct res[r0], 1
	.loc	1 50 0
.Lxta.endpoint_labels40:
	in r2, res[r0]
	.loc	1 50 0
	stw r2, r3[0]
	.loc	1 51 0
.Lxta.endpoint_labels41:
	in r3, res[r0]
.Ltmp137:
	.loc	1 52 0
.Lxta.endpoint_labels42:
	in r2, res[r0]
	ldw r4, sp[9]
	.loc	1 52 0
	stw r2, r4[0]
	mkmsk r2, 32
	.loc	1 54 0
	eq r4, r3, r2
	bt r4, .LBB11_19
.Lxtalabel12:
	ldw r4, sp[11]
	ldw r2, cp[.LCPI11_0]
	.loc	1 60 0
	eq r6, r5, r2
	bf r6, .LBB11_3
.Ltmp138:
	.loc	1 61 0
	add r3, r3, 4
.Ltmp139:
.LBB11_3:
.Lxtalabel13:
	.loc	1 64 0
	add r2, r3, 3
	shr r5, r2, 2
.Ltmp140:
	.loc	1 66 0
	bf r5, .LBB11_34
.Ltmp141:
	bf r6, .LBB11_20
	ldc r7, 2
	mkmsk r8, 2
	mov r9, r11
	bu .LBB11_6
.LBB11_7:
.Lxtalabel14:
.Ltmp142:
	mkmsk r2, 1
	.loc	1 81 0
	or r2, r9, r2
.Ltmp143:
	.loc	1 76 0
	lsu r6, r2, r3
	bf r6, .LBB11_10
.Ltmp144:
.Lxtalabel15:
	lsu r6, r2, r4
	bf r6, .LBB11_10
.Lxtalabel16:
	.loc	1 78 0
	shr r6, r10, 8
	.loc	1 79 0
	st8 r6, r1[r2]
.LBB11_10:
.Lxtalabel17:
.Ltmp145:
	.loc	1 81 0
	or r2, r9, r7
	.loc	1 76 0
	lsu r6, r2, r3
	bf r6, .LBB11_13
.Ltmp146:
.Lxtalabel18:
	lsu r6, r2, r4
	bf r6, .LBB11_13
.Lxtalabel19:
	.loc	1 78 0
	shr r6, r10, 16
	.loc	1 79 0
	st8 r6, r1[r2]
.LBB11_13:
.Lxtalabel20:
.Ltmp147:
	.loc	1 81 0
	or r2, r9, r8
	.loc	1 76 0
	lsu r6, r2, r3
	bf r6, .LBB11_16
.Ltmp148:
.Lxtalabel21:
	lsu r6, r2, r4
	bf r6, .LBB11_16
.Lxtalabel22:
	.loc	1 78 0
	shr r10, r10, 24
	.loc	1 79 0
	st8 r10, r1[r2]
.LBB11_16:
.Lxtalabel23:
	.loc	1 66 0
	add r11, r11, 1
.Ltmp149:
	lsu r2, r11, r5
.Lxta.loop_labels0:
	# LOOPMARKER 1
	.loc	1 81 0
	add r9, r9, 4
	.loc	1 66 0
	bf r2, .LBB11_34
.Ltmp150:
.LBB11_6:
.Lxtalabel24:
	.loc	1 76 0
	lsu r2, r9, r3
	.loc	1 69 0
.Lxta.endpoint_labels43:
	in r6, res[r0]
.Ltmp151:
	.loc	1 71 0
	byterev r10, r6
.Ltmp152:
	bf r2, .LBB11_7
.Ltmp153:
.Lxtalabel25:
	lsu r2, r9, r4
	bf r2, .LBB11_7
.Lxtalabel26:
	.loc	1 79 0
	st8 r10, r1[r9]
	bu .LBB11_7
.LBB11_19:
.Lxtalabel27:
	.loc	1 56 0
.Ltmp154:
.Lxta.endpoint_labels44:
	in r3, res[r0]
.Ltmp155:
	.loc	1 57 0
	ldc r11, 0
	st8 r3, r1[r11]
	mov r3, r2
.Ltmp156:
	bu .LBB11_35
.Ltmp157:
.LBB11_20:
	ldc r7, 2
	mkmsk r8, 2
	mov r9, r11
.LBB11_21:
.Lxtalabel28:
	.loc	1 76 0
	lsu r6, r9, r3
	.loc	1 69 0
.Lxta.endpoint_labels45:
	in r10, res[r0]
.Ltmp158:
	.loc	1 76 0
	bf r6, .LBB11_24
.Ltmp159:
.Lxtalabel29:
	lsu r2, r9, r4
	bf r2, .LBB11_24
.Lxtalabel30:
	.loc	1 79 0
	st8 r10, r1[r9]
.LBB11_24:
.Lxtalabel31:
.Ltmp160:
	mkmsk r2, 1
	.loc	1 81 0
	or r6, r9, r2
.Ltmp161:
	.loc	1 76 0
	lsu r2, r6, r3
	bf r2, .LBB11_27
.Ltmp162:
.Lxtalabel32:
	lsu r2, r6, r4
	bf r2, .LBB11_27
.Lxtalabel33:
	.loc	1 78 0
	shr r2, r10, 8
	.loc	1 79 0
	st8 r2, r1[r6]
.LBB11_27:
.Lxtalabel34:
.Ltmp163:
	.loc	1 81 0
	or r6, r9, r7
	.loc	1 76 0
	lsu r2, r6, r3
	bf r2, .LBB11_30
.Ltmp164:
.Lxtalabel35:
	lsu r2, r6, r4
	bf r2, .LBB11_30
.Lxtalabel36:
	.loc	1 78 0
	shr r2, r10, 16
	.loc	1 79 0
	st8 r2, r1[r6]
.LBB11_30:
.Lxtalabel37:
.Ltmp165:
	.loc	1 81 0
	or r6, r9, r8
	.loc	1 76 0
	lsu r2, r6, r3
	bf r2, .LBB11_33
.Ltmp166:
.Lxtalabel38:
	lsu r2, r6, r4
	bf r2, .LBB11_33
.Lxtalabel39:
	.loc	1 78 0
	shr r10, r10, 24
	.loc	1 79 0
	st8 r10, r1[r6]
.LBB11_33:
.Lxtalabel40:
.Ltmp167:
	.loc	1 66 0
	add r11, r11, 1
.Ltmp168:
	lsu r6, r11, r5
.Lxta.loop_labels1:
	# LOOPMARKER 0
	.loc	1 81 0
	add r9, r9, 4
	.loc	1 66 0
	bt r6, .LBB11_21
.LBB11_34:
.Lxtalabel41:
.Ltmp169:
	.loc	1 84 0
.Lxta.endpoint_labels46:
	in r1, res[r0]
	.loc	1 84 0
	ldw r2, sp[0]
	stw r1, r2[0]
.LBB11_35:
.Lxtalabel42:
	chkct res[r0], 1
	outct res[r0], 1
	mov r0, r3
	ldw r10, sp[1]
	ldw r9, sp[2]
	ldw r8, sp[3]
	ldw r7, sp[4]
	ldw r6, sp[5]
	ldw r5, sp[6]
	ldw r4, sp[7]
	retsp 8
.Ltmp170:
.Ltmp171:
	.size	ethernet_unified_get_data, .Ltmp171-ethernet_unified_get_data
.Lfunc_end11:
.Ltmp172:
	.cfi_endproc
.Leh_func_end11:

	.align	4
	.cc_bottom ethernet_unified_get_data.function
	.set	ethernet_unified_get_data.nstackwords,8
	.set	ethernet_unified_get_data.maxcores,1
	.set	ethernet_unified_get_data.maxtimers,0
	.set	ethernet_unified_get_data.maxchanends,0
	.cfi_sections .debug_frame
.Ltext_end:
	.section	.dp.data,"awd",@progbits
.Ldata_end:
	.text
.Lsection_end1:
	.section	.xtacalltable,"",@progbits
.Lentries_start0:
	.long	.Lentries_end1-.Lentries_start0
	.long	0
	.ascii	 "/home/vdelacruz/Documents/Ethernet sin mii/app_simple_webserver/.build_IPV4"
	.byte	0
.cc_top cc_0,.Lxta.call_labels0
	.ascii	 "/home/vdelacruz/Documents/Ethernet sin mii/module_ethernet/src/full/ethernet_rx_client.xc"
	.byte	0
	.long	96
	.long	.Lxta.call_labels0
.cc_bottom cc_0
.cc_top cc_1,.Lxta.call_labels4
	.ascii	 "/home/vdelacruz/Documents/Ethernet sin mii/module_ethernet/src/full/ethernet_rx_client.xc"
	.byte	0
	.long	103
	.long	.Lxta.call_labels4
.cc_bottom cc_1
.cc_top cc_2,.Lxta.call_labels1
	.ascii	 "/home/vdelacruz/Documents/Ethernet sin mii/module_ethernet/src/full/ethernet_rx_client.xc"
	.byte	0
	.long	111
	.long	.Lxta.call_labels1
.cc_bottom cc_2
.cc_top cc_3,.Lxta.call_labels2
	.ascii	 "/home/vdelacruz/Documents/Ethernet sin mii/module_ethernet/src/full/ethernet_rx_client.xc"
	.byte	0
	.long	118
	.long	.Lxta.call_labels2
.cc_bottom cc_3
.cc_top cc_4,.Lxta.call_labels3
	.ascii	 "/home/vdelacruz/Documents/Ethernet sin mii/module_ethernet/src/full/ethernet_rx_client.xc"
	.byte	0
	.long	125
	.long	.Lxta.call_labels3
.cc_bottom cc_4
.Lentries_end1:
	.section	.xtaendpointtable,"",@progbits
.Lentries_start2:
	.long	.Lentries_end3-.Lentries_start2
	.long	0
	.ascii	 "/home/vdelacruz/Documents/Ethernet sin mii/app_simple_webserver/.build_IPV4"
	.byte	0
.cc_top cc_5,.Lxta.endpoint_labels34
	.ascii	 "/home/vdelacruz/Documents/Ethernet sin mii/module_ethernet/src/full/ethernet_rx_client.xc"
	.byte	0
	.long	40
	.long	.Lxta.endpoint_labels34
.cc_bottom cc_5
.cc_top cc_6,.Lxta.endpoint_labels35
	.ascii	 "/home/vdelacruz/Documents/Ethernet sin mii/module_ethernet/src/full/ethernet_rx_client.xc"
	.byte	0
	.long	41
	.long	.Lxta.endpoint_labels35
.cc_bottom cc_6
.cc_top cc_7,.Lxta.endpoint_labels36
	.ascii	 "/home/vdelacruz/Documents/Ethernet sin mii/module_ethernet/src/full/ethernet_rx_client.xc"
	.byte	0
	.long	42
	.long	.Lxta.endpoint_labels36
.cc_bottom cc_7
.cc_top cc_8,.Lxta.endpoint_labels37
	.ascii	 "/home/vdelacruz/Documents/Ethernet sin mii/module_ethernet/src/full/ethernet_rx_client.xc"
	.byte	0
	.long	43
	.long	.Lxta.endpoint_labels37
.cc_bottom cc_8
.cc_top cc_9,.Lxta.endpoint_labels38
	.ascii	 "/home/vdelacruz/Documents/Ethernet sin mii/module_ethernet/src/full/ethernet_rx_client.xc"
	.byte	0
	.long	44
	.long	.Lxta.endpoint_labels38
.cc_bottom cc_9
.cc_top cc_10,.Lxta.endpoint_labels39
	.ascii	 "/home/vdelacruz/Documents/Ethernet sin mii/module_ethernet/src/full/ethernet_rx_client.xc"
	.byte	0
	.long	45
	.long	.Lxta.endpoint_labels39
.cc_bottom cc_10
.cc_top cc_11,.Lxta.endpoint_labels40
	.ascii	 "/home/vdelacruz/Documents/Ethernet sin mii/module_ethernet/src/full/ethernet_rx_client.xc"
	.byte	0
	.long	50
	.long	.Lxta.endpoint_labels40
.cc_bottom cc_11
.cc_top cc_12,.Lxta.endpoint_labels41
	.ascii	 "/home/vdelacruz/Documents/Ethernet sin mii/module_ethernet/src/full/ethernet_rx_client.xc"
	.byte	0
	.long	51
	.long	.Lxta.endpoint_labels41
.cc_bottom cc_12
.cc_top cc_13,.Lxta.endpoint_labels42
	.ascii	 "/home/vdelacruz/Documents/Ethernet sin mii/module_ethernet/src/full/ethernet_rx_client.xc"
	.byte	0
	.long	52
	.long	.Lxta.endpoint_labels42
.cc_bottom cc_13
.cc_top cc_14,.Lxta.endpoint_labels44
	.ascii	 "/home/vdelacruz/Documents/Ethernet sin mii/module_ethernet/src/full/ethernet_rx_client.xc"
	.byte	0
	.long	56
	.long	.Lxta.endpoint_labels44
.cc_bottom cc_14
.cc_top cc_15,.Lxta.endpoint_labels45
	.ascii	 "/home/vdelacruz/Documents/Ethernet sin mii/module_ethernet/src/full/ethernet_rx_client.xc"
	.byte	0
	.long	69
	.long	.Lxta.endpoint_labels45
.cc_bottom cc_15
.cc_top cc_16,.Lxta.endpoint_labels43
	.ascii	 "/home/vdelacruz/Documents/Ethernet sin mii/module_ethernet/src/full/ethernet_rx_client.xc"
	.byte	0
	.long	69
	.long	.Lxta.endpoint_labels43
.cc_bottom cc_16
.cc_top cc_17,.Lxta.endpoint_labels46
	.ascii	 "/home/vdelacruz/Documents/Ethernet sin mii/module_ethernet/src/full/ethernet_rx_client.xc"
	.byte	0
	.long	84
	.long	.Lxta.endpoint_labels46
.cc_bottom cc_17
.cc_top cc_18,.Lxta.endpoint_labels0
	.ascii	 "/home/vdelacruz/Documents/Ethernet sin mii/module_ethernet/src/full/ethernet_rx_client.xc"
	.byte	0
	.long	131
	.long	.Lxta.endpoint_labels0
.cc_bottom cc_18
.cc_top cc_19,.Lxta.endpoint_labels29
	.ascii	 "/home/vdelacruz/Documents/Ethernet sin mii/module_ethernet/src/full/ethernet_rx_client.xc"
	.byte	0
	.long	131
	.long	.Lxta.endpoint_labels29
.cc_bottom cc_19
.cc_top cc_20,.Lxta.endpoint_labels20
	.ascii	 "/home/vdelacruz/Documents/Ethernet sin mii/module_ethernet/src/full/ethernet_rx_client.xc"
	.byte	0
	.long	131
	.long	.Lxta.endpoint_labels20
.cc_bottom cc_20
.cc_top cc_21,.Lxta.endpoint_labels5
	.ascii	 "/home/vdelacruz/Documents/Ethernet sin mii/module_ethernet/src/full/ethernet_rx_client.xc"
	.byte	0
	.long	131
	.long	.Lxta.endpoint_labels5
.cc_bottom cc_21
.cc_top cc_22,.Lxta.endpoint_labels15
	.ascii	 "/home/vdelacruz/Documents/Ethernet sin mii/module_ethernet/src/full/ethernet_rx_client.xc"
	.byte	0
	.long	131
	.long	.Lxta.endpoint_labels15
.cc_bottom cc_22
.cc_top cc_23,.Lxta.endpoint_labels10
	.ascii	 "/home/vdelacruz/Documents/Ethernet sin mii/module_ethernet/src/full/ethernet_rx_client.xc"
	.byte	0
	.long	131
	.long	.Lxta.endpoint_labels10
.cc_bottom cc_23
.cc_top cc_24,.Lxta.endpoint_labels16
	.ascii	 "/home/vdelacruz/Documents/Ethernet sin mii/module_ethernet/src/full/ethernet_rx_client.xc"
	.byte	0
	.long	132
	.long	.Lxta.endpoint_labels16
.cc_bottom cc_24
.cc_top cc_25,.Lxta.endpoint_labels1
	.ascii	 "/home/vdelacruz/Documents/Ethernet sin mii/module_ethernet/src/full/ethernet_rx_client.xc"
	.byte	0
	.long	132
	.long	.Lxta.endpoint_labels1
.cc_bottom cc_25
.cc_top cc_26,.Lxta.endpoint_labels6
	.ascii	 "/home/vdelacruz/Documents/Ethernet sin mii/module_ethernet/src/full/ethernet_rx_client.xc"
	.byte	0
	.long	132
	.long	.Lxta.endpoint_labels6
.cc_bottom cc_26
.cc_top cc_27,.Lxta.endpoint_labels11
	.ascii	 "/home/vdelacruz/Documents/Ethernet sin mii/module_ethernet/src/full/ethernet_rx_client.xc"
	.byte	0
	.long	132
	.long	.Lxta.endpoint_labels11
.cc_bottom cc_27
.cc_top cc_28,.Lxta.endpoint_labels30
	.ascii	 "/home/vdelacruz/Documents/Ethernet sin mii/module_ethernet/src/full/ethernet_rx_client.xc"
	.byte	0
	.long	132
	.long	.Lxta.endpoint_labels30
.cc_bottom cc_28
.cc_top cc_29,.Lxta.endpoint_labels21
	.ascii	 "/home/vdelacruz/Documents/Ethernet sin mii/module_ethernet/src/full/ethernet_rx_client.xc"
	.byte	0
	.long	132
	.long	.Lxta.endpoint_labels21
.cc_bottom cc_29
.cc_top cc_30,.Lxta.endpoint_labels12
	.ascii	 "/home/vdelacruz/Documents/Ethernet sin mii/module_ethernet/src/full/ethernet_rx_client.xc"
	.byte	0
	.long	134
	.long	.Lxta.endpoint_labels12
.cc_bottom cc_30
.cc_top cc_31,.Lxta.endpoint_labels17
	.ascii	 "/home/vdelacruz/Documents/Ethernet sin mii/module_ethernet/src/full/ethernet_rx_client.xc"
	.byte	0
	.long	134
	.long	.Lxta.endpoint_labels17
.cc_bottom cc_31
.cc_top cc_32,.Lxta.endpoint_labels2
	.ascii	 "/home/vdelacruz/Documents/Ethernet sin mii/module_ethernet/src/full/ethernet_rx_client.xc"
	.byte	0
	.long	134
	.long	.Lxta.endpoint_labels2
.cc_bottom cc_32
.cc_top cc_33,.Lxta.endpoint_labels7
	.ascii	 "/home/vdelacruz/Documents/Ethernet sin mii/module_ethernet/src/full/ethernet_rx_client.xc"
	.byte	0
	.long	134
	.long	.Lxta.endpoint_labels7
.cc_bottom cc_33
.cc_top cc_34,.Lxta.endpoint_labels22
	.ascii	 "/home/vdelacruz/Documents/Ethernet sin mii/module_ethernet/src/full/ethernet_rx_client.xc"
	.byte	0
	.long	134
	.long	.Lxta.endpoint_labels22
.cc_bottom cc_34
.cc_top cc_35,.Lxta.endpoint_labels31
	.ascii	 "/home/vdelacruz/Documents/Ethernet sin mii/module_ethernet/src/full/ethernet_rx_client.xc"
	.byte	0
	.long	134
	.long	.Lxta.endpoint_labels31
.cc_bottom cc_35
.cc_top cc_36,.Lxta.endpoint_labels23
	.ascii	 "/home/vdelacruz/Documents/Ethernet sin mii/module_ethernet/src/full/ethernet_rx_client.xc"
	.byte	0
	.long	135
	.long	.Lxta.endpoint_labels23
.cc_bottom cc_36
.cc_top cc_37,.Lxta.endpoint_labels32
	.ascii	 "/home/vdelacruz/Documents/Ethernet sin mii/module_ethernet/src/full/ethernet_rx_client.xc"
	.byte	0
	.long	135
	.long	.Lxta.endpoint_labels32
.cc_bottom cc_37
.cc_top cc_38,.Lxta.endpoint_labels13
	.ascii	 "/home/vdelacruz/Documents/Ethernet sin mii/module_ethernet/src/full/ethernet_rx_client.xc"
	.byte	0
	.long	135
	.long	.Lxta.endpoint_labels13
.cc_bottom cc_38
.cc_top cc_39,.Lxta.endpoint_labels8
	.ascii	 "/home/vdelacruz/Documents/Ethernet sin mii/module_ethernet/src/full/ethernet_rx_client.xc"
	.byte	0
	.long	135
	.long	.Lxta.endpoint_labels8
.cc_bottom cc_39
.cc_top cc_40,.Lxta.endpoint_labels18
	.ascii	 "/home/vdelacruz/Documents/Ethernet sin mii/module_ethernet/src/full/ethernet_rx_client.xc"
	.byte	0
	.long	135
	.long	.Lxta.endpoint_labels18
.cc_bottom cc_40
.cc_top cc_41,.Lxta.endpoint_labels3
	.ascii	 "/home/vdelacruz/Documents/Ethernet sin mii/module_ethernet/src/full/ethernet_rx_client.xc"
	.byte	0
	.long	135
	.long	.Lxta.endpoint_labels3
.cc_bottom cc_41
.cc_top cc_42,.Lxta.endpoint_labels4
	.ascii	 "/home/vdelacruz/Documents/Ethernet sin mii/module_ethernet/src/full/ethernet_rx_client.xc"
	.byte	0
	.long	143
	.long	.Lxta.endpoint_labels4
.cc_bottom cc_42
.cc_top cc_43,.Lxta.endpoint_labels33
	.ascii	 "/home/vdelacruz/Documents/Ethernet sin mii/module_ethernet/src/full/ethernet_rx_client.xc"
	.byte	0
	.long	151
	.long	.Lxta.endpoint_labels33
.cc_bottom cc_43
.cc_top cc_44,.Lxta.endpoint_labels9
	.ascii	 "/home/vdelacruz/Documents/Ethernet sin mii/module_ethernet/src/full/ethernet_rx_client.xc"
	.byte	0
	.long	158
	.long	.Lxta.endpoint_labels9
.cc_bottom cc_44
.cc_top cc_45,.Lxta.endpoint_labels14
	.ascii	 "/home/vdelacruz/Documents/Ethernet sin mii/module_ethernet/src/full/ethernet_rx_client.xc"
	.byte	0
	.long	165
	.long	.Lxta.endpoint_labels14
.cc_bottom cc_45
.cc_top cc_46,.Lxta.endpoint_labels19
	.ascii	 "/home/vdelacruz/Documents/Ethernet sin mii/module_ethernet/src/full/ethernet_rx_client.xc"
	.byte	0
	.long	175
	.long	.Lxta.endpoint_labels19
.cc_bottom cc_46
.cc_top cc_47,.Lxta.endpoint_labels24
	.ascii	 "/home/vdelacruz/Documents/Ethernet sin mii/module_ethernet/src/full/ethernet_rx_client.xc"
	.byte	0
	.long	189
	.long	.Lxta.endpoint_labels24
.cc_bottom cc_47
.cc_top cc_48,.Lxta.endpoint_labels25
	.ascii	 "/home/vdelacruz/Documents/Ethernet sin mii/module_ethernet/src/full/ethernet_rx_client.xc"
	.byte	0
	.long	190
	.long	.Lxta.endpoint_labels25
.cc_bottom cc_48
.cc_top cc_49,.Lxta.endpoint_labels26
	.ascii	 "/home/vdelacruz/Documents/Ethernet sin mii/module_ethernet/src/full/ethernet_rx_client.xc"
	.byte	0
	.long	191
	.long	.Lxta.endpoint_labels26
.cc_bottom cc_49
.cc_top cc_50,.Lxta.endpoint_labels27
	.ascii	 "/home/vdelacruz/Documents/Ethernet sin mii/module_ethernet/src/full/ethernet_rx_client.xc"
	.byte	0
	.long	192
	.long	.Lxta.endpoint_labels27
.cc_bottom cc_50
.cc_top cc_51,.Lxta.endpoint_labels28
	.ascii	 "/home/vdelacruz/Documents/Ethernet sin mii/module_ethernet/src/full/ethernet_rx_client.xc"
	.byte	0
	.long	193
	.long	.Lxta.endpoint_labels28
.cc_bottom cc_51
.Lentries_end3:
	.section	.xtalabeltable,"",@progbits
.Lentries_start4:
	.long	.Lentries_end5-.Lentries_start4
	.long	0
	.ascii	 "/home/vdelacruz/Documents/Ethernet sin mii/app_simple_webserver/.build_IPV4"
	.byte	0
.cc_top cc_52,.Lxtalabel11
	.ascii	 "/home/vdelacruz/Documents/Ethernet sin mii/module_ethernet/src/full/ethernet_rx_client.xc"
	.byte	0
	.long	36
	.long	54
	.long	.Lxtalabel11
.cc_bottom cc_52
.cc_top cc_53,.Lxtalabel27
	.ascii	 "/home/vdelacruz/Documents/Ethernet sin mii/module_ethernet/src/full/ethernet_rx_client.xc"
	.byte	0
	.long	55
	.long	58
	.long	.Lxtalabel27
.cc_bottom cc_53
.cc_top cc_54,.Lxtalabel12
	.ascii	 "/home/vdelacruz/Documents/Ethernet sin mii/module_ethernet/src/full/ethernet_rx_client.xc"
	.byte	0
	.long	59
	.long	60
	.long	.Lxtalabel12
.cc_bottom cc_54
.cc_top cc_55,.Lxtalabel13
	.ascii	 "/home/vdelacruz/Documents/Ethernet sin mii/module_ethernet/src/full/ethernet_rx_client.xc"
	.byte	0
	.long	59
	.long	60
	.long	.Lxtalabel13
.cc_bottom cc_55
.cc_top cc_56,.Lxtalabel12
	.ascii	 "/home/vdelacruz/Documents/Ethernet sin mii/module_ethernet/src/full/ethernet_rx_client.xc"
	.byte	0
	.long	61
	.long	61
	.long	.Lxtalabel12
.cc_bottom cc_56
.cc_top cc_57,.Lxtalabel13
	.ascii	 "/home/vdelacruz/Documents/Ethernet sin mii/module_ethernet/src/full/ethernet_rx_client.xc"
	.byte	0
	.long	61
	.long	61
	.long	.Lxtalabel13
.cc_bottom cc_57
.cc_top cc_58,.Lxtalabel13
	.ascii	 "/home/vdelacruz/Documents/Ethernet sin mii/module_ethernet/src/full/ethernet_rx_client.xc"
	.byte	0
	.long	62
	.long	66
	.long	.Lxtalabel13
.cc_bottom cc_58
.cc_top cc_59,.Lxtalabel12
	.ascii	 "/home/vdelacruz/Documents/Ethernet sin mii/module_ethernet/src/full/ethernet_rx_client.xc"
	.byte	0
	.long	62
	.long	66
	.long	.Lxtalabel12
.cc_bottom cc_59
.cc_top cc_60,.Lxtalabel25
	.ascii	 "/home/vdelacruz/Documents/Ethernet sin mii/module_ethernet/src/full/ethernet_rx_client.xc"
	.byte	0
	.long	67
	.long	70
	.long	.Lxtalabel25
.cc_bottom cc_60
.cc_top cc_61,.Lxtalabel24
	.ascii	 "/home/vdelacruz/Documents/Ethernet sin mii/module_ethernet/src/full/ethernet_rx_client.xc"
	.byte	0
	.long	67
	.long	70
	.long	.Lxtalabel24
.cc_bottom cc_61
.cc_top cc_62,.Lxtalabel28
	.ascii	 "/home/vdelacruz/Documents/Ethernet sin mii/module_ethernet/src/full/ethernet_rx_client.xc"
	.byte	0
	.long	67
	.long	70
	.long	.Lxtalabel28
.cc_bottom cc_62
.cc_top cc_63,.Lxtalabel29
	.ascii	 "/home/vdelacruz/Documents/Ethernet sin mii/module_ethernet/src/full/ethernet_rx_client.xc"
	.byte	0
	.long	67
	.long	70
	.long	.Lxtalabel29
.cc_bottom cc_63
.cc_top cc_64,.Lxtalabel25
	.ascii	 "/home/vdelacruz/Documents/Ethernet sin mii/module_ethernet/src/full/ethernet_rx_client.xc"
	.byte	0
	.long	71
	.long	71
	.long	.Lxtalabel25
.cc_bottom cc_64
.cc_top cc_65,.Lxtalabel24
	.ascii	 "/home/vdelacruz/Documents/Ethernet sin mii/module_ethernet/src/full/ethernet_rx_client.xc"
	.byte	0
	.long	71
	.long	71
	.long	.Lxtalabel24
.cc_bottom cc_65
.cc_top cc_66,.Lxtalabel24
	.ascii	 "/home/vdelacruz/Documents/Ethernet sin mii/module_ethernet/src/full/ethernet_rx_client.xc"
	.byte	0
	.long	72
	.long	73
	.long	.Lxtalabel24
.cc_bottom cc_66
.cc_top cc_67,.Lxtalabel29
	.ascii	 "/home/vdelacruz/Documents/Ethernet sin mii/module_ethernet/src/full/ethernet_rx_client.xc"
	.byte	0
	.long	72
	.long	73
	.long	.Lxtalabel29
.cc_bottom cc_67
.cc_top cc_68,.Lxtalabel25
	.ascii	 "/home/vdelacruz/Documents/Ethernet sin mii/module_ethernet/src/full/ethernet_rx_client.xc"
	.byte	0
	.long	72
	.long	73
	.long	.Lxtalabel25
.cc_bottom cc_68
.cc_top cc_69,.Lxtalabel28
	.ascii	 "/home/vdelacruz/Documents/Ethernet sin mii/module_ethernet/src/full/ethernet_rx_client.xc"
	.byte	0
	.long	72
	.long	73
	.long	.Lxtalabel28
.cc_bottom cc_69
.cc_top cc_70,.Lxtalabel20
	.ascii	 "/home/vdelacruz/Documents/Ethernet sin mii/module_ethernet/src/full/ethernet_rx_client.xc"
	.byte	0
	.long	74
	.long	76
	.long	.Lxtalabel20
.cc_bottom cc_70
.cc_top cc_71,.Lxtalabel17
	.ascii	 "/home/vdelacruz/Documents/Ethernet sin mii/module_ethernet/src/full/ethernet_rx_client.xc"
	.byte	0
	.long	74
	.long	76
	.long	.Lxtalabel17
.cc_bottom cc_71
.cc_top cc_72,.Lxtalabel18
	.ascii	 "/home/vdelacruz/Documents/Ethernet sin mii/module_ethernet/src/full/ethernet_rx_client.xc"
	.byte	0
	.long	74
	.long	76
	.long	.Lxtalabel18
.cc_bottom cc_72
.cc_top cc_73,.Lxtalabel28
	.ascii	 "/home/vdelacruz/Documents/Ethernet sin mii/module_ethernet/src/full/ethernet_rx_client.xc"
	.byte	0
	.long	74
	.long	76
	.long	.Lxtalabel28
.cc_bottom cc_73
.cc_top cc_74,.Lxtalabel21
	.ascii	 "/home/vdelacruz/Documents/Ethernet sin mii/module_ethernet/src/full/ethernet_rx_client.xc"
	.byte	0
	.long	74
	.long	76
	.long	.Lxtalabel21
.cc_bottom cc_74
.cc_top cc_75,.Lxtalabel24
	.ascii	 "/home/vdelacruz/Documents/Ethernet sin mii/module_ethernet/src/full/ethernet_rx_client.xc"
	.byte	0
	.long	74
	.long	76
	.long	.Lxtalabel24
.cc_bottom cc_75
.cc_top cc_76,.Lxtalabel25
	.ascii	 "/home/vdelacruz/Documents/Ethernet sin mii/module_ethernet/src/full/ethernet_rx_client.xc"
	.byte	0
	.long	74
	.long	76
	.long	.Lxtalabel25
.cc_bottom cc_76
.cc_top cc_77,.Lxtalabel14
	.ascii	 "/home/vdelacruz/Documents/Ethernet sin mii/module_ethernet/src/full/ethernet_rx_client.xc"
	.byte	0
	.long	74
	.long	76
	.long	.Lxtalabel14
.cc_bottom cc_77
.cc_top cc_78,.Lxtalabel29
	.ascii	 "/home/vdelacruz/Documents/Ethernet sin mii/module_ethernet/src/full/ethernet_rx_client.xc"
	.byte	0
	.long	74
	.long	76
	.long	.Lxtalabel29
.cc_bottom cc_78
.cc_top cc_79,.Lxtalabel38
	.ascii	 "/home/vdelacruz/Documents/Ethernet sin mii/module_ethernet/src/full/ethernet_rx_client.xc"
	.byte	0
	.long	74
	.long	76
	.long	.Lxtalabel38
.cc_bottom cc_79
.cc_top cc_80,.Lxtalabel31
	.ascii	 "/home/vdelacruz/Documents/Ethernet sin mii/module_ethernet/src/full/ethernet_rx_client.xc"
	.byte	0
	.long	74
	.long	76
	.long	.Lxtalabel31
.cc_bottom cc_80
.cc_top cc_81,.Lxtalabel37
	.ascii	 "/home/vdelacruz/Documents/Ethernet sin mii/module_ethernet/src/full/ethernet_rx_client.xc"
	.byte	0
	.long	74
	.long	76
	.long	.Lxtalabel37
.cc_bottom cc_81
.cc_top cc_82,.Lxtalabel32
	.ascii	 "/home/vdelacruz/Documents/Ethernet sin mii/module_ethernet/src/full/ethernet_rx_client.xc"
	.byte	0
	.long	74
	.long	76
	.long	.Lxtalabel32
.cc_bottom cc_82
.cc_top cc_83,.Lxtalabel15
	.ascii	 "/home/vdelacruz/Documents/Ethernet sin mii/module_ethernet/src/full/ethernet_rx_client.xc"
	.byte	0
	.long	74
	.long	76
	.long	.Lxtalabel15
.cc_bottom cc_83
.cc_top cc_84,.Lxtalabel34
	.ascii	 "/home/vdelacruz/Documents/Ethernet sin mii/module_ethernet/src/full/ethernet_rx_client.xc"
	.byte	0
	.long	74
	.long	76
	.long	.Lxtalabel34
.cc_bottom cc_84
.cc_top cc_85,.Lxtalabel35
	.ascii	 "/home/vdelacruz/Documents/Ethernet sin mii/module_ethernet/src/full/ethernet_rx_client.xc"
	.byte	0
	.long	74
	.long	76
	.long	.Lxtalabel35
.cc_bottom cc_85
.cc_top cc_86,.Lxtalabel33
	.ascii	 "/home/vdelacruz/Documents/Ethernet sin mii/module_ethernet/src/full/ethernet_rx_client.xc"
	.byte	0
	.long	77
	.long	80
	.long	.Lxtalabel33
.cc_bottom cc_86
.cc_top cc_87,.Lxtalabel26
	.ascii	 "/home/vdelacruz/Documents/Ethernet sin mii/module_ethernet/src/full/ethernet_rx_client.xc"
	.byte	0
	.long	77
	.long	80
	.long	.Lxtalabel26
.cc_bottom cc_87
.cc_top cc_88,.Lxtalabel39
	.ascii	 "/home/vdelacruz/Documents/Ethernet sin mii/module_ethernet/src/full/ethernet_rx_client.xc"
	.byte	0
	.long	77
	.long	80
	.long	.Lxtalabel39
.cc_bottom cc_88
.cc_top cc_89,.Lxtalabel36
	.ascii	 "/home/vdelacruz/Documents/Ethernet sin mii/module_ethernet/src/full/ethernet_rx_client.xc"
	.byte	0
	.long	77
	.long	80
	.long	.Lxtalabel36
.cc_bottom cc_89
.cc_top cc_90,.Lxtalabel22
	.ascii	 "/home/vdelacruz/Documents/Ethernet sin mii/module_ethernet/src/full/ethernet_rx_client.xc"
	.byte	0
	.long	77
	.long	80
	.long	.Lxtalabel22
.cc_bottom cc_90
.cc_top cc_91,.Lxtalabel30
	.ascii	 "/home/vdelacruz/Documents/Ethernet sin mii/module_ethernet/src/full/ethernet_rx_client.xc"
	.byte	0
	.long	77
	.long	80
	.long	.Lxtalabel30
.cc_bottom cc_91
.cc_top cc_92,.Lxtalabel19
	.ascii	 "/home/vdelacruz/Documents/Ethernet sin mii/module_ethernet/src/full/ethernet_rx_client.xc"
	.byte	0
	.long	77
	.long	80
	.long	.Lxtalabel19
.cc_bottom cc_92
.cc_top cc_93,.Lxtalabel16
	.ascii	 "/home/vdelacruz/Documents/Ethernet sin mii/module_ethernet/src/full/ethernet_rx_client.xc"
	.byte	0
	.long	77
	.long	80
	.long	.Lxtalabel16
.cc_bottom cc_93
.cc_top cc_94,.Lxtalabel23
	.ascii	 "/home/vdelacruz/Documents/Ethernet sin mii/module_ethernet/src/full/ethernet_rx_client.xc"
	.byte	0
	.long	83
	.long	83
	.long	.Lxtalabel23
.cc_bottom cc_94
.cc_top cc_95,.Lxtalabel40
	.ascii	 "/home/vdelacruz/Documents/Ethernet sin mii/module_ethernet/src/full/ethernet_rx_client.xc"
	.byte	0
	.long	83
	.long	83
	.long	.Lxtalabel40
.cc_bottom cc_95
.cc_top cc_96,.Lxtalabel41
	.ascii	 "/home/vdelacruz/Documents/Ethernet sin mii/module_ethernet/src/full/ethernet_rx_client.xc"
	.byte	0
	.long	84
	.long	85
	.long	.Lxtalabel41
.cc_bottom cc_96
.cc_top cc_97,.Lxtalabel42
	.ascii	 "/home/vdelacruz/Documents/Ethernet sin mii/module_ethernet/src/full/ethernet_rx_client.xc"
	.byte	0
	.long	86
	.long	88
	.long	.Lxtalabel42
.cc_bottom cc_97
.cc_top cc_98,.Lxtalabel0
	.ascii	 "/home/vdelacruz/Documents/Ethernet sin mii/module_ethernet/src/full/ethernet_rx_client.xc"
	.byte	0
	.long	93
	.long	98
	.long	.Lxtalabel0
.cc_bottom cc_98
.cc_top cc_99,.Lxtalabel9
	.ascii	 "/home/vdelacruz/Documents/Ethernet sin mii/module_ethernet/src/full/ethernet_rx_client.xc"
	.byte	0
	.long	101
	.long	105
	.long	.Lxtalabel9
.cc_bottom cc_99
.cc_top cc_100,.Lxtalabel1
	.ascii	 "/home/vdelacruz/Documents/Ethernet sin mii/module_ethernet/src/full/ethernet_rx_client.xc"
	.byte	0
	.long	108
	.long	113
	.long	.Lxtalabel1
.cc_bottom cc_100
.cc_top cc_101,.Lxtalabel2
	.ascii	 "/home/vdelacruz/Documents/Ethernet sin mii/module_ethernet/src/full/ethernet_rx_client.xc"
	.byte	0
	.long	116
	.long	120
	.long	.Lxtalabel2
.cc_bottom cc_101
.cc_top cc_102,.Lxtalabel3
	.ascii	 "/home/vdelacruz/Documents/Ethernet sin mii/module_ethernet/src/full/ethernet_rx_client.xc"
	.byte	0
	.long	123
	.long	127
	.long	.Lxtalabel3
.cc_bottom cc_102
.cc_top cc_103,.Lxtalabel10
	.ascii	 "/home/vdelacruz/Documents/Ethernet sin mii/module_ethernet/src/full/ethernet_rx_client.xc"
	.byte	0
	.long	130
	.long	137
	.long	.Lxtalabel10
.cc_bottom cc_103
.cc_top cc_104,.Lxtalabel4
	.ascii	 "/home/vdelacruz/Documents/Ethernet sin mii/module_ethernet/src/full/ethernet_rx_client.xc"
	.byte	0
	.long	130
	.long	137
	.long	.Lxtalabel4
.cc_bottom cc_104
.cc_top cc_105,.Lxtalabel5
	.ascii	 "/home/vdelacruz/Documents/Ethernet sin mii/module_ethernet/src/full/ethernet_rx_client.xc"
	.byte	0
	.long	130
	.long	137
	.long	.Lxtalabel5
.cc_bottom cc_105
.cc_top cc_106,.Lxtalabel6
	.ascii	 "/home/vdelacruz/Documents/Ethernet sin mii/module_ethernet/src/full/ethernet_rx_client.xc"
	.byte	0
	.long	130
	.long	137
	.long	.Lxtalabel6
.cc_bottom cc_106
.cc_top cc_107,.Lxtalabel7
	.ascii	 "/home/vdelacruz/Documents/Ethernet sin mii/module_ethernet/src/full/ethernet_rx_client.xc"
	.byte	0
	.long	130
	.long	137
	.long	.Lxtalabel7
.cc_bottom cc_107
.cc_top cc_108,.Lxtalabel8
	.ascii	 "/home/vdelacruz/Documents/Ethernet sin mii/module_ethernet/src/full/ethernet_rx_client.xc"
	.byte	0
	.long	130
	.long	137
	.long	.Lxtalabel8
.cc_bottom cc_108
.cc_top cc_109,.Lxtalabel4
	.ascii	 "/home/vdelacruz/Documents/Ethernet sin mii/module_ethernet/src/full/ethernet_rx_client.xc"
	.byte	0
	.long	141
	.long	145
	.long	.Lxtalabel4
.cc_bottom cc_109
.cc_top cc_110,.Lxtalabel10
	.ascii	 "/home/vdelacruz/Documents/Ethernet sin mii/module_ethernet/src/full/ethernet_rx_client.xc"
	.byte	0
	.long	149
	.long	153
	.long	.Lxtalabel10
.cc_bottom cc_110
.cc_top cc_111,.Lxtalabel5
	.ascii	 "/home/vdelacruz/Documents/Ethernet sin mii/module_ethernet/src/full/ethernet_rx_client.xc"
	.byte	0
	.long	156
	.long	160
	.long	.Lxtalabel5
.cc_bottom cc_111
.cc_top cc_112,.Lxtalabel6
	.ascii	 "/home/vdelacruz/Documents/Ethernet sin mii/module_ethernet/src/full/ethernet_rx_client.xc"
	.byte	0
	.long	163
	.long	167
	.long	.Lxtalabel6
.cc_bottom cc_112
.cc_top cc_113,.Lxtalabel7
	.ascii	 "/home/vdelacruz/Documents/Ethernet sin mii/module_ethernet/src/full/ethernet_rx_client.xc"
	.byte	0
	.long	172
	.long	177
	.long	.Lxtalabel7
.cc_bottom cc_113
.cc_top cc_114,.Lxtalabel8
	.ascii	 "/home/vdelacruz/Documents/Ethernet sin mii/module_ethernet/src/full/ethernet_rx_client.xc"
	.byte	0
	.long	186
	.long	195
	.long	.Lxtalabel8
.cc_bottom cc_114
.Lentries_end5:
	.section	.xtalooplabeltable,"",@progbits
.Lentries_start6:
	.long	.Lentries_end7-.Lentries_start6
	.long	0
	.ascii	 "/home/vdelacruz/Documents/Ethernet sin mii/app_simple_webserver/.build_IPV4"
	.byte	0
.cc_top cc_115,.Lxta.loop_labels0
	.ascii	 "/home/vdelacruz/Documents/Ethernet sin mii/module_ethernet/src/full/ethernet_rx_client.xc"
	.byte	0
	.long	67
	.long	73
	.long	.Lxta.loop_labels0
.cc_bottom cc_115
.cc_top cc_116,.Lxta.loop_labels1
	.ascii	 "/home/vdelacruz/Documents/Ethernet sin mii/module_ethernet/src/full/ethernet_rx_client.xc"
	.byte	0
	.long	67
	.long	73
	.long	.Lxta.loop_labels1
.cc_bottom cc_116
.cc_top cc_117,.Lxta.loop_labels0
	.ascii	 "/home/vdelacruz/Documents/Ethernet sin mii/module_ethernet/src/full/ethernet_rx_client.xc"
	.byte	0
	.long	83
	.long	83
	.long	.Lxta.loop_labels0
.cc_bottom cc_117
.cc_top cc_118,.Lxta.loop_labels1
	.ascii	 "/home/vdelacruz/Documents/Ethernet sin mii/module_ethernet/src/full/ethernet_rx_client.xc"
	.byte	0
	.long	83
	.long	83
	.long	.Lxta.loop_labels1
.cc_bottom cc_118
.Lentries_end7:
