	.file	"../src/httpd.c"

.set httpd_free_state.locnoside, 1

.set httpd_free_state.locnochandec, 1

.set httpd_free_state.locnoglobalaccess, 1

.set httpd_free_state.locnointerfaceaccess, 1

.set httpd_free_state.locnonotificationselect, 1

.set httpd_init_state.locnoside, 1

.set httpd_init_state.locnochandec, 1

.set httpd_init_state.locnoglobalaccess, 1

.set httpd_init_state.locnointerfaceaccess, 1

.set httpd_init_state.locnonotificationselect, 1

.set httpd_send.locnoside, 1

.set httpd_send.locnochandec, 1

.set httpd_send.locnoglobalaccess, 1

.set httpd_send.locnointerfaceaccess, 1

.set httpd_send.locnonotificationselect, 1

.set parse_http_request.locnoside, 1

.set parse_http_request.locnochandec, 1

.set parse_http_request.locnoglobalaccess, 1

.set parse_http_request.locnointerfaceaccess, 1

.set parse_http_request.locnonotificationselect, 1

.set httpd_recv.locnoside, 1

.set httpd_recv.locnochandec, 1

.set httpd_recv.locnoglobalaccess, 1

.set httpd_recv.locnointerfaceaccess, 1

.set httpd_recv.locnonotificationselect, 1

.set httpd_handle_event.locnoside, 1

.set httpd_handle_event.locnochandec, 1

.set httpd_handle_event.locnoglobalaccess, 1

.set httpd_handle_event.locnointerfaceaccess, 1

.set httpd_handle_event.locnonotificationselect, 1

.set httpd_init.locnoside, 1

.set httpd_init.locnochandec, 1

.set httpd_init.locnoglobalaccess, 1

.set httpd_init.locnointerfaceaccess, 1

.set httpd_init.locnonotificationselect, 1


	.file	1 "/home/vdelacruz/Documents/Ethernet sin mii/app_simple_webserver/.build_IPV4/../src/httpd.c"
	.file	2 "/home/vdelacruz/Documents/Ethernet sin mii/module_xtcp/src/xtcp_client.h"
	.text
.Ltext_begin:
	.section	.dp.data,"awd",@progbits
	.text
	.cc_top httpd_free_state.function
	.globl	httpd_free_state
	.align	4
	.type	httpd_free_state,@function
httpd_free_state:
.Ltmp4:
	.cfi_startproc
.Lfunc_begin0:
	.loc	1 175 0
	entsp 3
.Ltmp5:
	.cfi_def_cfa_offset 12
.Ltmp6:
	.cfi_offset 15, 0
	.loc	1 174 0 prologue_end
.Ltmp7:
	stw r4, sp[2]
.Ltmp8:
	.cfi_offset 4, -4
	stw r5, sp[1]
.Ltmp9:
	.cfi_offset 5, -8
	stw r6, sp[0]
.Ltmp10:
	.cfi_offset 6, -12
	ldc r1, 0
.Ltmp11:
	ldc r2, 20
	.loc	1 180 0
.Ltmp12:
	ldaw r3, dp[connection_states]
	mov r11, r1
.LBB0_1:
	mul r4, r11, r2
	add r4, r3, r4
	ldw r5, r4[1]
	ldw r6, r0[0]
	eq r5, r5, r6
	bf r5, .LBB0_3
	.loc	1 182 0
	stw r1, r4[0]
.LBB0_3:
.Ltmp13:
.xtaloop 10
	# LOOPMARKER 0
	.loc	1 178 0
	add r11, r11, 1
.Ltmp14:
	eq r4, r11, 10
	bf r4, .LBB0_1
.Ltmp15:
	.loc	1 185 0
	ldw r6, sp[0]
	ldw r5, sp[1]
	ldw r4, sp[2]
	retsp 3
.Ltmp16:
.Ltmp17:
	.size	httpd_free_state, .Ltmp17-httpd_free_state
.Lfunc_end0:
.Ltmp18:
	.cfi_endproc
.Leh_func_end0:

	.align	4
	.cc_bottom httpd_free_state.function
	.set	httpd_free_state.nstackwords,3
	.globl	httpd_free_state.nstackwords
	.set	httpd_free_state.maxcores,1
	.globl	httpd_free_state.maxcores
	.set	httpd_free_state.maxtimers,0
	.globl	httpd_free_state.maxtimers
	.set	httpd_free_state.maxchanends,0
	.globl	httpd_free_state.maxchanends
	.cc_top httpd_init_state.function
	.globl	httpd_init_state
	.align	4
	.type	httpd_init_state,@function
httpd_init_state:
.Ltmp23:
	.cfi_startproc
.Lfunc_begin1:
	.loc	1 144 0
	entsp 4
.Ltmp24:
	.cfi_def_cfa_offset 16
.Ltmp25:
	.cfi_offset 15, 0
	.loc	1 143 0 prologue_end
.Ltmp26:
	stw r4, sp[3]
.Ltmp27:
	.cfi_offset 4, -4
	stw r5, sp[2]
.Ltmp28:
	.cfi_offset 5, -8
	stw r6, sp[1]
.Ltmp29:
	.cfi_offset 6, -12
	ldc r2, 0
.Ltmp30:
	ldc r4, 10
	ldc r11, 20
	.loc	1 150 0
.Ltmp31:
	ldaw r3, dp[connection_states]
	bu .LBB1_3
.LBB1_1:
	mul r5, r2, r11
	add r5, r3, r5
	ldw r6, r5[0]
	bf r6, .LBB1_6
	.loc	1 148 0
	add r2, r2, 1
.Ltmp32:
.LBB1_3:
	lss r5, r2, r4
	bt r5, .LBB1_1
	.loc	1 155 0
	eq r4, r2, 10
	bt r4, .LBB1_8
	.loc	1 162 0
	mul r4, r2, r11
	add r5, r3, r4
.LBB1_6:
.Ltmp33:
	mkmsk r4, 1
	stw r4, r5[0]
	.loc	1 163 0
	mul r2, r2, r11
	add r2, r3, r2
	ldw r3, r1[0]
	stw r3, r2[1]
	ldc r3, 0
	.loc	1 164 0
	stw r3, r2[2]
	.loc	1 165 0
	bl xtcp_set_connection_appstate
.Ltmp34:
.LBB1_7:
	.loc	1 170 0
	ldw r6, sp[1]
	ldw r5, sp[2]
	ldw r4, sp[3]
	retsp 4
.LBB1_8:
.Ltmp35:
	.loc	1 157 0
	bl xtcp_abort
.Ltmp36:
	bu .LBB1_7
.Ltmp37:
.Ltmp38:
	.size	httpd_init_state, .Ltmp38-httpd_init_state
.Lfunc_end1:
	.file	3 "/home/vdelacruz/XMOS/xTIMEcomposer/Community_13.1.0//target/include/xccompat.h"
.Ltmp39:
	.cfi_endproc
.Leh_func_end1:

	.align	4
	.cc_bottom httpd_init_state.function
	.set	httpd_init_state.nstackwords,((xtcp_set_connection_appstate.nstackwords $M xtcp_abort.nstackwords) + 4)
	.globl	httpd_init_state.nstackwords
	.set	httpd_init_state.maxcores,xtcp_abort.maxcores $M xtcp_set_connection_appstate.maxcores $M 1
	.globl	httpd_init_state.maxcores
	.set	httpd_init_state.maxtimers,xtcp_abort.maxtimers $M xtcp_set_connection_appstate.maxtimers $M 0
	.globl	httpd_init_state.maxtimers
	.set	httpd_init_state.maxchanends,xtcp_abort.maxchanends $M xtcp_set_connection_appstate.maxchanends $M 0
	.globl	httpd_init_state.maxchanends
	.cc_top httpd_send.function
	.globl	httpd_send
	.align	4
	.type	httpd_send,@function
httpd_send:
.Ltmp44:
	.cfi_startproc
.Lfunc_begin2:
	.loc	1 107 0
	entsp 4
.Ltmp45:
	.cfi_def_cfa_offset 16
.Ltmp46:
	.cfi_offset 15, 0
	.loc	1 106 0 prologue_end
.Ltmp47:
	stw r4, sp[3]
.Ltmp48:
	.cfi_offset 4, -4
	stw r5, sp[2]
.Ltmp49:
	.cfi_offset 5, -8
	stw r6, sp[1]
.Ltmp50:
	.cfi_offset 6, -12
	mov r5, r1
.Ltmp51:
	mov r4, r0
.Ltmp52:
	.loc	1 108 0
	ldw r6, r5[4]
	.loc	1 111 0
	ldw r0, r5[3]
	eq r0, r0, 4
	bf r0, .LBB2_2
.Ltmp53:
	.loc	1 112 0
	ldw r1, r6[4]
	ldw r0, r6[2]
	sub r2, r0, r1
	mov r0, r4
	bl xtcp_send
	bu .LBB2_8
.LBB2_2:
.Ltmp54:
	.loc	1 117 0
	ldw r0, r6[3]
.Ltmp55:
	bf r0, .LBB2_4
.Ltmp56:
	ldw r1, r6[2]
	bt r1, .LBB2_5
.LBB2_4:
.Ltmp57:
	ldc r2, 0
	.loc	2 511 0
.Ltmp58:
	mov r0, r4
	mov r1, r2
	bl xtcp_send
.Ltmp59:
	.loc	1 122 0
	mov r0, r4
	mov r1, r5
	bl xtcp_close
	bu .LBB2_8
.Ltmp60:
.LBB2_5:
	.loc	1 128 0
	ldw r5, r5[8]
.Ltmp61:
	lsu r2, r5, r0
	bt r2, .LBB2_7
.Ltmp62:
	mov r5, r0
.LBB2_7:
.Ltmp63:
	.loc	1 131 0
	mov r0, r4
	mov r2, r5
	bl xtcp_send
	.loc	1 133 0
	ldw r0, r6[2]
	stw r0, r6[4]
	.loc	1 134 0
	add r0, r0, r5
	stw r0, r6[2]
	.loc	1 135 0
	ldw r0, r6[3]
	sub r0, r0, r5
	stw r0, r6[3]
.Ltmp64:
.LBB2_8:
	.loc	1 113 0
	ldw r6, sp[1]
	ldw r5, sp[2]
	ldw r4, sp[3]
	retsp 4
.Ltmp65:
.Ltmp66:
	.size	httpd_send, .Ltmp66-httpd_send
.Lfunc_end2:
.Ltmp67:
	.cfi_endproc
.Leh_func_end2:

	.align	4
	.cc_bottom httpd_send.function
	.set	httpd_send.nstackwords,((xtcp_close.nstackwords $M xtcp_send.nstackwords) + 4)
	.globl	httpd_send.nstackwords
	.set	httpd_send.maxcores,xtcp_close.maxcores $M xtcp_send.maxcores $M 1
	.globl	httpd_send.maxcores
	.set	httpd_send.maxtimers,xtcp_close.maxtimers $M xtcp_send.maxtimers $M 0
	.globl	httpd_send.maxtimers
	.set	httpd_send.maxchanends,xtcp_close.maxchanends $M xtcp_send.maxchanends $M 0
	.globl	httpd_send.maxchanends
	.cc_top parse_http_request.function
	.globl	parse_http_request
	.align	4
	.type	parse_http_request,@function
parse_http_request:
.Ltmp70:
	.cfi_startproc
.Lfunc_begin3:
	.loc	1 53 0
	entsp 2
.Ltmp71:
	.cfi_def_cfa_offset 8
.Ltmp72:
	.cfi_offset 15, 0
	.loc	1 52 0 prologue_end
.Ltmp73:
	stw r4, sp[1]
.Ltmp74:
	.cfi_offset 4, -4
	mov r4, r0
.Ltmp75:
	.loc	1 55 0
	ldw r0, r4[2]
	bt r0, .LBB3_3
.Ltmp76:
	.loc	1 61 0
	ldaw r3, dp[.L.str]
	ldc r2, 4
.Ltmp77:
	mov r0, r1
	mov r1, r3
.Ltmp78:
	bl strncmp
	bt r0, .LBB3_3
.Ltmp79:
	.loc	1 64 0
	ldaw r0, dp[page]
	stw r0, r4[2]
	.loc	1 65 0
	bl strlen
.Ltmp80:
	stw r0, r4[3]
.Ltmp81:
.LBB3_3:
	.loc	1 57 0
	ldw r4, sp[1]
	retsp 2
.Ltmp82:
.Ltmp83:
	.size	parse_http_request, .Ltmp83-parse_http_request
.Lfunc_end3:
.Ltmp84:
	.cfi_endproc
.Leh_func_end3:

	.align	4
	.cc_bottom parse_http_request.function
	.set	parse_http_request.nstackwords,((strncmp.nstackwords $M strlen.nstackwords) + 2)
	.globl	parse_http_request.nstackwords
	.set	parse_http_request.maxcores,strlen.maxcores $M strncmp.maxcores $M 1
	.globl	parse_http_request.maxcores
	.set	parse_http_request.maxtimers,strlen.maxtimers $M strncmp.maxtimers $M 0
	.globl	parse_http_request.maxtimers
	.set	parse_http_request.maxchanends,strlen.maxchanends $M strncmp.maxchanends $M 0
	.globl	parse_http_request.maxchanends
	.cc_top httpd_recv.function
	.globl	httpd_recv
	.align	4
	.type	httpd_recv,@function
httpd_recv:
.Ltmp89:
	.cfi_startproc
.Lfunc_begin4:
	.loc	1 76 0
	entsp 372
.Ltmp90:
	.cfi_def_cfa_offset 1488
.Ltmp91:
	.cfi_offset 15, 0
	.loc	1 75 0 prologue_end
.Ltmp92:
	stw r4, sp[371]
.Ltmp93:
	.cfi_offset 4, -4
	stw r5, sp[370]
.Ltmp94:
	.cfi_offset 5, -8
	stw r6, sp[369]
.Ltmp95:
	.cfi_offset 6, -12
	mov r4, r1
.Ltmp96:
	mov r5, r0
.Ltmp97:
	.loc	1 77 0
	ldw r6, r4[4]
	ldaw r1, sp[1]
	.loc	1 82 0
	mov r0, r5
	bl xtcp_recv
	.loc	1 85 0
	bf r6, .LBB4_4
	ldw r0, r6[2]
	bt r0, .LBB4_4
	ldaw r1, sp[1]
	.loc	1 91 0
	mov r0, r6
	bl parse_http_request
	.loc	1 94 0
	ldw r0, r6[2]
	bf r0, .LBB4_4
.Ltmp98:
	.loc	1 99 0
	mov r0, r5
	mov r1, r4
	bl xtcp_init_send
.Ltmp99:
.LBB4_4:
	.loc	1 87 0
	ldw r6, sp[369]
	ldw r5, sp[370]
	ldw r4, sp[371]
	retsp 372
.Ltmp100:
.Ltmp101:
	.size	httpd_recv, .Ltmp101-httpd_recv
.Lfunc_end4:
.Ltmp102:
	.cfi_endproc
.Leh_func_end4:

	.align	4
	.cc_bottom httpd_recv.function
	.set	httpd_recv.nstackwords,((xtcp_recv.nstackwords $M parse_http_request.nstackwords $M xtcp_init_send.nstackwords) + 372)
	.globl	httpd_recv.nstackwords
	.set	httpd_recv.maxcores,parse_http_request.maxcores $M xtcp_init_send.maxcores $M xtcp_recv.maxcores $M 1
	.globl	httpd_recv.maxcores
	.set	httpd_recv.maxtimers,parse_http_request.maxtimers $M xtcp_init_send.maxtimers $M xtcp_recv.maxtimers $M 0
	.globl	httpd_recv.maxtimers
	.set	httpd_recv.maxchanends,parse_http_request.maxchanends $M xtcp_init_send.maxchanends $M xtcp_recv.maxchanends $M 0
	.globl	httpd_recv.maxchanends
	.cc_top httpd_handle_event.function
	.globl	httpd_handle_event
	.align	4
	.type	httpd_handle_event,@function
httpd_handle_event:
.Ltmp109:
	.cfi_startproc
.Lfunc_begin5:
	.loc	1 191 0
	entsp 9
.Ltmp110:
	.cfi_def_cfa_offset 36
.Ltmp111:
	.cfi_offset 15, 0
	.loc	1 190 0 prologue_end
.Ltmp112:
	stw r4, sp[8]
.Ltmp113:
	.cfi_offset 4, -4
	stw r5, sp[7]
.Ltmp114:
	.cfi_offset 5, -8
	stw r6, sp[6]
.Ltmp115:
	.cfi_offset 6, -12
	stw r7, sp[5]
.Ltmp116:
	.cfi_offset 7, -16
	stw r8, sp[4]
.Ltmp117:
	.cfi_offset 8, -20
	mov r4, r1
.Ltmp118:
	.loc	1 196 0
	ldw r1, r4[3]
	sub r2, r1, 10
	ldc r6, 2
	lsu r2, r2, r6
	bt r2, .LBB5_14
	eq r2, r1, 9
	bf r2, .LBB5_3
.Ltmp119:
	ldaw r4, sp[1]
	.loc	1 200 0
.Ltmp120:
	mov r1, r4
	bl xtcp_get_ipconfig
.Ltmp121:
	.loc	1 225 0
	ldaw r0, dp[.L.str1]
	bl printstr
	.loc	1 229 0
	ldc r7, 0
	.loc	1 226 0
	ld8u r0, r4[r7]
	bl printint
	mkmsk r0, 1
	.loc	1 227 0
	or r8, r4, r0
	.loc	1 226 0
	ldaw r5, dp[.L.str2]
	mov r0, r5
	bl printstr
	.loc	1 227 0
	ld8u r0, r8[r7]
	bl printint
	.loc	1 228 0
	or r6, r4, r6
	.loc	1 227 0
	mov r0, r5
	bl printstr
	.loc	1 228 0
	ld8u r0, r6[r7]
	bl printint
	mkmsk r0, 2
	.loc	1 229 0
	or r4, r4, r0
	.loc	1 228 0
	mov r0, r5
	bl printstr
	.loc	1 229 0
	ld8u r0, r4[r7]
	bl printint
	ldaw r0, dp[.L.str3]
	bl printstr
	bu .LBB5_14
.Ltmp122:
.LBB5_3:
	.loc	1 241 0
	ldw r2, r4[7]
	ldc r3, 80
	eq r2, r2, r3
	bf r2, .LBB5_14
	mkmsk r2, 3
	.loc	1 242 0
	lsu r2, r2, r1
	bt r2, .LBB5_13
	
	.xtabranch .Ljumptable0+2,.Ljumptable0+4,.Ljumptable0+6,.Ljumptable0+8,.Ljumptable0+10,.Ljumptable0+12,.Ljumptable0+14,.Ljumptable0+16
.Ljumptable0:
		bru r1
	.jmptable .LBB5_6,.LBB5_7,.LBB5_8,.LBB5_8,.LBB5_8,.LBB5_9,.LBB5_9,.LBB5_9
.LBB5_6:
.Ltmp123:
	.loc	1 245 0
	mov r1, r4
	bl httpd_init_state
.Ltmp124:
	bu .LBB5_13
.LBB5_7:
.Ltmp125:
	.loc	1 248 0
	mov r1, r4
	bl httpd_recv
.Ltmp126:
	bu .LBB5_13
.LBB5_8:
.Ltmp127:
	.loc	1 253 0
	mov r1, r4
	bl httpd_send
.Ltmp128:
	bu .LBB5_13
.LBB5_9:
	ldc r0, 0
.Ltmp129:
	ldc r1, 20
	.loc	1 180 0
.Ltmp130:
	ldaw r2, dp[connection_states]
	mov r3, r0
.LBB5_10:
.Ltmp131:
	mul r11, r3, r1
	add r11, r2, r11
	ldw r5, r11[1]
	ldw r6, r4[0]
	eq r5, r5, r6
	bf r5, .LBB5_12
	.loc	1 182 0
	stw r0, r11[0]
.LBB5_12:
.Ltmp132:
.xtaloop 10
	# LOOPMARKER 0
	.loc	1 178 0
	add r3, r3, 1
.Ltmp133:
	eq r11, r3, 10
	bf r11, .LBB5_10
.Ltmp134:
.LBB5_13:
	ldc r0, 11
	.loc	1 264 0
	stw r0, r4[3]
.Ltmp135:
.LBB5_14:
	.loc	1 232 0
	ldw r8, sp[4]
	ldw r7, sp[5]
	ldw r6, sp[6]
	ldw r5, sp[7]
	ldw r4, sp[8]
	retsp 9
.Ltmp136:
.Ltmp137:
	.size	httpd_handle_event, .Ltmp137-httpd_handle_event
.Lfunc_end5:
.Ltmp138:
	.cfi_endproc
.Leh_func_end5:

	.align	4
	.cc_bottom httpd_handle_event.function
	.set	httpd_handle_event.nstackwords,((xtcp_get_ipconfig.nstackwords $M printint.nstackwords $M printstr.nstackwords $M httpd_init_state.nstackwords $M httpd_recv.nstackwords $M httpd_send.nstackwords) + 9)
	.globl	httpd_handle_event.nstackwords
	.set	httpd_handle_event.maxcores,httpd_init_state.maxcores $M httpd_recv.maxcores $M httpd_send.maxcores $M printint.maxcores $M printstr.maxcores $M xtcp_get_ipconfig.maxcores $M 1
	.globl	httpd_handle_event.maxcores
	.set	httpd_handle_event.maxtimers,httpd_init_state.maxtimers $M httpd_recv.maxtimers $M httpd_send.maxtimers $M printint.maxtimers $M printstr.maxtimers $M xtcp_get_ipconfig.maxtimers $M 0
	.globl	httpd_handle_event.maxtimers
	.set	httpd_handle_event.maxchanends,httpd_init_state.maxchanends $M httpd_recv.maxchanends $M httpd_send.maxchanends $M printint.maxchanends $M printstr.maxchanends $M xtcp_get_ipconfig.maxchanends $M 0
	.globl	httpd_handle_event.maxchanends
	.cc_top httpd_init.function
	.globl	httpd_init
	.align	4
	.type	httpd_init,@function
httpd_init:
.Ltmp141:
	.cfi_startproc
.Lfunc_begin6:
	.loc	1 38 0
	entsp 2
.Ltmp142:
	.cfi_def_cfa_offset 8
.Ltmp143:
	.cfi_offset 15, 0
	.loc	1 37 0 prologue_end
.Ltmp144:
	stw r4, sp[1]
.Ltmp145:
	.cfi_offset 4, -4
	ldc r1, 80
	ldc r4, 0
	.loc	1 41 0
.Ltmp146:
	mov r2, r4
	bl xtcp_listen
.Ltmp147:
	ldc r0, 20
	.loc	1 45 0
	ldaw r1, dp[connection_states]
	mov r2, r4
.LBB6_1:
	mul r3, r2, r0
	add r3, r1, r3
	stw r4, r3[0]
	.loc	1 46 0
	stw r4, r3[2]
.xtaloop 10
	# LOOPMARKER 0
	.loc	1 43 0
	add r2, r2, 1
.Ltmp148:
	eq r3, r2, 10
	bf r3, .LBB6_1
.Ltmp149:
	.loc	1 48 0
	ldw r4, sp[1]
	retsp 2
.Ltmp150:
.Ltmp151:
	.size	httpd_init, .Ltmp151-httpd_init
.Lfunc_end6:
.Ltmp152:
	.cfi_endproc
.Leh_func_end6:

	.align	4
	.cc_bottom httpd_init.function
	.set	httpd_init.nstackwords,(xtcp_listen.nstackwords + 2)
	.globl	httpd_init.nstackwords
	.set	httpd_init.maxcores,xtcp_listen.maxcores $M 1
	.globl	httpd_init.maxcores
	.set	httpd_init.maxtimers,xtcp_listen.maxtimers $M 0
	.globl	httpd_init.maxtimers
	.set	httpd_init.maxchanends,xtcp_listen.maxchanends $M 0
	.globl	httpd_init.maxchanends
	.section	.dp.data,"awd",@progbits
	.cc_top page.data
	.globl	page.globound
	.set	page.globound,174
	.globl	page
	.align	4
	.type	page,@object
	.size page,174
page:
.asciiz "HTTP/1.0 200 OK\nServer: xc2/pre-1.0 (http://xmos.com)\nContent-type: text/html\n\n<!DOCTYPE html>\n<html><head><title>Hello world</title></head>\n<body>Hello World!</body></html>"
	.cc_bottom page.data
	.section	.dp.bss,"awd",@nobits
	.cc_top connection_states.data
	.globl	connection_states.globound
	.set	connection_states.globound,10
	.globl	connection_states
	.align	4
	.type	connection_states,@object
	.size connection_states,200
connection_states:
	.space	200
	.cc_bottom connection_states.data
	.section	.dp.rodata,"awd",@progbits
	.cc_top .L.str.data
	.align	4
	.type	.L.str,@object
	.size .L.str,5
.L.str:
.asciiz "GET "
	.cc_bottom .L.str.data
	.cc_top .L.str1.data
	.align	4
	.type	.L.str1,@object
	.size .L.str1,13
.L.str1:
.asciiz "IP Address: "
	.cc_bottom .L.str1.data
	.cc_top .L.str2.data
	.align	4
	.type	.L.str2,@object
	.size .L.str2,2
.L.str2:
.asciiz "."
	.space	2
	.cc_bottom .L.str2.data
	.cc_top .L.str3.data
	.align	4
	.type	.L.str3,@object
	.size .L.str3,2
.L.str3:
.asciiz "\n"
	.space	2
	.cc_bottom .L.str3.data
	.cfi_sections .debug_frame
	.text
.Ltext_end:
	.section	.dp.data,"awd",@progbits
.Ldata_end:
	.text
.Lsection_end1: