	.file	"/home/vdelacruz/Documents/Ethernet 2 Ports/module_ethernet/src/lite/mii_client_lite.xc"

	.inline_definition delay_seconds
	.inline_definition delay_milliseconds
	.inline_definition delay_microseconds
	.set usage.anon.0,0
	.set usage.anon.1,0
	.set usage.anon.2,0
	.call mac_rx_lite,safe_mac_rx_lite
	.call usage.anon.2,delay_ticks_longlong
	.call usage.anon.1,delay_ticks_longlong
	.call usage.anon.0,delay_ticks_longlong
	.set usage.anon.0.locnoside, 1
	.set usage.anon.1.locnoside, 1
	.set usage.anon.2.locnoside, 1
	.set mac_set_custom_filter_lite.locnoside, 1
	.set usage.anon.0.locnochandec, 1
	.set usage.anon.1.locnochandec, 1
	.set usage.anon.2.locnochandec, 1
	.set safe_mac_rx_lite.locnochandec, 1
	.set mac_rx_lite.locnochandec, 1
	.set mac_set_custom_filter_lite.locnochandec, 1
	.set mac_tx_lite.locnochandec, 1
	.set usage.anon.0.locnoglobalaccess, 1
	.set usage.anon.1.locnoglobalaccess, 1
	.set usage.anon.2.locnoglobalaccess, 1
	.set safe_mac_rx_lite.locnoglobalaccess, 1
	.set mac_rx_lite.locnoglobalaccess, 1
	.set mac_set_custom_filter_lite.locnoglobalaccess, 1
	.set mac_tx_lite.locnoglobalaccess, 1
	.set usage.anon.0.locnointerfaceaccess, 1
	.set usage.anon.1.locnointerfaceaccess, 1
	.set usage.anon.2.locnointerfaceaccess, 1
	.set safe_mac_rx_lite.locnointerfaceaccess, 1
	.set mac_rx_lite.locnointerfaceaccess, 1
	.set mac_set_custom_filter_lite.locnointerfaceaccess, 1
	.set mac_tx_lite.locnointerfaceaccess, 1
	.set usage.anon.0.locnonotificationselect, 1
	.set usage.anon.1.locnonotificationselect, 1
	.set usage.anon.2.locnonotificationselect, 1
	.set safe_mac_rx_lite.locnonotificationselect, 1
	.set mac_rx_lite.locnonotificationselect, 1
	.set mac_set_custom_filter_lite.locnonotificationselect, 1
	.set mac_tx_lite.locnonotificationselect, 1


	.file	1 "/home/vdelacruz/Documents/Ethernet 2 Ports/module_ethernet/src/lite/mii_client_lite.xc"
	.file	2 "/home/vdelacruz/Documents/Ethernet 2 Ports/app_simple_webserver/.build_IPV4/timer.h"
	.text
.Ltext_begin:
	.section	.dp.data,"awd",@progbits
	.text
	.cc_top mac_rx_lite.function
	.globl	mac_rx_lite
	.align	4
	.type	mac_rx_lite,@function
mac_rx_lite:
.Ltmp1:
	.cfi_startproc
.Lfunc_begin0:
	.loc	1 35 0
.Lxtalabel0:
	entsp 3
.Ltmp2:
	.cfi_def_cfa_offset 12
.Ltmp3:
	.cfi_offset 15, 0
	ldw r11, sp[4]
	.loc	1 36 0 prologue_end
.Ltmp4:
	stw r11, sp[2]
	stw r0, sp[1]
.Lxta.call_labels0:
	bl safe_mac_rx_lite
.Ltmp5:
	retsp 3
.Ltmp6:
.Ltmp7:
	.size	mac_rx_lite, .Ltmp7-mac_rx_lite
.Lfunc_end0:
.Ltmp8:
	.cfi_endproc
.Leh_func_end0:

	.align	4
	.cc_bottom mac_rx_lite.function
	.set	mac_rx_lite.nstackwords,(safe_mac_rx_lite.nstackwords + 3)
	.globl	mac_rx_lite.nstackwords
	.set	mac_rx_lite.maxcores,safe_mac_rx_lite.maxcores $M 1
	.globl	mac_rx_lite.maxcores
	.set	mac_rx_lite.maxtimers,safe_mac_rx_lite.maxtimers $M 0
	.globl	mac_rx_lite.maxtimers
	.set	mac_rx_lite.maxchanends,safe_mac_rx_lite.maxchanends $M 0
	.globl	mac_rx_lite.maxchanends
	.cc_top safe_mac_rx_lite.function
	.globl	safe_mac_rx_lite
	.align	4
	.type	safe_mac_rx_lite,@function
safe_mac_rx_lite:
.Ltmp13:
	.cfi_startproc
.Lfunc_begin1:
	.loc	1 12 0
.Lxtalabel1:
	entsp 3
.Ltmp14:
	.cfi_def_cfa_offset 12
.Ltmp15:
	.cfi_offset 15, 0
	.loc	1 8 0 prologue_end
.Ltmp16:
	stw r4, sp[2]
.Ltmp17:
	.cfi_offset 4, -4
	stw r5, sp[1]
.Ltmp18:
	.cfi_offset 5, -8
	stw r6, sp[0]
.Ltmp19:
	.cfi_offset 6, -12
	.loc	1 13 0
.Ltmp20:
.Lxta.endpoint_labels0:
	in r11, res[r0]
	.loc	1 13 0
	stw r11, r2[0]
	.loc	1 14 0
	outct res[r0], 1
	chkct res[r0], 1
	ldc r2, 0
.Ltmp21:
	.loc	1 14 0
.Lxta.endpoint_labels1:
	out res[r0], r2
	mkmsk r4, 32
	.loc	1 16 0
	eq r5, r11, r4
	.loc	1 14 0
	outct res[r0], 1
	chkct res[r0], 1
	ldw r4, sp[5]
	.loc	1 16 0
	bf r5, .LBB1_2
.Lxtalabel2:
	.loc	1 18 0
.Ltmp22:
	chkct res[r0], 1
	outct res[r0], 1
	.loc	1 18 0
.Lxta.endpoint_labels2:
	in r2, res[r0]
.Ltmp23:
	.loc	1 18 0
	chkct res[r0], 1
	outct res[r0], 1
	.loc	1 19 0
	ecallf r4
.Ltmp24:
	ldc r11, 0
	st8 r2, r1[r11]
	.loc	1 20 0
	chkct res[r0], 1
	outct res[r0], 1
	.loc	1 20 0
.Lxta.endpoint_labels3:
	in r1, res[r0]
.Ltmp25:
	.loc	1 20 0
	stw r1, r3[0]
	chkct res[r0], 1
	outct res[r0], 1
	bu .LBB1_6
.Ltmp26:
.LBB1_2:
.Lxtalabel3:
	.loc	1 23 0
	add r11, r11, 3
	ldc r5, 4
	lsu r5, r11, r5
	bt r5, .LBB1_5
	.loc	1 24 0
	shr r4, r4, 2
	mov r5, r2
.LBB1_4:
.Lxtalabel4:
	lsu r6, r5, r4
	chkct res[r0], 1
	outct res[r0], 1
	ecallf r6
.Ltmp27:
	.loc	1 24 0
.Lxta.endpoint_labels4:
	in r6, res[r0]
	.loc	1 24 0
	stw r6, r1[r5]
	.loc	1 23 0
	shr r6, r11, 2
	add r5, r5, 1
	lsu r6, r5, r6
	.loc	1 24 0
	chkct res[r0], 1
	outct res[r0], 1
.Lxta.loop_labels0:
	# LOOPMARKER 0
	.loc	1 23 0
	bt r6, .LBB1_4
.Ltmp28:
.LBB1_5:
.Lxtalabel5:
	.loc	1 26 0
	stw r2, r3[0]
.Ltmp29:
.LBB1_6:
.Lxtalabel6:
	ldw r6, sp[0]
	ldw r5, sp[1]
	ldw r4, sp[2]
	retsp 3
.Ltmp30:
	.size	safe_mac_rx_lite, .Ltmp30-safe_mac_rx_lite
.Lfunc_end1:
.Ltmp31:
	.cfi_endproc
.Leh_func_end1:

	.align	4
	.cc_bottom safe_mac_rx_lite.function
	.set	safe_mac_rx_lite.nstackwords,3
	.globl	safe_mac_rx_lite.nstackwords
	.set	safe_mac_rx_lite.maxcores,1
	.globl	safe_mac_rx_lite.maxcores
	.set	safe_mac_rx_lite.maxtimers,0
	.globl	safe_mac_rx_lite.maxtimers
	.set	safe_mac_rx_lite.maxchanends,0
	.globl	safe_mac_rx_lite.maxchanends
	.cc_top mac_tx_lite.function
	.globl	mac_tx_lite
	.align	4
	.type	mac_tx_lite,@function
mac_tx_lite:
.Ltmp34:
	.cfi_startproc
.Lfunc_begin2:
	.loc	1 42 0
.Lxtalabel7:
	entsp 1
.Ltmp35:
	.cfi_def_cfa_offset 4
.Ltmp36:
	.cfi_offset 15, 0
	.loc	1 42 0 prologue_end
.Ltmp37:
	stw r4, sp[0]
.Ltmp38:
	.cfi_offset 4, -4
	.loc	1 43 0
.Ltmp39:
	outct res[r0], 1
	chkct res[r0], 1
	.loc	1 43 0
.Lxta.endpoint_labels5:
	out res[r0], r2
	.loc	1 44 0
.Ltmp40:
	add r2, r2, 3
.Ltmp41:
	ashr r2, r2, 2
	mkmsk r3, 1
.Ltmp42:
	lss r3, r2, r3
.Ltmp43:
	.loc	1 43 0
	outct res[r0], 1
	chkct res[r0], 1
	.loc	1 44 0
.Ltmp44:
	bt r3, .LBB2_3
.Ltmp45:
	ldc r3, 0
.Ltmp46:
	ldw r11, sp[2]
.LBB2_2:
.Lxtalabel8:
.Ltmp47:
	.loc	1 45 0
	lsu r4, r3, r11
	ecallf r4
.Ltmp48:
	ldw r4, r1[r3]
	outct res[r0], 1
	chkct res[r0], 1
	.loc	1 45 0
.Lxta.endpoint_labels6:
	out res[r0], r4
	.loc	1 44 0
	add r3, r3, 1
.Ltmp49:
	lss r4, r3, r2
	.loc	1 45 0
	outct res[r0], 1
	chkct res[r0], 1
.Lxta.loop_labels1:
	# LOOPMARKER 0
	.loc	1 44 0
	bt r4, .LBB2_2
.Ltmp50:
.LBB2_3:
.Lxtalabel9:
	ldw r4, sp[0]
	retsp 1
.Ltmp51:
.Ltmp52:
	.size	mac_tx_lite, .Ltmp52-mac_tx_lite
.Lfunc_end2:
.Ltmp53:
	.cfi_endproc
.Leh_func_end2:

	.align	4
	.cc_bottom mac_tx_lite.function
	.set	mac_tx_lite.nstackwords,1
	.globl	mac_tx_lite.nstackwords
	.set	mac_tx_lite.maxcores,1
	.globl	mac_tx_lite.maxcores
	.set	mac_tx_lite.maxtimers,0
	.globl	mac_tx_lite.maxtimers
	.set	mac_tx_lite.maxchanends,0
	.globl	mac_tx_lite.maxchanends
	.cc_top mac_set_custom_filter_lite.function
	.globl	mac_set_custom_filter_lite
	.align	4
	.type	mac_set_custom_filter_lite,@function
mac_set_custom_filter_lite:
.Ltmp54:
	.cfi_startproc
.Lxtalabel10:
	retsp 0
.Ltmp55:
	.size	mac_set_custom_filter_lite, .Ltmp55-mac_set_custom_filter_lite
.Ltmp56:
	.cfi_endproc
.Leh_func_end3:

	.align	4
	.cc_bottom mac_set_custom_filter_lite.function
	.set	mac_set_custom_filter_lite.nstackwords,0
	.globl	mac_set_custom_filter_lite.nstackwords
	.set	mac_set_custom_filter_lite.maxcores,1
	.globl	mac_set_custom_filter_lite.maxcores
	.set	mac_set_custom_filter_lite.maxtimers,0
	.globl	mac_set_custom_filter_lite.maxtimers
	.set	mac_set_custom_filter_lite.maxchanends,0
	.globl	mac_set_custom_filter_lite.maxchanends
	.cfi_sections .debug_frame
.Ltext_end:
	.section	.dp.data,"awd",@progbits
.Ldata_end:
	.text
.Lsection_end1:
	.section	.xtacalltable,"",@progbits
.Lentries_start0:
	.long	.Lentries_end1-.Lentries_start0
	.long	0
	.ascii	 "/home/vdelacruz/Documents/Ethernet 2 Ports/app_simple_webserver/.build_IPV4"
	.byte	0
.cc_top cc_0,.Lxta.call_labels0
	.ascii	 "/home/vdelacruz/Documents/Ethernet 2 Ports/module_ethernet/src/lite/mii_client_lite.xc"
	.byte	0
	.long	36
	.long	.Lxta.call_labels0
.cc_bottom cc_0
.Lentries_end1:
	.section	.xtaendpointtable,"",@progbits
.Lentries_start2:
	.long	.Lentries_end3-.Lentries_start2
	.long	0
	.ascii	 "/home/vdelacruz/Documents/Ethernet 2 Ports/app_simple_webserver/.build_IPV4"
	.byte	0
.cc_top cc_1,.Lxta.endpoint_labels0
	.ascii	 "/home/vdelacruz/Documents/Ethernet 2 Ports/module_ethernet/src/lite/mii_client_lite.xc"
	.byte	0
	.long	13
	.long	.Lxta.endpoint_labels0
.cc_bottom cc_1
.cc_top cc_2,.Lxta.endpoint_labels1
	.ascii	 "/home/vdelacruz/Documents/Ethernet 2 Ports/module_ethernet/src/lite/mii_client_lite.xc"
	.byte	0
	.long	14
	.long	.Lxta.endpoint_labels1
.cc_bottom cc_2
.cc_top cc_3,.Lxta.endpoint_labels2
	.ascii	 "/home/vdelacruz/Documents/Ethernet 2 Ports/module_ethernet/src/lite/mii_client_lite.xc"
	.byte	0
	.long	18
	.long	.Lxta.endpoint_labels2
.cc_bottom cc_3
.cc_top cc_4,.Lxta.endpoint_labels3
	.ascii	 "/home/vdelacruz/Documents/Ethernet 2 Ports/module_ethernet/src/lite/mii_client_lite.xc"
	.byte	0
	.long	20
	.long	.Lxta.endpoint_labels3
.cc_bottom cc_4
.cc_top cc_5,.Lxta.endpoint_labels4
	.ascii	 "/home/vdelacruz/Documents/Ethernet 2 Ports/module_ethernet/src/lite/mii_client_lite.xc"
	.byte	0
	.long	24
	.long	.Lxta.endpoint_labels4
.cc_bottom cc_5
.cc_top cc_6,.Lxta.endpoint_labels5
	.ascii	 "/home/vdelacruz/Documents/Ethernet 2 Ports/module_ethernet/src/lite/mii_client_lite.xc"
	.byte	0
	.long	43
	.long	.Lxta.endpoint_labels5
.cc_bottom cc_6
.cc_top cc_7,.Lxta.endpoint_labels6
	.ascii	 "/home/vdelacruz/Documents/Ethernet 2 Ports/module_ethernet/src/lite/mii_client_lite.xc"
	.byte	0
	.long	45
	.long	.Lxta.endpoint_labels6
.cc_bottom cc_7
.Lentries_end3:
	.section	.xtalabeltable,"",@progbits
.Lentries_start4:
	.long	.Lentries_end5-.Lentries_start4
	.long	0
	.ascii	 "/home/vdelacruz/Documents/Ethernet 2 Ports/app_simple_webserver/.build_IPV4"
	.byte	0
.cc_top cc_8,.Lxtalabel1
	.ascii	 "/home/vdelacruz/Documents/Ethernet 2 Ports/module_ethernet/src/lite/mii_client_lite.xc"
	.byte	0
	.long	13
	.long	16
	.long	.Lxtalabel1
.cc_bottom cc_8
.cc_top cc_9,.Lxtalabel2
	.ascii	 "/home/vdelacruz/Documents/Ethernet 2 Ports/module_ethernet/src/lite/mii_client_lite.xc"
	.byte	0
	.long	17
	.long	21
	.long	.Lxtalabel2
.cc_bottom cc_9
.cc_top cc_10,.Lxtalabel3
	.ascii	 "/home/vdelacruz/Documents/Ethernet 2 Ports/module_ethernet/src/lite/mii_client_lite.xc"
	.byte	0
	.long	22
	.long	23
	.long	.Lxtalabel3
.cc_bottom cc_10
.cc_top cc_11,.Lxtalabel4
	.ascii	 "/home/vdelacruz/Documents/Ethernet 2 Ports/module_ethernet/src/lite/mii_client_lite.xc"
	.byte	0
	.long	24
	.long	25
	.long	.Lxtalabel4
.cc_bottom cc_11
.cc_top cc_12,.Lxtalabel5
	.ascii	 "/home/vdelacruz/Documents/Ethernet 2 Ports/module_ethernet/src/lite/mii_client_lite.xc"
	.byte	0
	.long	26
	.long	27
	.long	.Lxtalabel5
.cc_bottom cc_12
.cc_top cc_13,.Lxtalabel6
	.ascii	 "/home/vdelacruz/Documents/Ethernet 2 Ports/module_ethernet/src/lite/mii_client_lite.xc"
	.byte	0
	.long	28
	.long	28
	.long	.Lxtalabel6
.cc_bottom cc_13
.cc_top cc_14,.Lxtalabel0
	.ascii	 "/home/vdelacruz/Documents/Ethernet 2 Ports/module_ethernet/src/lite/mii_client_lite.xc"
	.byte	0
	.long	35
	.long	37
	.long	.Lxtalabel0
.cc_bottom cc_14
.cc_top cc_15,.Lxtalabel10
	.ascii	 "/home/vdelacruz/Documents/Ethernet 2 Ports/module_ethernet/src/lite/mii_client_lite.xc"
	.byte	0
	.long	40
	.long	40
	.long	.Lxtalabel10
.cc_bottom cc_15
.cc_top cc_16,.Lxtalabel7
	.ascii	 "/home/vdelacruz/Documents/Ethernet 2 Ports/module_ethernet/src/lite/mii_client_lite.xc"
	.byte	0
	.long	43
	.long	44
	.long	.Lxtalabel7
.cc_bottom cc_16
.cc_top cc_17,.Lxtalabel8
	.ascii	 "/home/vdelacruz/Documents/Ethernet 2 Ports/module_ethernet/src/lite/mii_client_lite.xc"
	.byte	0
	.long	45
	.long	46
	.long	.Lxtalabel8
.cc_bottom cc_17
.cc_top cc_18,.Lxtalabel9
	.ascii	 "/home/vdelacruz/Documents/Ethernet 2 Ports/module_ethernet/src/lite/mii_client_lite.xc"
	.byte	0
	.long	47
	.long	47
	.long	.Lxtalabel9
.cc_bottom cc_18
.Lentries_end5:
	.section	.xtalooplabeltable,"",@progbits
.Lentries_start6:
	.long	.Lentries_end7-.Lentries_start6
	.long	0
	.ascii	 "/home/vdelacruz/Documents/Ethernet 2 Ports/app_simple_webserver/.build_IPV4"
	.byte	0
.cc_top cc_19,.Lxta.loop_labels0
	.ascii	 "/home/vdelacruz/Documents/Ethernet 2 Ports/module_ethernet/src/lite/mii_client_lite.xc"
	.byte	0
	.long	24
	.long	25
	.long	.Lxta.loop_labels0
.cc_bottom cc_19
.cc_top cc_20,.Lxta.loop_labels1
	.ascii	 "/home/vdelacruz/Documents/Ethernet 2 Ports/module_ethernet/src/lite/mii_client_lite.xc"
	.byte	0
	.long	45
	.long	46
	.long	.Lxta.loop_labels1
.cc_bottom cc_20
.Lentries_end7:
