	.file	"/home/vdelacruz/Documents/Ethernet sin mii/module_ethernet/src/lite/mii_single_server.xc"

	.inline_definition delay_seconds
	.inline_definition delay_milliseconds
	.inline_definition delay_microseconds
	.set ethernet_server_lite.savedstate,13
	.globl ethernet_server_lite.savedstate
	.set usage.anon.0,0
	.set usage.anon.1,0
	.set usage.anon.2,0
	.set usage.anon.3,0
	.set usage.anon.4,0
	.globwrite usage.anon.3,usage.anon.4,"/home/vdelacruz/Documents/Ethernet sin mii/module_ethernet/src/lite/mii_single_server.xc:53: error: previously used here"
	.call ethernet_server_lite,usage.anon.3
	.call ethernet_server_lite,mii_port_init
	.call ethernet_server_lite,mii_driver
	.call usage.anon.3,smi_check_link_state
	.call usage.anon.3,mii_restart_buffer
	.call usage.anon.3,mii_out_packet_done
	.call usage.anon.3,mii_out_packet
	.call usage.anon.3,mii_out_init
	.call usage.anon.3,mii_get_in_buffer
	.call usage.anon.3,mii_free_in_buffer
	.call usage.anon.3,mii_buffer_init
	.call usage.anon.3,mac_set_macaddr_lite
	.call usage.anon.2,delay_ticks_longlong
	.call usage.anon.1,delay_ticks_longlong
	.call usage.anon.0,delay_ticks_longlong
	.par mii_driver,usage.anon.3,"/home/vdelacruz/Documents/Ethernet sin mii/module_ethernet/src/lite/mii_single_server.xc:110: error: use of `%s' violates parallel usage rules"
	.set usage.anon.0.locnoside, 1
	.set usage.anon.1.locnoside, 1
	.set usage.anon.2.locnoside, 1
	.set usage.anon.0.locnochandec, 1
	.set usage.anon.1.locnochandec, 1
	.set usage.anon.2.locnochandec, 1
	.set usage.anon.3.locnochandec, 1
	.set usage.anon.0.locnoglobalaccess, 1
	.set usage.anon.1.locnoglobalaccess, 1
	.set usage.anon.2.locnoglobalaccess, 1
	.set usage.anon.3.locnoglobalaccess, 1
	.set ethernet_server_lite.locnoglobalaccess, 1
	.set usage.anon.0.locnointerfaceaccess, 1
	.set usage.anon.1.locnointerfaceaccess, 1
	.set usage.anon.2.locnointerfaceaccess, 1
	.set usage.anon.3.locnointerfaceaccess, 1
	.set ethernet_server_lite.locnointerfaceaccess, 1
	.set usage.anon.0.locnonotificationselect, 1
	.set usage.anon.1.locnonotificationselect, 1
	.set usage.anon.2.locnonotificationselect, 1
	.set usage.anon.3.locnonotificationselect, 1
	.set ethernet_server_lite.locnonotificationselect, 1
	.overlay_subgraph_conflict ethernet_server_lite.task.mii_driver.0, ethernet_server_lite.task.the_server.1


	.file	1 "/home/vdelacruz/Documents/Ethernet sin mii/module_ethernet/src/lite/mii_single_server.xc"
	.file	2 "/home/vdelacruz/Documents/Ethernet sin mii/app_simple_webserver/.build_IPV4/timer.h"
	.text
.Ltext_begin:
	.section	.dp.data,"awd",@progbits
	.text
	.cc_top ethernet_server_lite.function
	.globl	ethernet_server_lite
	.align	4
	.type	ethernet_server_lite,@function
ethernet_server_lite:
.Ltmp1:
	.cfi_startproc
.Lfunc_begin0:
	.loc	1 106 0
.Lxtalabel0:
	entsp 14
.Ltmp2:
	.cfi_def_cfa_offset 56
.Ltmp3:
	.cfi_offset 15, 0
	stw r0, sp[1]
	stw r1, sp[2]
	stw r2, sp[3]
	stw r3, sp[4]
	ldw r1, sp[18]
	stw r1, sp[5]
	ldw r1, sp[16]
	stw r1, sp[6]
	ldw r1, sp[19]
	stw r1, sp[7]
	.loc	1 107 0 prologue_end
.Ltmp4:
	getr r2, 2
	getr r1, 2
	setd res[r2], r1
	setd res[r1], r2
	stw r2, sp[8]
	stw r1, sp[9]
	getr r2, 2
	getr r1, 2
	setd res[r2], r1
	setd res[r1], r2
	stw r2, sp[10]
	stw r1, sp[11]
	.loc	1 108 0
.Ltmp5:
	getr r2, 2
	getr r1, 2
	setd res[r2], r1
	setd res[r1], r2
	stw r2, sp[12]
	stw r1, sp[13]
	.loc	1 109 0
.Lxta.call_labels0:
	bl mii_port_init
	ldaw r0, sp[1]
	.loc	1 109 0
	ldaw r1, dp[par.desc.1]
	bl __start_other_cores
.Ltmp6:
.Ltmp7:
	.size	ethernet_server_lite, .Ltmp7-ethernet_server_lite
.Lfunc_end0:
.Ltmp8:
	.cfi_endproc
.Leh_func_end0:

	.align	4
	.cc_bottom ethernet_server_lite.function
	.set	ethernet_server_lite.nstackwords,((mii_port_init.nstackwords $M (par.extra_stackwords + 1 + ethernet_server_lite.task.mii_driver.0.nstackwords + 1 + ethernet_server_lite.task.the_server.1.nstackwords)) + 14)
	.globl	ethernet_server_lite.nstackwords
	.set	ethernet_server_lite.maxcores,(0 + ethernet_server_lite.task.mii_driver.0.maxcores + ethernet_server_lite.task.the_server.1.maxcores) $M mii_port_init.maxcores $M 1
	.globl	ethernet_server_lite.maxcores
	.set	ethernet_server_lite.maxtimers,(1 + ethernet_server_lite.task.mii_driver.0.maxtimers + ethernet_server_lite.task.the_server.1.maxtimers) $M mii_port_init.maxtimers $M 0
	.globl	ethernet_server_lite.maxtimers
	.set	ethernet_server_lite.maxchanends,(6 + (0 + ethernet_server_lite.task.mii_driver.0.maxchanends + ethernet_server_lite.task.the_server.1.maxchanends)) $M (6 + mii_port_init.maxchanends) $M 6
	.globl	ethernet_server_lite.maxchanends
	.cc_top the_server.function
	.section	.cp.rodata.cst4,"aMc",@progbits,4
	.cc_top .LCPI1_0.data
	.align	4
.LCPI1_0:
	.long	10000000
	.cc_bottom .LCPI1_0.data
	.text
	.align	4
	.type	the_server,@function
the_server:
.Ltmp17:
	.cfi_startproc
.Lfunc_begin1:
	.loc	1 25 0
.Lxtalabel1:
	entsp 6968
.Ltmp18:
	.cfi_def_cfa_offset 27872
.Ltmp19:
	.cfi_offset 15, 0
	.loc	1 23 0 prologue_end
.Ltmp20:
	stw r4, sp[6967]
.Ltmp21:
	.cfi_offset 4, -4
	stw r5, sp[6966]
.Ltmp22:
	.cfi_offset 5, -8
	stw r6, sp[6965]
.Ltmp23:
	.cfi_offset 6, -12
	stw r7, sp[6964]
.Ltmp24:
	.cfi_offset 7, -16
	stw r8, sp[6963]
.Ltmp25:
	.cfi_offset 8, -20
	stw r9, sp[6962]
.Ltmp26:
	.cfi_offset 9, -24
	stw r10, sp[6961]
.Ltmp27:
	.cfi_offset 10, -28
	stw r3, sp[10]
.Ltmp28:
	mov r5, r2
.Ltmp29:
	stw r5, sp[9]
	mov r6, r1
.Ltmp30:
	mov r7, r0
.Ltmp31:
	ldw r0, sp[6971]
	ldc r1, 6
	.loc	1 34 0
.Ltmp32:
.Lxta.call_labels1:
	bl mac_set_macaddr_lite
	ldc r0, 6400
	.loc	1 36 0
	stw r0, sp[2]
	stw r0, sp[1]
	ldaw r8, sp[12]
	ldaw r3, sp[561]
	mov r0, r8
	mov r1, r7
.Ltmp33:
	mov r2, r5
.Lxta.call_labels2:
	bl mii_buffer_init
.Ltmp34:
	.loc	1 39 0
	ldaw r0, dp[__timers]
	get r11, id
	ldw r4, r0[r11]
	stw r4, sp[8]
	.loc	1 37 0
	mov r0, r6
	mov r9, r6
.Ltmp35:
.Lxta.call_labels3:
	bl mii_out_init
	.loc	1 39 0
	setc res[r4], 1
	.loc	1 39 0
.Lxta.endpoint_labels0:
	in r0, res[r4]
.Ltmp36:
	stw r0, sp[11]
	ldap r11, .Ltmp37
	.loc	1 42 0
	setv res[r5], r11
.Ltmp38:
	ldw r5, sp[6970]
	ldap r11, .Ltmp39
	setv res[r5], r11
	ldc r0, 65
	.loc	1 60 0
	add r0, r8, r0
	stw r0, sp[6]
	mkmsk r0, 1
	stw r0, sp[7]
	ldw r8, sp[6969]
	bu .LBB1_1
.Ltmp39:
.LBB1_17:
.Lxtalabel2:
	.loc	1 81 0
	chkct res[r5], 1
	outct res[r5], 1
	.loc	1 81 0
.Lxta.endpoint_labels1:
	in r3, res[r5]
.Ltmp40:
	.loc	1 82 0
	add r0, r3, 3
	ashr r0, r0, 2
	ldc r1, 0
	lss r2, r1, r0
.Ltmp41:
	.loc	1 81 0
	chkct res[r5], 1
	outct res[r5], 1
	ldc r11, 399
	.loc	1 82 0
.Ltmp42:
	bf r2, .LBB1_13
.LBB1_18:
.Lxtalabel3:
	.loc	1 83 0
	lsu r2, r11, r1
	chkct res[r5], 1
	outct res[r5], 1
	ecallt r2
	.loc	1 83 0
.Lxta.endpoint_labels2:
	in r2, res[r5]
	ldaw r4, sp[161]
	.loc	1 83 0
	stw r2, r4[r1]
	.loc	1 82 0
	add r1, r1, 1
	lss r2, r1, r0
	.loc	1 83 0
	chkct res[r5], 1
	outct res[r5], 1
.Lxta.loop_labels0:
	# LOOPMARKER 0
	.loc	1 82 0
	bt r2, .LBB1_18
.LBB1_13:
.Lxtalabel4:
.Ltmp43:
	ldc r0, 400
	.loc	1 86 0
	stw r0, sp[1]
	mov r0, r9
	ldaw r1, sp[161]
	ldc r2, 0
.Lxta.call_labels4:
	bl mii_out_packet
.Ltmp44:
	.loc	1 87 0
	mov r0, r9
.Lxta.call_labels5:
	bl mii_out_packet_done
.Ltmp45:
.LBB1_14:
	.loc	1 92 0
	bf r6, .LBB1_1
.LBB1_15:
.Lxtalabel5:
	ldaw r0, sp[12]
	.loc	1 93 0
.Lxta.call_labels6:
	bl mii_get_in_buffer
	mov r7, r1
	ldc r10, 0
	mkmsk r1, 1
	.loc	1 94 0
	stw r1, sp[7]
	bf r0, .LBB1_1
.Lxtalabel6:
	.loc	1 96 0
.Lxta.endpoint_labels3:
	out res[r8], r7
	ldc r1, 0
	stw r1, sp[7]
	mov r10, r0
.LBB1_1:
.Lxtalabel7:
	.loc	1 42 0
	clre
	ldw r0, sp[11]
	ldw r1, sp[8]
	setd res[r1], r0
	setc res[r1], 9
	ldap r11, .Ltmp46
	setv res[r1], r11
	eeu res[r1]
	ldw r0, sp[9]
	eeu res[r0]
	ldw r6, sp[7]
	zext r6, 1
	bt r6, .LBB1_3
	ldap r11, .Ltmp47
	setv res[r8], r11
	eeu res[r8]
.LBB1_3:
	eeu res[r5]
	.loc	1 88 0
.Ltmp48:
	
	.xtabranch .LBB1_5, .LBB1_11, .LBB1_4, .LBB1_17
waiteu
.Ltmp49:
.Ltmp37:
.LBB1_4:
.Lxtalabel8:
	.loc	1 60 0
	ldw r0, sp[9]
.Lxta.endpoint_labels4:
	int r0, res[r0]
	.loc	1 60 0
	ldw r1, sp[6]
	ldc r2, 0
	st8 r0, r1[r2]
	bu .LBB1_14
.Ltmp46:
.LBB1_5:
.Lxtalabel9:
	.loc	1 43 0
.Ltmp50:
	ldw r0, sp[8]
.Lxta.endpoint_labels5:
	in r0, res[r0]
.Ltmp51:
	.loc	1 44 0
	ldw r0, sp[10]
	bt r0, .LBB1_7
.LBB1_6:
.Lxtalabel10:
	ldw r0, cp[.LCPI1_0]
	.loc	1 56 0
	ldw r1, sp[11]
	add r1, r1, r0
.Ltmp52:
	.loc	1 57 0
	stw r1, sp[11]
	bu .LBB1_14
.LBB1_7:
.Lxtalabel11:
	.loc	1 47 0
.Ltmp53:
	ldw r0, sp[10]
.Lxta.call_labels7:
	bl smi_check_link_state
.Ltmp54:
	.loc	1 48 0
	ldw r1, dp[phy_status.static]
	eq r1, r0, r1
	bt r1, .LBB1_6
.Lxtalabel12:
.Ltmp55:
	mkmsk r1, 32
	.loc	1 49 0
.Lxta.endpoint_labels6:
	out res[r8], r1
	.loc	1 50 0
.Ltmp56:
	chkct res[r8], 1
	outct res[r8], 1
	.loc	1 50 0
.Lxta.endpoint_labels7:
	in r1, res[r8]
.Ltmp57:
	.loc	1 50 0
	chkct res[r8], 1
	outct res[r8], 1
	.loc	1 51 0
	outct res[r8], 1
	chkct res[r8], 1
	.loc	1 51 0
.Lxta.endpoint_labels8:
	out res[r8], r0
	.loc	1 51 0
	outct res[r8], 1
	chkct res[r8], 1
	.loc	1 52 0
	outct res[r8], 1
	chkct res[r8], 1
	ldc r1, 0
.Ltmp58:
	.loc	1 52 0
.Lxta.endpoint_labels9:
	out res[r8], r1
	.loc	1 52 0
	outct res[r8], 1
	chkct res[r8], 1
	.loc	1 53 0
	stw r0, dp[phy_status.static]
	bu .LBB1_6
.Ltmp59:
.LBB1_9:
.Lxtalabel13:
	ldaw r7, sp[12]
	.loc	1 70 0
.Ltmp60:
	mov r0, r7
	mov r1, r10
.Lxta.call_labels8:
	bl mii_free_in_buffer
	.loc	1 71 0
	mov r0, r7
.Lxta.call_labels9:
	bl mii_restart_buffer
	.loc	1 72 0
	mov r0, r7
.Lxta.call_labels10:
	bl mii_get_in_buffer
	mov r10, r0
	mov r7, r1
	.loc	1 73 0
	bf r10, .LBB1_15
.Lxtalabel14:
	.loc	1 76 0
.Lxta.endpoint_labels10:
	out res[r8], r7
	bu .LBB1_14
.Ltmp47:
.LBB1_11:
.Lxtalabel15:
	.loc	1 65 0
	add r0, r7, 3
	ashr r0, r0, 2
	ldc r1, 0
	lss r2, r1, r0
.Ltmp61:
	.loc	1 64 0
	chkct res[r8], 1
	outct res[r8], 1
	.loc	1 64 0
.Lxta.endpoint_labels11:
	in r3, res[r8]
.Ltmp62:
	.loc	1 64 0
	chkct res[r8], 1
	outct res[r8], 1
.Ltmp63:
	.loc	1 65 0
	bf r2, .LBB1_9
.Ltmp64:
.LBB1_12:
.Lxtalabel16:
	.loc	1 67 0
	#APP
	ldw r2, r10[r1]
	#NO_APP
.Ltmp65:
	.loc	1 68 0
	outct res[r8], 1
	chkct res[r8], 1
	.loc	1 68 0
.Lxta.endpoint_labels12:
	out res[r8], r2
.Ltmp66:
	.loc	1 65 0
	add r1, r1, 1
	eq r2, r1, r0
.Ltmp67:
	.loc	1 68 0
	outct res[r8], 1
	chkct res[r8], 1
.Lxta.loop_labels1:
	# LOOPMARKER 1
.Ltmp68:
	.loc	1 65 0
	bf r2, .LBB1_12
	bu .LBB1_9
.Ltmp69:
.Ltmp70:
	.size	the_server, .Ltmp70-the_server
.Lfunc_end1:
.Ltmp71:
	.cfi_endproc
.Leh_func_end1:

	.align	4
	.cc_bottom the_server.function
	.set	the_server.nstackwords,((mac_set_macaddr_lite.nstackwords $M mii_buffer_init.nstackwords $M mii_out_init.nstackwords $M smi_check_link_state.nstackwords $M mii_free_in_buffer.nstackwords $M mii_restart_buffer.nstackwords $M mii_get_in_buffer.nstackwords $M mii_out_packet.nstackwords $M mii_out_packet_done.nstackwords) + 6968)
	.set	the_server.maxcores,mac_set_macaddr_lite.maxcores $M mii_buffer_init.maxcores $M mii_free_in_buffer.maxcores $M mii_get_in_buffer.maxcores $M mii_out_init.maxcores $M mii_out_packet.maxcores $M mii_out_packet_done.maxcores $M mii_restart_buffer.maxcores $M smi_check_link_state.maxcores $M 1
	.set	the_server.maxtimers,mac_set_macaddr_lite.maxtimers $M mii_buffer_init.maxtimers $M mii_free_in_buffer.maxtimers $M mii_get_in_buffer.maxtimers $M mii_out_init.maxtimers $M mii_out_packet.maxtimers $M mii_out_packet_done.maxtimers $M mii_restart_buffer.maxtimers $M smi_check_link_state.maxtimers $M 0
	.set	the_server.maxchanends,mac_set_macaddr_lite.maxchanends $M mii_buffer_init.maxchanends $M mii_free_in_buffer.maxchanends $M mii_get_in_buffer.maxchanends $M mii_out_init.maxchanends $M mii_out_packet.maxchanends $M mii_out_packet_done.maxchanends $M mii_restart_buffer.maxchanends $M smi_check_link_state.maxchanends $M 0
	.cc_top ethernet_server_lite.task.mii_driver.0.function
	.align	4
	.type	ethernet_server_lite.task.mii_driver.0,@function
ethernet_server_lite.task.mii_driver.0:
.Ltmp73:
	.cfi_startproc
.Lfunc_begin2:
	.loc	1 111 0
	entsp 1
.Ltmp74:
	.cfi_def_cfa_offset 4
.Ltmp75:
	.cfi_offset 15, 0
	.loc	1 111 0 prologue_end
.Ltmp76:
	ldw r1, r0[11]
	#APP
	#NO_APP
	ldw r2, r0[9]
	ldw r1, r0[7]
	ldw r0, r0[0]
.Ltmp77:
	.loc	1 111 0
.Lxta.call_labels11:
	bl mii_driver
	retsp 1
.Ltmp78:
.Ltmp79:
	.size	ethernet_server_lite.task.mii_driver.0, .Ltmp79-ethernet_server_lite.task.mii_driver.0
.Lfunc_end2:
.Ltmp80:
	.cfi_endproc
.Leh_func_end2:

	.align	4
	.cc_bottom ethernet_server_lite.task.mii_driver.0.function
	.set	ethernet_server_lite.task.mii_driver.0.nstackwords,(mii_driver.nstackwords + 1)
	.set	ethernet_server_lite.task.mii_driver.0.maxcores,mii_driver.maxcores $M 1
	.set	ethernet_server_lite.task.mii_driver.0.maxtimers,mii_driver.maxtimers $M 0
	.set	ethernet_server_lite.task.mii_driver.0.maxchanends,mii_driver.maxchanends $M 0
	.cc_top ethernet_server_lite.task.the_server.1.function
	.align	4
	.type	ethernet_server_lite.task.the_server.1,@function
ethernet_server_lite.task.the_server.1:
.Ltmp84:
	.cfi_startproc
.Lfunc_begin3:
	.loc	1 113 0
	entsp 6
.Ltmp85:
	.cfi_def_cfa_offset 24
.Ltmp86:
	.cfi_offset 15, 0
	.loc	1 0 0 prologue_end
.Ltmp87:
	stw r4, sp[5]
.Ltmp88:
	.cfi_offset 4, -4
	stw r5, sp[4]
.Ltmp89:
	.cfi_offset 5, -8
	.loc	1 113 0
.Ltmp90:
	ldw r1, r0[4]
	ecallf r1
	ldw r1, r0[6]
	ecallf r1
.Ltmp91:
	ldc r1, 48
	add r1, r0, r1
	ldw r2, r1[0]
	ldw r3, r0[1]
	ldw r1, r0[10]
	ldw r11, r0[8]
	ldw r4, r0[3]
	ldw r4, r4[0]
	ldw r5, r0[5]
	ldw r5, r5[0]
	ldw r0, r0[2]
.Ltmp92:
	.loc	1 113 0
	stw r0, sp[3]
	stw r5, sp[2]
	stw r4, sp[1]
	mov r0, r11
.Lxta.call_labels12:
	bl the_server
.Ltmp93:
.Ltmp94:
	.size	ethernet_server_lite.task.the_server.1, .Ltmp94-ethernet_server_lite.task.the_server.1
.Lfunc_end3:
.Ltmp95:
	.cfi_endproc
.Leh_func_end3:

	.align	4
	.cc_bottom ethernet_server_lite.task.the_server.1.function
	.set	ethernet_server_lite.task.the_server.1.nstackwords,(the_server.nstackwords + 6)
	.set	ethernet_server_lite.task.the_server.1.maxcores,the_server.maxcores $M 1
	.set	ethernet_server_lite.task.the_server.1.maxtimers,the_server.maxtimers $M 0
	.set	ethernet_server_lite.task.the_server.1.maxchanends,the_server.maxchanends $M 0
	.section	.dp.bss,"awd",@nobits
	.cc_top phy_status.static.data
	.align	4
	.type	phy_status.static,@object
	.size phy_status.static,4
phy_status.static:
	.long	0
	.cc_bottom phy_status.static.data
	.section	.dp.data,"awd",@progbits
	.cc_top par.desc.1.data
	.align	4
	.type	par.desc.1,@object
	.size par.desc.1,16
par.desc.1:
	.long	ethernet_server_lite.task.mii_driver.0
	.long	ethernet_server_lite.task.the_server.1.nstackwords
	.long	0
	.long	ethernet_server_lite.task.the_server.1
	.cc_bottom par.desc.1.data
	.cfi_sections .debug_frame
	.text
.Ltext_end:
	.section	.dp.data,"awd",@progbits
.Ldata_end:
	.text
.Lsection_end1:
	.section	.xtacalltable,"",@progbits
.Lentries_start0:
	.long	.Lentries_end1-.Lentries_start0
	.long	0
	.ascii	 "/home/vdelacruz/Documents/Ethernet sin mii/app_simple_webserver/.build_IPV4"
	.byte	0
.cc_top cc_0,.Lxta.call_labels1
	.ascii	 "/home/vdelacruz/Documents/Ethernet sin mii/module_ethernet/src/lite/mii_single_server.xc"
	.byte	0
	.long	34
	.long	.Lxta.call_labels1
.cc_bottom cc_0
.cc_top cc_1,.Lxta.call_labels2
	.ascii	 "/home/vdelacruz/Documents/Ethernet sin mii/module_ethernet/src/lite/mii_single_server.xc"
	.byte	0
	.long	36
	.long	.Lxta.call_labels2
.cc_bottom cc_1
.cc_top cc_2,.Lxta.call_labels3
	.ascii	 "/home/vdelacruz/Documents/Ethernet sin mii/module_ethernet/src/lite/mii_single_server.xc"
	.byte	0
	.long	37
	.long	.Lxta.call_labels3
.cc_bottom cc_2
.cc_top cc_3,.Lxta.call_labels7
	.ascii	 "/home/vdelacruz/Documents/Ethernet sin mii/module_ethernet/src/lite/mii_single_server.xc"
	.byte	0
	.long	47
	.long	.Lxta.call_labels7
.cc_bottom cc_3
.cc_top cc_4,.Lxta.call_labels8
	.ascii	 "/home/vdelacruz/Documents/Ethernet sin mii/module_ethernet/src/lite/mii_single_server.xc"
	.byte	0
	.long	70
	.long	.Lxta.call_labels8
.cc_bottom cc_4
.cc_top cc_5,.Lxta.call_labels9
	.ascii	 "/home/vdelacruz/Documents/Ethernet sin mii/module_ethernet/src/lite/mii_single_server.xc"
	.byte	0
	.long	71
	.long	.Lxta.call_labels9
.cc_bottom cc_5
.cc_top cc_6,.Lxta.call_labels10
	.ascii	 "/home/vdelacruz/Documents/Ethernet sin mii/module_ethernet/src/lite/mii_single_server.xc"
	.byte	0
	.long	72
	.long	.Lxta.call_labels10
.cc_bottom cc_6
.cc_top cc_7,.Lxta.call_labels4
	.ascii	 "/home/vdelacruz/Documents/Ethernet sin mii/module_ethernet/src/lite/mii_single_server.xc"
	.byte	0
	.long	86
	.long	.Lxta.call_labels4
.cc_bottom cc_7
.cc_top cc_8,.Lxta.call_labels5
	.ascii	 "/home/vdelacruz/Documents/Ethernet sin mii/module_ethernet/src/lite/mii_single_server.xc"
	.byte	0
	.long	87
	.long	.Lxta.call_labels5
.cc_bottom cc_8
.cc_top cc_9,.Lxta.call_labels6
	.ascii	 "/home/vdelacruz/Documents/Ethernet sin mii/module_ethernet/src/lite/mii_single_server.xc"
	.byte	0
	.long	93
	.long	.Lxta.call_labels6
.cc_bottom cc_9
.cc_top cc_10,.Lxta.call_labels0
	.ascii	 "/home/vdelacruz/Documents/Ethernet sin mii/module_ethernet/src/lite/mii_single_server.xc"
	.byte	0
	.long	109
	.long	.Lxta.call_labels0
.cc_bottom cc_10
.cc_top cc_11,.Lxta.call_labels11
	.ascii	 "/home/vdelacruz/Documents/Ethernet sin mii/module_ethernet/src/lite/mii_single_server.xc"
	.byte	0
	.long	111
	.long	.Lxta.call_labels11
.cc_bottom cc_11
.cc_top cc_12,.Lxta.call_labels12
	.ascii	 "/home/vdelacruz/Documents/Ethernet sin mii/module_ethernet/src/lite/mii_single_server.xc"
	.byte	0
	.long	112
	.long	.Lxta.call_labels12
.cc_bottom cc_12
.Lentries_end1:
	.section	.xtaendpointtable,"",@progbits
.Lentries_start2:
	.long	.Lentries_end3-.Lentries_start2
	.long	0
	.ascii	 "/home/vdelacruz/Documents/Ethernet sin mii/app_simple_webserver/.build_IPV4"
	.byte	0
.cc_top cc_13,.Lxta.endpoint_labels0
	.ascii	 "/home/vdelacruz/Documents/Ethernet sin mii/module_ethernet/src/lite/mii_single_server.xc"
	.byte	0
	.long	39
	.long	.Lxta.endpoint_labels0
.cc_bottom cc_13
.cc_top cc_14,.Lxta.endpoint_labels1
	.ascii	 "/home/vdelacruz/Documents/Ethernet sin mii/module_ethernet/src/lite/mii_single_server.xc"
	.byte	0
	.long	42
	.long	.Lxta.endpoint_labels1
.cc_bottom cc_14
.cc_top cc_15,.Lxta.endpoint_labels5
	.ascii	 "/home/vdelacruz/Documents/Ethernet sin mii/module_ethernet/src/lite/mii_single_server.xc"
	.byte	0
	.long	42
	.long	.Lxta.endpoint_labels5
.cc_bottom cc_15
.cc_top cc_16,.Lxta.endpoint_labels11
	.ascii	 "/home/vdelacruz/Documents/Ethernet sin mii/module_ethernet/src/lite/mii_single_server.xc"
	.byte	0
	.long	42
	.long	.Lxta.endpoint_labels11
.cc_bottom cc_16
.cc_top cc_17,.Lxta.endpoint_labels6
	.ascii	 "/home/vdelacruz/Documents/Ethernet sin mii/module_ethernet/src/lite/mii_single_server.xc"
	.byte	0
	.long	49
	.long	.Lxta.endpoint_labels6
.cc_bottom cc_17
.cc_top cc_18,.Lxta.endpoint_labels7
	.ascii	 "/home/vdelacruz/Documents/Ethernet sin mii/module_ethernet/src/lite/mii_single_server.xc"
	.byte	0
	.long	50
	.long	.Lxta.endpoint_labels7
.cc_bottom cc_18
.cc_top cc_19,.Lxta.endpoint_labels8
	.ascii	 "/home/vdelacruz/Documents/Ethernet sin mii/module_ethernet/src/lite/mii_single_server.xc"
	.byte	0
	.long	51
	.long	.Lxta.endpoint_labels8
.cc_bottom cc_19
.cc_top cc_20,.Lxta.endpoint_labels9
	.ascii	 "/home/vdelacruz/Documents/Ethernet sin mii/module_ethernet/src/lite/mii_single_server.xc"
	.byte	0
	.long	52
	.long	.Lxta.endpoint_labels9
.cc_bottom cc_20
.cc_top cc_21,.Lxta.endpoint_labels4
	.ascii	 "/home/vdelacruz/Documents/Ethernet sin mii/module_ethernet/src/lite/mii_single_server.xc"
	.byte	0
	.long	60
	.long	.Lxta.endpoint_labels4
.cc_bottom cc_21
.cc_top cc_22,.Lxta.endpoint_labels12
	.ascii	 "/home/vdelacruz/Documents/Ethernet sin mii/module_ethernet/src/lite/mii_single_server.xc"
	.byte	0
	.long	68
	.long	.Lxta.endpoint_labels12
.cc_bottom cc_22
.cc_top cc_23,.Lxta.endpoint_labels10
	.ascii	 "/home/vdelacruz/Documents/Ethernet sin mii/module_ethernet/src/lite/mii_single_server.xc"
	.byte	0
	.long	76
	.long	.Lxta.endpoint_labels10
.cc_bottom cc_23
.cc_top cc_24,.Lxta.endpoint_labels2
	.ascii	 "/home/vdelacruz/Documents/Ethernet sin mii/module_ethernet/src/lite/mii_single_server.xc"
	.byte	0
	.long	83
	.long	.Lxta.endpoint_labels2
.cc_bottom cc_24
.cc_top cc_25,.Lxta.endpoint_labels3
	.ascii	 "/home/vdelacruz/Documents/Ethernet sin mii/module_ethernet/src/lite/mii_single_server.xc"
	.byte	0
	.long	96
	.long	.Lxta.endpoint_labels3
.cc_bottom cc_25
.Lentries_end3:
	.section	.xtalabeltable,"",@progbits
.Lentries_start4:
	.long	.Lentries_end5-.Lentries_start4
	.long	0
	.ascii	 "/home/vdelacruz/Documents/Ethernet sin mii/app_simple_webserver/.build_IPV4"
	.byte	0
.cc_top cc_26,.Lxtalabel1
	.ascii	 "/home/vdelacruz/Documents/Ethernet sin mii/module_ethernet/src/lite/mii_single_server.xc"
	.byte	0
	.long	26
	.long	41
	.long	.Lxtalabel1
.cc_bottom cc_26
.cc_top cc_27,.Lxtalabel7
	.ascii	 "/home/vdelacruz/Documents/Ethernet sin mii/module_ethernet/src/lite/mii_single_server.xc"
	.byte	0
	.long	42
	.long	43
	.long	.Lxtalabel7
.cc_bottom cc_27
.cc_top cc_28,.Lxtalabel9
	.ascii	 "/home/vdelacruz/Documents/Ethernet sin mii/module_ethernet/src/lite/mii_single_server.xc"
	.byte	0
	.long	44
	.long	44
	.long	.Lxtalabel9
.cc_bottom cc_28
.cc_top cc_29,.Lxtalabel11
	.ascii	 "/home/vdelacruz/Documents/Ethernet sin mii/module_ethernet/src/lite/mii_single_server.xc"
	.byte	0
	.long	45
	.long	48
	.long	.Lxtalabel11
.cc_bottom cc_29
.cc_top cc_30,.Lxtalabel12
	.ascii	 "/home/vdelacruz/Documents/Ethernet sin mii/module_ethernet/src/lite/mii_single_server.xc"
	.byte	0
	.long	49
	.long	54
	.long	.Lxtalabel12
.cc_bottom cc_30
.cc_top cc_31,.Lxtalabel10
	.ascii	 "/home/vdelacruz/Documents/Ethernet sin mii/module_ethernet/src/lite/mii_single_server.xc"
	.byte	0
	.long	56
	.long	60
	.long	.Lxtalabel10
.cc_bottom cc_31
.cc_top cc_32,.Lxtalabel8
	.ascii	 "/home/vdelacruz/Documents/Ethernet sin mii/module_ethernet/src/lite/mii_single_server.xc"
	.byte	0
	.long	61
	.long	64
	.long	.Lxtalabel8
.cc_bottom cc_32
.cc_top cc_33,.Lxtalabel15
	.ascii	 "/home/vdelacruz/Documents/Ethernet sin mii/module_ethernet/src/lite/mii_single_server.xc"
	.byte	0
	.long	65
	.long	65
	.long	.Lxtalabel15
.cc_bottom cc_33
.cc_top cc_34,.Lxtalabel16
	.ascii	 "/home/vdelacruz/Documents/Ethernet sin mii/module_ethernet/src/lite/mii_single_server.xc"
	.byte	0
	.long	66
	.long	69
	.long	.Lxtalabel16
.cc_bottom cc_34
.cc_top cc_35,.Lxtalabel13
	.ascii	 "/home/vdelacruz/Documents/Ethernet sin mii/module_ethernet/src/lite/mii_single_server.xc"
	.byte	0
	.long	70
	.long	73
	.long	.Lxtalabel13
.cc_bottom cc_35
.cc_top cc_36,.Lxtalabel13
	.ascii	 "/home/vdelacruz/Documents/Ethernet sin mii/module_ethernet/src/lite/mii_single_server.xc"
	.byte	0
	.long	74
	.long	75
	.long	.Lxtalabel13
.cc_bottom cc_36
.cc_top cc_37,.Lxtalabel14
	.ascii	 "/home/vdelacruz/Documents/Ethernet sin mii/module_ethernet/src/lite/mii_single_server.xc"
	.byte	0
	.long	76
	.long	77
	.long	.Lxtalabel14
.cc_bottom cc_37
.cc_top cc_38,.Lxtalabel2
	.ascii	 "/home/vdelacruz/Documents/Ethernet sin mii/module_ethernet/src/lite/mii_single_server.xc"
	.byte	0
	.long	82
	.long	82
	.long	.Lxtalabel2
.cc_bottom cc_38
.cc_top cc_39,.Lxtalabel3
	.ascii	 "/home/vdelacruz/Documents/Ethernet sin mii/module_ethernet/src/lite/mii_single_server.xc"
	.byte	0
	.long	83
	.long	84
	.long	.Lxtalabel3
.cc_bottom cc_39
.cc_top cc_40,.Lxtalabel4
	.ascii	 "/home/vdelacruz/Documents/Ethernet sin mii/module_ethernet/src/lite/mii_single_server.xc"
	.byte	0
	.long	85
	.long	89
	.long	.Lxtalabel4
.cc_bottom cc_40
.cc_top cc_41,.Lxtalabel5
	.ascii	 "/home/vdelacruz/Documents/Ethernet sin mii/module_ethernet/src/lite/mii_single_server.xc"
	.byte	0
	.long	93
	.long	94
	.long	.Lxtalabel5
.cc_bottom cc_41
.cc_top cc_42,.Lxtalabel6
	.ascii	 "/home/vdelacruz/Documents/Ethernet sin mii/module_ethernet/src/lite/mii_single_server.xc"
	.byte	0
	.long	95
	.long	97
	.long	.Lxtalabel6
.cc_bottom cc_42
.cc_top cc_43,.Lxtalabel0
	.ascii	 "/home/vdelacruz/Documents/Ethernet sin mii/module_ethernet/src/lite/mii_single_server.xc"
	.byte	0
	.long	106
	.long	115
	.long	.Lxtalabel0
.cc_bottom cc_43
.Lentries_end5:
	.section	.xtalooplabeltable,"",@progbits
.Lentries_start6:
	.long	.Lentries_end7-.Lentries_start6
	.long	0
	.ascii	 "/home/vdelacruz/Documents/Ethernet sin mii/app_simple_webserver/.build_IPV4"
	.byte	0
.cc_top cc_44,.Lxta.loop_labels1
	.ascii	 "/home/vdelacruz/Documents/Ethernet sin mii/module_ethernet/src/lite/mii_single_server.xc"
	.byte	0
	.long	66
	.long	69
	.long	.Lxta.loop_labels1
.cc_bottom cc_44
.cc_top cc_45,.Lxta.loop_labels0
	.ascii	 "/home/vdelacruz/Documents/Ethernet sin mii/module_ethernet/src/lite/mii_single_server.xc"
	.byte	0
	.long	83
	.long	84
	.long	.Lxta.loop_labels0
.cc_bottom cc_45
.Lentries_end7:
