	.file	"/home/vdelacruz/Documents/Ethernet sin mii/module_ethernet/src/full/mii_filter.xc"

	.inline_definition delay_seconds
	.inline_definition delay_milliseconds
	.inline_definition delay_microseconds
	.inline_definition mii_packet_get_length
	.inline_definition mii_packet_set_length
	.inline_definition mii_packet_get_timestamp
	.inline_definition mii_packet_set_timestamp
	.inline_definition mii_packet_get_filter_result
	.inline_definition mii_packet_set_filter_result
	.inline_definition mii_packet_get_src_port
	.inline_definition mii_packet_set_src_port
	.inline_definition mii_packet_get_timestamp_id
	.inline_definition mii_packet_set_timestamp_id
	.inline_definition mii_packet_get_stage
	.inline_definition mii_packet_set_stage
	.inline_definition mii_packet_get_tcount
	.inline_definition mii_packet_set_tcount
	.inline_definition mii_packet_get_crc
	.inline_definition mii_packet_set_crc
	.inline_definition mii_packet_get_forwarding
	.inline_definition mii_packet_set_forwarding
	.inline_definition mii_packet_get_user_data
	.inline_definition mii_packet_set_user_data
	.inline_definition mii_packet_get_data_ptr
	.inline_definition mii_packet_set_data_word
	.inline_definition mii_packet_get_data_word
	.inline_definition mii_packet_set_data
	.inline_definition mii_packet_set_data_short
	.inline_definition mii_packet_set_data_byte
	.inline_definition mac_custom_filter
	.set usage.anon.0,0
	.set usage.anon.1,0
	.set usage.anon.2,0
	.set usage.anon.3,0
	.set usage.anon.4,0
	.set usage.anon.5,0
	.set usage.anon.6,0
	.set usage.anon.7,0
	.set usage.anon.8,0
	.set usage.anon.9,0
	.set usage.anon.10,0
	.set usage.anon.11,0
	.set usage.anon.12,0
	.set usage.anon.13,0
	.set usage.anon.14,0
	.set usage.anon.15,0
	.set usage.anon.16,0
	.set usage.anon.17,0
	.set usage.anon.18,0
	.set usage.anon.19,0
	.set usage.anon.20,0
	.set usage.anon.21,0
	.set usage.anon.22,0
	.set usage.anon.23,0
	.set usage.anon.24,0
	.set usage.anon.25,0
	.set usage.anon.26,0
	.set usage.anon.27,0
	.set usage.anon.28,0
	.set usage.anon.29,0
	.set usage.anon.30,0
	.set usage.anon.31,0
	.set usage.anon.32,0
	.set usage.anon.33,0
	.globread ethernet_get_filter_counts,usage.anon.33,"/home/vdelacruz/Documents/Ethernet sin mii/module_ethernet/src/full/mii_filter.xc:53: error: previously used here"
	.globread ethernet_get_filter_counts,usage.anon.32,"/home/vdelacruz/Documents/Ethernet sin mii/module_ethernet/src/full/mii_filter.xc:52: error: previously used here"
	.globread ethernet_get_filter_counts,usage.anon.31,"/home/vdelacruz/Documents/Ethernet sin mii/module_ethernet/src/full/mii_filter.xc:51: error: previously used here"
	.globread ethernet_get_filter_counts,usage.anon.30,"/home/vdelacruz/Documents/Ethernet sin mii/module_ethernet/src/full/mii_filter.xc:50: error: previously used here"
	.globwrite ethernet_filter,usage.anon.33,"/home/vdelacruz/Documents/Ethernet sin mii/module_ethernet/src/full/mii_filter.xc:122: error: previously used here"
	.globwrite ethernet_filter,usage.anon.32,"/home/vdelacruz/Documents/Ethernet sin mii/module_ethernet/src/full/mii_filter.xc:110: error: previously used here"
	.globwrite ethernet_filter,usage.anon.31,"/home/vdelacruz/Documents/Ethernet sin mii/module_ethernet/src/full/mii_filter.xc:151: error: previously used here"
	.globwrite ethernet_filter,usage.anon.30,"/home/vdelacruz/Documents/Ethernet sin mii/module_ethernet/src/full/mii_filter.xc:155: error: previously used here"
	.call mac_custom_filter_coerce1,usage.anon.29
	.call ethernet_filter,usage.anon.8
	.call ethernet_filter,usage.anon.3
	.call ethernet_filter,usage.anon.17
	.call ethernet_filter,usage.anon.14
	.call ethernet_filter,usage.anon.12
	.call ethernet_filter,usage.anon.10
	.call ethernet_filter,mii_packet_get_data
	.call ethernet_filter,mac_custom_filter_coerce
	.call usage.anon.2,delay_ticks_longlong
	.call usage.anon.1,delay_ticks_longlong
	.call usage.anon.0,delay_ticks_longlong
	.set usage.anon.0.locnoside, 1
	.set usage.anon.1.locnoside, 1
	.set usage.anon.2.locnoside, 1
	.set usage.anon.3.locnoside, 1
	.set usage.anon.4.locnoside, 1
	.set usage.anon.5.locnoside, 1
	.set usage.anon.6.locnoside, 1
	.set usage.anon.7.locnoside, 1
	.set usage.anon.8.locnoside, 1
	.set usage.anon.9.locnoside, 1
	.set usage.anon.10.locnoside, 1
	.set usage.anon.11.locnoside, 1
	.set usage.anon.12.locnoside, 1
	.set usage.anon.13.locnoside, 1
	.set usage.anon.14.locnoside, 1
	.set usage.anon.15.locnoside, 1
	.set usage.anon.16.locnoside, 1
	.set usage.anon.17.locnoside, 1
	.set usage.anon.18.locnoside, 1
	.set usage.anon.19.locnoside, 1
	.set usage.anon.20.locnoside, 1
	.set usage.anon.21.locnoside, 1
	.set usage.anon.22.locnoside, 1
	.set usage.anon.23.locnoside, 1
	.set usage.anon.24.locnoside, 1
	.set usage.anon.25.locnoside, 1
	.set usage.anon.26.locnoside, 1
	.set usage.anon.27.locnoside, 1
	.set usage.anon.28.locnoside, 1
	.set usage.anon.29.locnoside, 1
	.set usage.anon.0.locnochandec, 1
	.set usage.anon.1.locnochandec, 1
	.set usage.anon.2.locnochandec, 1
	.set usage.anon.3.locnochandec, 1
	.set usage.anon.4.locnochandec, 1
	.set usage.anon.5.locnochandec, 1
	.set usage.anon.6.locnochandec, 1
	.set usage.anon.7.locnochandec, 1
	.set usage.anon.8.locnochandec, 1
	.set usage.anon.9.locnochandec, 1
	.set usage.anon.10.locnochandec, 1
	.set usage.anon.11.locnochandec, 1
	.set usage.anon.12.locnochandec, 1
	.set usage.anon.13.locnochandec, 1
	.set usage.anon.14.locnochandec, 1
	.set usage.anon.15.locnochandec, 1
	.set usage.anon.16.locnochandec, 1
	.set usage.anon.17.locnochandec, 1
	.set usage.anon.18.locnochandec, 1
	.set usage.anon.19.locnochandec, 1
	.set usage.anon.20.locnochandec, 1
	.set usage.anon.21.locnochandec, 1
	.set usage.anon.22.locnochandec, 1
	.set usage.anon.23.locnochandec, 1
	.set usage.anon.24.locnochandec, 1
	.set usage.anon.25.locnochandec, 1
	.set usage.anon.26.locnochandec, 1
	.set usage.anon.27.locnochandec, 1
	.set usage.anon.28.locnochandec, 1
	.set usage.anon.29.locnochandec, 1
	.set ethernet_get_filter_counts.locnochandec, 1
	.set ethernet_filter.locnochandec, 1
	.set mac_custom_filter_coerce1.locnochandec, 1
	.set usage.anon.0.locnoglobalaccess, 1
	.set usage.anon.1.locnoglobalaccess, 1
	.set usage.anon.2.locnoglobalaccess, 1
	.set usage.anon.3.locnoglobalaccess, 1
	.set usage.anon.4.locnoglobalaccess, 1
	.set usage.anon.5.locnoglobalaccess, 1
	.set usage.anon.6.locnoglobalaccess, 1
	.set usage.anon.7.locnoglobalaccess, 1
	.set usage.anon.8.locnoglobalaccess, 1
	.set usage.anon.9.locnoglobalaccess, 1
	.set usage.anon.10.locnoglobalaccess, 1
	.set usage.anon.11.locnoglobalaccess, 1
	.set usage.anon.12.locnoglobalaccess, 1
	.set usage.anon.13.locnoglobalaccess, 1
	.set usage.anon.14.locnoglobalaccess, 1
	.set usage.anon.15.locnoglobalaccess, 1
	.set usage.anon.16.locnoglobalaccess, 1
	.set usage.anon.17.locnoglobalaccess, 1
	.set usage.anon.18.locnoglobalaccess, 1
	.set usage.anon.19.locnoglobalaccess, 1
	.set usage.anon.20.locnoglobalaccess, 1
	.set usage.anon.21.locnoglobalaccess, 1
	.set usage.anon.22.locnoglobalaccess, 1
	.set usage.anon.23.locnoglobalaccess, 1
	.set usage.anon.24.locnoglobalaccess, 1
	.set usage.anon.25.locnoglobalaccess, 1
	.set usage.anon.26.locnoglobalaccess, 1
	.set usage.anon.27.locnoglobalaccess, 1
	.set usage.anon.28.locnoglobalaccess, 1
	.set usage.anon.29.locnoglobalaccess, 1
	.set mac_custom_filter_coerce1.locnoglobalaccess, 1
	.set usage.anon.0.locnointerfaceaccess, 1
	.set usage.anon.1.locnointerfaceaccess, 1
	.set usage.anon.2.locnointerfaceaccess, 1
	.set usage.anon.3.locnointerfaceaccess, 1
	.set usage.anon.4.locnointerfaceaccess, 1
	.set usage.anon.5.locnointerfaceaccess, 1
	.set usage.anon.6.locnointerfaceaccess, 1
	.set usage.anon.7.locnointerfaceaccess, 1
	.set usage.anon.8.locnointerfaceaccess, 1
	.set usage.anon.9.locnointerfaceaccess, 1
	.set usage.anon.10.locnointerfaceaccess, 1
	.set usage.anon.11.locnointerfaceaccess, 1
	.set usage.anon.12.locnointerfaceaccess, 1
	.set usage.anon.13.locnointerfaceaccess, 1
	.set usage.anon.14.locnointerfaceaccess, 1
	.set usage.anon.15.locnointerfaceaccess, 1
	.set usage.anon.16.locnointerfaceaccess, 1
	.set usage.anon.17.locnointerfaceaccess, 1
	.set usage.anon.18.locnointerfaceaccess, 1
	.set usage.anon.19.locnointerfaceaccess, 1
	.set usage.anon.20.locnointerfaceaccess, 1
	.set usage.anon.21.locnointerfaceaccess, 1
	.set usage.anon.22.locnointerfaceaccess, 1
	.set usage.anon.23.locnointerfaceaccess, 1
	.set usage.anon.24.locnointerfaceaccess, 1
	.set usage.anon.25.locnointerfaceaccess, 1
	.set usage.anon.26.locnointerfaceaccess, 1
	.set usage.anon.27.locnointerfaceaccess, 1
	.set usage.anon.28.locnointerfaceaccess, 1
	.set usage.anon.29.locnointerfaceaccess, 1
	.set ethernet_get_filter_counts.locnointerfaceaccess, 1
	.set ethernet_filter.locnointerfaceaccess, 1
	.set mac_custom_filter_coerce1.locnointerfaceaccess, 1
	.set usage.anon.0.locnonotificationselect, 1
	.set usage.anon.1.locnonotificationselect, 1
	.set usage.anon.2.locnonotificationselect, 1
	.set usage.anon.3.locnonotificationselect, 1
	.set usage.anon.4.locnonotificationselect, 1
	.set usage.anon.5.locnonotificationselect, 1
	.set usage.anon.6.locnonotificationselect, 1
	.set usage.anon.7.locnonotificationselect, 1
	.set usage.anon.8.locnonotificationselect, 1
	.set usage.anon.9.locnonotificationselect, 1
	.set usage.anon.10.locnonotificationselect, 1
	.set usage.anon.11.locnonotificationselect, 1
	.set usage.anon.12.locnonotificationselect, 1
	.set usage.anon.13.locnonotificationselect, 1
	.set usage.anon.14.locnonotificationselect, 1
	.set usage.anon.15.locnonotificationselect, 1
	.set usage.anon.16.locnonotificationselect, 1
	.set usage.anon.17.locnonotificationselect, 1
	.set usage.anon.18.locnonotificationselect, 1
	.set usage.anon.19.locnonotificationselect, 1
	.set usage.anon.20.locnonotificationselect, 1
	.set usage.anon.21.locnonotificationselect, 1
	.set usage.anon.22.locnonotificationselect, 1
	.set usage.anon.23.locnonotificationselect, 1
	.set usage.anon.24.locnonotificationselect, 1
	.set usage.anon.25.locnonotificationselect, 1
	.set usage.anon.26.locnonotificationselect, 1
	.set usage.anon.27.locnonotificationselect, 1
	.set usage.anon.28.locnonotificationselect, 1
	.set usage.anon.29.locnonotificationselect, 1
	.set ethernet_get_filter_counts.locnonotificationselect, 1
	.set ethernet_filter.locnonotificationselect, 1
	.set mac_custom_filter_coerce1.locnonotificationselect, 1


	.file	1 "/home/vdelacruz/Documents/Ethernet sin mii/module_ethernet/src/full/mii_filter.xc"
	.file	2 "/home/vdelacruz/Documents/Ethernet sin mii/app_simple_webserver/.build_IPV4/timer.h"
	.file	3 "/home/vdelacruz/Documents/Ethernet sin mii/app_simple_webserver/.build_IPV4/mii_full.h"
	.file	4 "/home/vdelacruz/Documents/Ethernet sin mii/app_simple_webserver/.build_IPV4/xtcp_mac_filter.h"
	.text
.Ltext_begin:
	.section	.dp.data,"awd",@progbits
	.text
	.cc_top ethernet_filter.function
	.section	.cp.rodata.cst4,"aMc",@progbits,4
	.cc_top .LCPI0_0.data
	.align	4
.LCPI0_0:
	.long	3988292384
	.cc_bottom .LCPI0_0.data
	.text
	.globl	ethernet_filter
	.align	4
	.type	ethernet_filter,@function
ethernet_filter:
.Ltmp8:
	.cfi_startproc
.Lfunc_begin0:
	.loc	1 59 0
.Lxtalabel0:
	entsp 12
.Ltmp9:
	.cfi_def_cfa_offset 48
.Ltmp10:
	.cfi_offset 15, 0
	.loc	1 59 0 prologue_end
.Ltmp11:
	stw r4, sp[11]
.Ltmp12:
	.cfi_offset 4, -4
	stw r5, sp[10]
.Ltmp13:
	.cfi_offset 5, -8
	stw r6, sp[9]
.Ltmp14:
	.cfi_offset 6, -12
	stw r7, sp[8]
.Ltmp15:
	.cfi_offset 7, -16
	stw r8, sp[7]
.Ltmp16:
	.cfi_offset 8, -20
	stw r9, sp[6]
.Ltmp17:
	.cfi_offset 9, -24
	stw r10, sp[5]
.Ltmp18:
	.cfi_offset 10, -28
	stw r1, sp[2]
	.loc	1 63 0
.Ltmp19:
	ldc r5, 0
	ld8u r3, r0[r5]
	mkmsk r4, 1
	ld8u r2, r0[r4]
	shl r2, r2, 8
	or r3, r2, r3
	ldc r2, 2
	ld8u r2, r0[r2]
	shl r2, r2, 16
	or r3, r3, r2
	mkmsk r2, 2
	ld8u r2, r0[r2]
	shl r2, r2, 24
	or r2, r3, r2
	stw r2, sp[3]
	ldc r2, 4
	.loc	1 64 0
	ld8u r3, r0[r2]
	ldc r2, 5
	ld8u r0, r0[r2]
.Ltmp20:
	shl r0, r0, 8
	or r0, r0, r3
	stw r0, sp[4]
	.loc	1 71 0
.Ltmp21:
	ldw r7, r1[0]
.Ltmp22:
.LBB0_1:
.Lxtalabel1:
	.loc	1 68 0
	clre
	ldap r11, .Ltmp23
	.loc	1 71 0
.Ltmp24:
	setv res[r7], r11
	mov r11, r5
	setev res[r7], r11
	eeu res[r7]
	.loc	1 168 0
	
	.xtabranch .LBB0_2
waiteu
.Ltmp25:
.Ltmp23:
.LBB0_2:
.Lxtalabel2:
	.loc	1 71 0
	get r11, ed
	mov r10, r11
	zext r10, 16
.Ltmp26:
	ldw r0, sp[2]
	ldw r0, r0[r10]
	.loc	1 71 0
.Lxta.endpoint_labels0:
	in r9, res[r0]
.Ltmp27:
	.loc	1 73 0
	bf r9, .LBB0_1
.Ltmp28:
.Lxtalabel3:
	mov r8, r4
	.loc	3 147 0
.Ltmp29:
	#APP
	ldw r6,r9[0]
	#NO_APP
.Ltmp30:
	.loc	3 154 0
	#APP
	ldw r4,r9[7]
	#NO_APP
.Ltmp31:
	.loc	1 83 0
	shr r0, r6, 2
	add r1, r0, 1
	.loc	1 83 0
	mov r0, r9
.Lxta.call_labels0:
	bl mii_packet_get_data
.Ltmp32:
	.loc	1 85 0
	mov r1, r6
	zext r1, 2
.Ltmp33:
	.loc	1 87 0
	eq r2, r1, 1
	bt r2, .LBB0_8
.Ltmp34:
.Lxtalabel4:
	eq r2, r1, 2
	bt r2, .LBB0_9
.Lxtalabel5:
	eq r1, r1, 3
	bt r1, .LBB0_11
.LBB0_6:
.Lxtalabel6:
.Ltmp35:
	.loc	3 150 0
	#APP
	stw r10, r9[3]
	#NO_APP
	ldc r0, 60
.Ltmp36:
	.loc	1 107 0
	lss r0, r6, r0
	bf r0, .LBB0_12
.Ltmp37:
.Lxtalabel7:
	.loc	1 110 0
	ldw r0, dp[ethernet_filtered_by_length]
	add r0, r0, 1
	stw r0, dp[ethernet_filtered_by_length]
	.loc	3 149 0
.Ltmp38:
	#APP
	stw r5, r9[2]
	#NO_APP
	mov r4, r8
.Ltmp39:
	.loc	3 152 0
	#APP
	stw r4, r9[5]
	#NO_APP
.Ltmp40:
	.loc	1 68 0
	clre
	ldap r11, .Ltmp23
	.loc	1 71 0
.Ltmp41:
	setv res[r7], r11
	mov r11, r5
	setev res[r7], r11
	eeu res[r7]
	.loc	1 168 0
	
	.xtabranch .LBB0_2
waiteu
.LBB0_8:
.Lxtalabel8:
.Ltmp42:
	ldw r1, cp[.LCPI0_0]
	.loc	1 92 0
.Ltmp43:
	crc8 r4, r0, r0, r1
.Ltmp44:
	bu .LBB0_6
.Ltmp45:
.LBB0_9:
.Lxtalabel9:
	ldw r1, cp[.LCPI0_0]
.LBB0_10:
.Lxtalabel10:
	.loc	1 95 0
	crc8 r4, r0, r0, r1
	.loc	1 96 0
	crc8 r4, r0, r0, r1
	bu .LBB0_6
.LBB0_11:
.Lxtalabel11:
	ldw r1, cp[.LCPI0_0]
	.loc	1 99 0
	crc8 r4, r0, r0, r1
	bu .LBB0_10
.LBB0_12:
.Lxtalabel12:
.Ltmp46:
	mkmsk r0, 32
	.loc	1 119 0
	eq r0, r4, r0
	mov r4, r8
	bt r0, .LBB0_14
.Lxtalabel13:
	.loc	1 122 0
	ldw r0, dp[ethernet_filtered_by_bad_crc]
	add r0, r0, 1
	stw r0, dp[ethernet_filtered_by_bad_crc]
	.loc	3 149 0
.Ltmp47:
	#APP
	stw r5, r9[2]
	#NO_APP
.Ltmp48:
	.loc	3 152 0
	#APP
	stw r4, r9[5]
	#NO_APP
.Ltmp49:
	.loc	1 68 0
	clre
	ldap r11, .Ltmp23
	.loc	1 71 0
.Ltmp50:
	setv res[r7], r11
	mov r11, r5
	setev res[r7], r11
	eeu res[r7]
	.loc	1 168 0
	
	.xtabranch .LBB0_2
waiteu
.LBB0_14:
.Lxtalabel14:
	.loc	1 139 0
.Ltmp51:
	mov r0, r9
	mov r1, r5
.Lxta.call_labels1:
	bl mii_packet_get_data
	mov r10, r0
	.loc	1 140 0
.Ltmp52:
	mov r0, r9
	mov r1, r5
.Lxta.call_labels2:
	bl mii_packet_get_data
	.loc	1 140 0
	ldw r1, sp[3]
	eq r0, r0, r1
.Ltmp53:
	.loc	1 139 0
	zext r10, 1
.Ltmp54:
	.loc	1 140 0
	bf r0, .LBB0_16
	mov r0, r9
	mov r1, r4
	bl mii_packet_get_data
	shl r0, r0, 16
	ldw r1, sp[4]
	shl r1, r1, 16
	eq r0, r0, r1
.Ltmp55:
	bt r0, .LBB0_17
.LBB0_16:
.Ltmp56:
	.loc	1 141 0
	bf r10, .LBB0_19
.Ltmp57:
.LBB0_17:
.Lxtalabel15:
	.loc	1 147 0
	mov r0, r9
	ldaw r1, sp[3]
	ldc r2, 2
.Lxta.call_labels3:
	bl mac_custom_filter_coerce
	.loc	1 151 0
	bf r0, .LBB0_20
.Lxtalabel16:
	.loc	3 151 0
.Ltmp58:
	#APP
	stw r5, r9[4]
	#NO_APP
.Ltmp59:
	.loc	3 149 0
	#APP
	stw r0, r9[2]
	#NO_APP
.Ltmp60:
	.loc	3 152 0
	#APP
	stw r4, r9[5]
	#NO_APP
.Ltmp61:
	.loc	1 68 0
	clre
	ldap r11, .Ltmp23
	.loc	1 71 0
.Ltmp62:
	setv res[r7], r11
	mov r11, r5
	setev res[r7], r11
	eeu res[r7]
	.loc	1 168 0
	
	.xtabranch .LBB0_2
waiteu
.Ltmp63:
.LBB0_19:
.Lxtalabel17:
	.loc	1 155 0
	ldw r0, dp[ethernet_filtered_by_address]
	add r0, r0, 1
	stw r0, dp[ethernet_filtered_by_address]
	.loc	3 151 0
.Ltmp64:
	#APP
	stw r5, r9[4]
	#NO_APP
.Ltmp65:
	.loc	3 149 0
	#APP
	stw r5, r9[2]
	#NO_APP
.Ltmp66:
	.loc	3 152 0
	#APP
	stw r4, r9[5]
	#NO_APP
.Ltmp67:
	.loc	1 68 0
	clre
	ldap r11, .Ltmp23
	.loc	1 71 0
.Ltmp68:
	setv res[r7], r11
	mov r11, r5
	setev res[r7], r11
	eeu res[r7]
	.loc	1 168 0
	
	.xtabranch .LBB0_2
waiteu
.Ltmp69:
.LBB0_20:
.Lxtalabel18:
	.loc	1 151 0
	ldw r0, dp[ethernet_filtered_by_user_filter]
	add r0, r0, 1
	stw r0, dp[ethernet_filtered_by_user_filter]
	.loc	3 151 0
.Ltmp70:
	#APP
	stw r5, r9[4]
	#NO_APP
.Ltmp71:
	.loc	3 149 0
	#APP
	stw r5, r9[2]
	#NO_APP
.Ltmp72:
	.loc	3 152 0
	#APP
	stw r4, r9[5]
	#NO_APP
.Ltmp73:
	.loc	1 68 0
	clre
	ldap r11, .Ltmp23
	.loc	1 71 0
.Ltmp74:
	setv res[r7], r11
	mov r11, r5
	setev res[r7], r11
	eeu res[r7]
	.loc	1 168 0
	
	.xtabranch .LBB0_2
waiteu
.Ltmp75:
.Ltmp76:
	.size	ethernet_filter, .Ltmp76-ethernet_filter
.Lfunc_end0:
.Ltmp77:
	.cfi_endproc
.Leh_func_end0:

	.align	4
	.cc_bottom ethernet_filter.function
	.set	ethernet_filter.nstackwords,((mii_packet_get_data.nstackwords $M mac_custom_filter_coerce.nstackwords) + 12)
	.globl	ethernet_filter.nstackwords
	.set	ethernet_filter.maxcores,mac_custom_filter_coerce.maxcores $M mii_packet_get_data.maxcores $M 1
	.globl	ethernet_filter.maxcores
	.set	ethernet_filter.maxtimers,mac_custom_filter_coerce.maxtimers $M mii_packet_get_data.maxtimers $M 0
	.globl	ethernet_filter.maxtimers
	.set	ethernet_filter.maxchanends,mac_custom_filter_coerce.maxchanends $M mii_packet_get_data.maxchanends $M 0
	.globl	ethernet_filter.maxchanends
	.cc_top ethernet_get_filter_counts.function
	.globl	ethernet_get_filter_counts
	.align	4
	.type	ethernet_get_filter_counts,@function
ethernet_get_filter_counts:
.Ltmp78:
	.cfi_startproc
.Lfunc_begin1:
	.loc	1 49 0
.Lxtalabel19:
	.loc	1 50 0 prologue_end
	ldw r11, dp[ethernet_filtered_by_address]
	stw r11, r0[0]
	.loc	1 51 0
	ldw r0, dp[ethernet_filtered_by_user_filter]
.Ltmp79:
	stw r0, r1[0]
	.loc	1 52 0
	ldw r0, dp[ethernet_filtered_by_length]
	stw r0, r2[0]
	.loc	1 53 0
	ldw r0, dp[ethernet_filtered_by_bad_crc]
	stw r0, r3[0]
	retsp 0
.Ltmp80:
.Ltmp81:
	.size	ethernet_get_filter_counts, .Ltmp81-ethernet_get_filter_counts
.Lfunc_end1:
.Ltmp82:
	.cfi_endproc
.Leh_func_end1:

	.align	4
	.cc_bottom ethernet_get_filter_counts.function
	.set	ethernet_get_filter_counts.nstackwords,0
	.globl	ethernet_get_filter_counts.nstackwords
	.set	ethernet_get_filter_counts.maxcores,1
	.globl	ethernet_get_filter_counts.maxcores
	.set	ethernet_get_filter_counts.maxtimers,0
	.globl	ethernet_get_filter_counts.maxtimers
	.set	ethernet_get_filter_counts.maxchanends,0
	.globl	ethernet_get_filter_counts.maxchanends
	.cc_top mac_custom_filter_coerce1.function
	.globl	mac_custom_filter_coerce1
	.align	4
	.type	mac_custom_filter_coerce1,@function
mac_custom_filter_coerce1:
.Ltmp85:
	.cfi_startproc
.Lfunc_begin2:
	.loc	1 180 0
.Lxtalabel20:
	entsp 1
.Ltmp86:
	.cfi_def_cfa_offset 4
.Ltmp87:
	.cfi_offset 15, 0
	.loc	1 178 0 prologue_end
.Ltmp88:
	stw r4, sp[0]
.Ltmp89:
	.cfi_offset 4, -4
	ldc r3, 4
	.loc	4 16 0
.Ltmp90:
	lsu r1, r2, r3
.Ltmp91:
	ecallt r1
.Ltmp92:
	ldw r1, r0[3]
.Ltmp93:
	.loc	4 17 0
	mov r11, r1
	zext r11, 16
	ldc r4, 129
	.loc	4 19 0
	eq r11, r11, r4
	bf r11, .LBB2_2
.Lxtalabel21:
.Ltmp94:
	.loc	4 21 0
	lsu r1, r3, r2
.Ltmp95:
	ecallf r1
.Ltmp96:
	ldw r1, r0[4]
.Ltmp97:
.LBB2_2:
.Lxtalabel22:
	.loc	4 24 0
	zext r1, 16
.Ltmp98:
	eq r0, r1, 8
	bt r0, .LBB2_5
.Ltmp99:
.Lxtalabel23:
	ldc r0, 1544
	eq r0, r1, r0
	bt r0, .LBB2_5
	ldc r0, 0
	ldw r4, sp[0]
	retsp 1
.LBB2_5:
.Lxtalabel24:
	mkmsk r0, 1
.Ltmp100:
	ldw r4, sp[0]
	retsp 1
.Ltmp101:
.Ltmp102:
	.size	mac_custom_filter_coerce1, .Ltmp102-mac_custom_filter_coerce1
.Lfunc_end2:
.Ltmp103:
	.cfi_endproc
.Leh_func_end2:

	.align	4
	.cc_bottom mac_custom_filter_coerce1.function
	.set	mac_custom_filter_coerce1.nstackwords,1
	.globl	mac_custom_filter_coerce1.nstackwords
	.set	mac_custom_filter_coerce1.maxcores,1
	.globl	mac_custom_filter_coerce1.maxcores
	.set	mac_custom_filter_coerce1.maxtimers,0
	.globl	mac_custom_filter_coerce1.maxtimers
	.set	mac_custom_filter_coerce1.maxchanends,0
	.globl	mac_custom_filter_coerce1.maxchanends
	.section	.dp.bss,"awd",@nobits
	.cc_top ethernet_filtered_by_address.data
	.align	4
	.type	ethernet_filtered_by_address,@object
	.size ethernet_filtered_by_address,4
ethernet_filtered_by_address:
	.long	0
	.cc_bottom ethernet_filtered_by_address.data
	.cc_top ethernet_filtered_by_user_filter.data
	.align	4
	.type	ethernet_filtered_by_user_filter,@object
	.size ethernet_filtered_by_user_filter,4
ethernet_filtered_by_user_filter:
	.long	0
	.cc_bottom ethernet_filtered_by_user_filter.data
	.cc_top ethernet_filtered_by_length.data
	.align	4
	.type	ethernet_filtered_by_length,@object
	.size ethernet_filtered_by_length,4
ethernet_filtered_by_length:
	.long	0
	.cc_bottom ethernet_filtered_by_length.data
	.cc_top ethernet_filtered_by_bad_crc.data
	.align	4
	.type	ethernet_filtered_by_bad_crc,@object
	.size ethernet_filtered_by_bad_crc,4
ethernet_filtered_by_bad_crc:
	.long	0
	.cc_bottom ethernet_filtered_by_bad_crc.data
	.cfi_sections .debug_frame
	.text
.Ltext_end:
	.section	.dp.data,"awd",@progbits
.Ldata_end:
	.text
.Lsection_end1:
	.section	.xtacalltable,"",@progbits
.Lentries_start0:
	.long	.Lentries_end1-.Lentries_start0
	.long	0
	.ascii	 "/home/vdelacruz/Documents/Ethernet sin mii/app_simple_webserver/.build_IPV4"
	.byte	0
.cc_top cc_0,.Lxta.call_labels0
	.ascii	 "/home/vdelacruz/Documents/Ethernet sin mii/module_ethernet/src/full/mii_filter.xc"
	.byte	0
	.long	83
	.long	.Lxta.call_labels0
.cc_bottom cc_0
.cc_top cc_1,.Lxta.call_labels1
	.ascii	 "/home/vdelacruz/Documents/Ethernet sin mii/module_ethernet/src/full/mii_filter.xc"
	.byte	0
	.long	139
	.long	.Lxta.call_labels1
.cc_bottom cc_1
.cc_top cc_2,.Lxta.call_labels2
	.ascii	 "/home/vdelacruz/Documents/Ethernet sin mii/module_ethernet/src/full/mii_filter.xc"
	.byte	0
	.long	140
	.long	.Lxta.call_labels2
.cc_bottom cc_2
.cc_top cc_3,.Lxta.call_labels3
	.ascii	 "/home/vdelacruz/Documents/Ethernet sin mii/module_ethernet/src/full/mii_filter.xc"
	.byte	0
	.long	147
	.long	.Lxta.call_labels3
.cc_bottom cc_3
.Lentries_end1:
	.section	.xtaendpoint,"",@progbits
.Lentries_start2:
	.long	.Lentries_end3-.Lentries_start2
	.long	1
	.ascii	 "/home/vdelacruz/Documents/Ethernet sin mii/app_simple_webserver/.build_IPV4"
	.byte	0
	.ascii	 "rx_packet"
	.byte	0
	.ascii	 "/home/vdelacruz/Documents/Ethernet sin mii/module_ethernet/src/full/mii_filter.xc"
	.byte	0
	.long	70
	.long	.Laddr_end1-.Laddr_start0
.Laddr_start0:
.cc_top cc_4,.Lxta.endpoint_labels0
	.long	.Lxta.endpoint_labels0
	.byte	0
.cc_bottom cc_4
.Laddr_end1:
.Lentries_end3:
	.section	.xtaendpointtable,"",@progbits
.Lentries_start4:
	.long	.Lentries_end5-.Lentries_start4
	.long	0
	.ascii	 "/home/vdelacruz/Documents/Ethernet sin mii/app_simple_webserver/.build_IPV4"
	.byte	0
.cc_top cc_5,.Lxta.endpoint_labels0
	.ascii	 "/home/vdelacruz/Documents/Ethernet sin mii/module_ethernet/src/full/mii_filter.xc"
	.byte	0
	.long	68
	.long	.Lxta.endpoint_labels0
.cc_bottom cc_5
.Lentries_end5:
	.section	.xtalabeltable,"",@progbits
.Lentries_start6:
	.long	.Lentries_end7-.Lentries_start6
	.long	0
	.ascii	 "/home/vdelacruz/Documents/Ethernet sin mii/app_simple_webserver/.build_IPV4"
	.byte	0
.cc_top cc_6,.Lxtalabel19
	.ascii	 "/home/vdelacruz/Documents/Ethernet sin mii/module_ethernet/src/full/mii_filter.xc"
	.byte	0
	.long	49
	.long	54
	.long	.Lxtalabel19
.cc_bottom cc_6
.cc_top cc_7,.Lxtalabel0
	.ascii	 "/home/vdelacruz/Documents/Ethernet sin mii/module_ethernet/src/full/mii_filter.xc"
	.byte	0
	.long	60
	.long	66
	.long	.Lxtalabel0
.cc_bottom cc_7
.cc_top cc_8,.Lxtalabel1
	.ascii	 "/home/vdelacruz/Documents/Ethernet sin mii/module_ethernet/src/full/mii_filter.xc"
	.byte	0
	.long	67
	.long	71
	.long	.Lxtalabel1
.cc_bottom cc_8
.cc_top cc_9,.Lxtalabel17
	.ascii	 "/home/vdelacruz/Documents/Ethernet sin mii/module_ethernet/src/full/mii_filter.xc"
	.byte	0
	.long	67
	.long	71
	.long	.Lxtalabel17
.cc_bottom cc_9
.cc_top cc_10,.Lxtalabel16
	.ascii	 "/home/vdelacruz/Documents/Ethernet sin mii/module_ethernet/src/full/mii_filter.xc"
	.byte	0
	.long	67
	.long	71
	.long	.Lxtalabel16
.cc_bottom cc_10
.cc_top cc_11,.Lxtalabel18
	.ascii	 "/home/vdelacruz/Documents/Ethernet sin mii/module_ethernet/src/full/mii_filter.xc"
	.byte	0
	.long	67
	.long	71
	.long	.Lxtalabel18
.cc_bottom cc_11
.cc_top cc_12,.Lxtalabel7
	.ascii	 "/home/vdelacruz/Documents/Ethernet sin mii/module_ethernet/src/full/mii_filter.xc"
	.byte	0
	.long	67
	.long	71
	.long	.Lxtalabel7
.cc_bottom cc_12
.cc_top cc_13,.Lxtalabel13
	.ascii	 "/home/vdelacruz/Documents/Ethernet sin mii/module_ethernet/src/full/mii_filter.xc"
	.byte	0
	.long	67
	.long	71
	.long	.Lxtalabel13
.cc_bottom cc_13
.cc_top cc_14,.Lxtalabel2
	.ascii	 "/home/vdelacruz/Documents/Ethernet sin mii/module_ethernet/src/full/mii_filter.xc"
	.byte	0
	.long	72
	.long	73
	.long	.Lxtalabel2
.cc_bottom cc_14
.cc_top cc_15,.Lxtalabel3
	.ascii	 "/home/vdelacruz/Documents/Ethernet sin mii/module_ethernet/src/full/mii_filter.xc"
	.byte	0
	.long	74
	.long	89
	.long	.Lxtalabel3
.cc_bottom cc_15
.cc_top cc_16,.Lxtalabel4
	.ascii	 "/home/vdelacruz/Documents/Ethernet sin mii/module_ethernet/src/full/mii_filter.xc"
	.byte	0
	.long	74
	.long	89
	.long	.Lxtalabel4
.cc_bottom cc_16
.cc_top cc_17,.Lxtalabel5
	.ascii	 "/home/vdelacruz/Documents/Ethernet sin mii/module_ethernet/src/full/mii_filter.xc"
	.byte	0
	.long	74
	.long	89
	.long	.Lxtalabel5
.cc_bottom cc_17
.cc_top cc_18,.Lxtalabel3
	.ascii	 "/home/vdelacruz/Documents/Ethernet sin mii/module_ethernet/src/full/mii_filter.xc"
	.byte	0
	.long	90
	.long	91
	.long	.Lxtalabel3
.cc_bottom cc_18
.cc_top cc_19,.Lxtalabel4
	.ascii	 "/home/vdelacruz/Documents/Ethernet sin mii/module_ethernet/src/full/mii_filter.xc"
	.byte	0
	.long	90
	.long	91
	.long	.Lxtalabel4
.cc_bottom cc_19
.cc_top cc_20,.Lxtalabel5
	.ascii	 "/home/vdelacruz/Documents/Ethernet sin mii/module_ethernet/src/full/mii_filter.xc"
	.byte	0
	.long	90
	.long	91
	.long	.Lxtalabel5
.cc_bottom cc_20
.cc_top cc_21,.Lxtalabel8
	.ascii	 "/home/vdelacruz/Documents/Ethernet sin mii/module_ethernet/src/full/mii_filter.xc"
	.byte	0
	.long	92
	.long	94
	.long	.Lxtalabel8
.cc_bottom cc_21
.cc_top cc_22,.Lxtalabel10
	.ascii	 "/home/vdelacruz/Documents/Ethernet sin mii/module_ethernet/src/full/mii_filter.xc"
	.byte	0
	.long	95
	.long	98
	.long	.Lxtalabel10
.cc_bottom cc_22
.cc_top cc_23,.Lxtalabel9
	.ascii	 "/home/vdelacruz/Documents/Ethernet sin mii/module_ethernet/src/full/mii_filter.xc"
	.byte	0
	.long	95
	.long	98
	.long	.Lxtalabel9
.cc_bottom cc_23
.cc_top cc_24,.Lxtalabel11
	.ascii	 "/home/vdelacruz/Documents/Ethernet sin mii/module_ethernet/src/full/mii_filter.xc"
	.byte	0
	.long	99
	.long	103
	.long	.Lxtalabel11
.cc_bottom cc_24
.cc_top cc_25,.Lxtalabel6
	.ascii	 "/home/vdelacruz/Documents/Ethernet sin mii/module_ethernet/src/full/mii_filter.xc"
	.byte	0
	.long	104
	.long	107
	.long	.Lxtalabel6
.cc_bottom cc_25
.cc_top cc_26,.Lxtalabel7
	.ascii	 "/home/vdelacruz/Documents/Ethernet sin mii/module_ethernet/src/full/mii_filter.xc"
	.byte	0
	.long	108
	.long	114
	.long	.Lxtalabel7
.cc_bottom cc_26
.cc_top cc_27,.Lxtalabel7
	.ascii	 "/home/vdelacruz/Documents/Ethernet sin mii/module_ethernet/src/full/mii_filter.xc"
	.byte	0
	.long	117
	.long	117
	.long	.Lxtalabel7
.cc_bottom cc_27
.cc_top cc_28,.Lxtalabel12
	.ascii	 "/home/vdelacruz/Documents/Ethernet sin mii/module_ethernet/src/full/mii_filter.xc"
	.byte	0
	.long	118
	.long	119
	.long	.Lxtalabel12
.cc_bottom cc_28
.cc_top cc_29,.Lxtalabel13
	.ascii	 "/home/vdelacruz/Documents/Ethernet sin mii/module_ethernet/src/full/mii_filter.xc"
	.byte	0
	.long	120
	.long	126
	.long	.Lxtalabel13
.cc_bottom cc_29
.cc_top cc_30,.Lxtalabel13
	.ascii	 "/home/vdelacruz/Documents/Ethernet sin mii/module_ethernet/src/full/mii_filter.xc"
	.byte	0
	.long	130
	.long	130
	.long	.Lxtalabel13
.cc_bottom cc_30
.cc_top cc_31,.Lxtalabel14
	.ascii	 "/home/vdelacruz/Documents/Ethernet sin mii/module_ethernet/src/full/mii_filter.xc"
	.byte	0
	.long	131
	.long	141
	.long	.Lxtalabel14
.cc_bottom cc_31
.cc_top cc_32,.Lxtalabel15
	.ascii	 "/home/vdelacruz/Documents/Ethernet sin mii/module_ethernet/src/full/mii_filter.xc"
	.byte	0
	.long	142
	.long	151
	.long	.Lxtalabel15
.cc_bottom cc_32
.cc_top cc_33,.Lxtalabel17
	.ascii	 "/home/vdelacruz/Documents/Ethernet sin mii/module_ethernet/src/full/mii_filter.xc"
	.byte	0
	.long	154
	.long	157
	.long	.Lxtalabel17
.cc_bottom cc_33
.cc_top cc_34,.Lxtalabel18
	.ascii	 "/home/vdelacruz/Documents/Ethernet sin mii/module_ethernet/src/full/mii_filter.xc"
	.byte	0
	.long	158
	.long	161
	.long	.Lxtalabel18
.cc_bottom cc_34
.cc_top cc_35,.Lxtalabel16
	.ascii	 "/home/vdelacruz/Documents/Ethernet sin mii/module_ethernet/src/full/mii_filter.xc"
	.byte	0
	.long	158
	.long	161
	.long	.Lxtalabel16
.cc_bottom cc_35
.cc_top cc_36,.Lxtalabel17
	.ascii	 "/home/vdelacruz/Documents/Ethernet sin mii/module_ethernet/src/full/mii_filter.xc"
	.byte	0
	.long	158
	.long	161
	.long	.Lxtalabel17
.cc_bottom cc_36
.cc_top cc_37,.Lxtalabel17
	.ascii	 "/home/vdelacruz/Documents/Ethernet sin mii/module_ethernet/src/full/mii_filter.xc"
	.byte	0
	.long	164
	.long	166
	.long	.Lxtalabel17
.cc_bottom cc_37
.cc_top cc_38,.Lxtalabel18
	.ascii	 "/home/vdelacruz/Documents/Ethernet sin mii/module_ethernet/src/full/mii_filter.xc"
	.byte	0
	.long	164
	.long	166
	.long	.Lxtalabel18
.cc_bottom cc_38
.cc_top cc_39,.Lxtalabel16
	.ascii	 "/home/vdelacruz/Documents/Ethernet sin mii/module_ethernet/src/full/mii_filter.xc"
	.byte	0
	.long	164
	.long	166
	.long	.Lxtalabel16
.cc_bottom cc_39
.cc_top cc_40,.Lxtalabel20
	.ascii	 "/home/vdelacruz/Documents/Ethernet sin mii/module_ethernet/src/full/mii_filter.xc"
	.byte	0
	.long	179
	.long	186
	.long	.Lxtalabel20
.cc_bottom cc_40
.cc_top cc_41,.Lxtalabel21
	.ascii	 "xtcp_mac_filter.h"
	.byte	0
	.long	20
	.long	22
	.long	.Lxtalabel21
.cc_bottom cc_41
.cc_top cc_42,.Lxtalabel22
	.ascii	 "xtcp_mac_filter.h"
	.byte	0
	.long	23
	.long	25
	.long	.Lxtalabel22
.cc_bottom cc_42
.cc_top cc_43,.Lxtalabel23
	.ascii	 "xtcp_mac_filter.h"
	.byte	0
	.long	23
	.long	25
	.long	.Lxtalabel23
.cc_bottom cc_43
.cc_top cc_44,.Lxtalabel22
	.ascii	 "xtcp_mac_filter.h"
	.byte	0
	.long	26
	.long	26
	.long	.Lxtalabel22
.cc_bottom cc_44
.cc_top cc_45,.Lxtalabel23
	.ascii	 "xtcp_mac_filter.h"
	.byte	0
	.long	26
	.long	26
	.long	.Lxtalabel23
.cc_bottom cc_45
.cc_top cc_46,.Lxtalabel24
	.ascii	 "xtcp_mac_filter.h"
	.byte	0
	.long	27
	.long	29
	.long	.Lxtalabel24
.cc_bottom cc_46
.cc_top cc_47,.Lxtalabel22
	.ascii	 "xtcp_mac_filter.h"
	.byte	0
	.long	30
	.long	31
	.long	.Lxtalabel22
.cc_bottom cc_47
.cc_top cc_48,.Lxtalabel23
	.ascii	 "xtcp_mac_filter.h"
	.byte	0
	.long	30
	.long	31
	.long	.Lxtalabel23
.cc_bottom cc_48
.cc_top cc_49,.Lxtalabel24
	.ascii	 "xtcp_mac_filter.h"
	.byte	0
	.long	32
	.long	34
	.long	.Lxtalabel24
.cc_bottom cc_49
.Lentries_end7:
