	.file	"/home/vdelacruz/Documents/Ethernet 2 Ports/module_ethernet/src/full/mii_wrappers.c"

.set ethernet_rx_server_wr.locnoside, 1

.set ethernet_rx_server_wr.locnochandec, 1

.set ethernet_rx_server_wr.locnoglobalaccess, 1

.set ethernet_rx_server_wr.locnointerfaceaccess, 1

.set ethernet_rx_server_wr.locnonotificationselect, 1

.set ethernet_tx_server_wr.locnoside, 1

.set ethernet_tx_server_wr.locnochandec, 1

.set ethernet_tx_server_wr.locnoglobalaccess, 1

.set ethernet_tx_server_wr.locnointerfaceaccess, 1

.set ethernet_tx_server_wr.locnonotificationselect, 1

.set mii_tx_pins_wr.locnoside, 1

.set mii_tx_pins_wr.locnochandec, 1

.set mii_tx_pins_wr.locnoglobalaccess, 1

.set mii_tx_pins_wr.locnointerfaceaccess, 1

.set mii_tx_pins_wr.locnonotificationselect, 1

.set mii_rx_pins_wr.locnoside, 1

.set mii_rx_pins_wr.locnochandec, 1

.set mii_rx_pins_wr.locnoglobalaccess, 1

.set mii_rx_pins_wr.locnointerfaceaccess, 1

.set mii_rx_pins_wr.locnonotificationselect, 1

.set init_mii_mem.locnoside, 1

.set init_mii_mem.locnochandec, 1

.set init_mii_mem.locnoglobalaccess, 1

.set init_mii_mem.locnointerfaceaccess, 1

.set init_mii_mem.locnonotificationselect, 1


	.file	1 "/home/vdelacruz/Documents/Ethernet 2 Ports/module_ethernet/src/full/mii_wrappers.c"
	.file	2 "/home/vdelacruz/Documents/Ethernet 2 Ports/module_locks/src/hwlock.h"
	.file	3 "/home/vdelacruz/Documents/Ethernet 2 Ports/module_ethernet/src/full/mii_queue.h"
	.file	4 "/home/vdelacruz/Documents/Ethernet 2 Ports/module_ethernet/src/full/mii_full.h"
	.file	5 "/home/vdelacruz/Documents/Ethernet 2 Ports/module_ethernet/src/full/mii_malloc.h"
	.text
.Ltext_begin:
	.section	.dp.data,"awd",@progbits
	.text
	.cc_top ethernet_rx_server_wr.function
	.globl	ethernet_rx_server_wr
	.align	2
	.type	ethernet_rx_server_wr,@function
ethernet_rx_server_wr:
.Ltmp1:
	.cfi_startproc
.Lfunc_begin0:
	.loc	1 136 0
	entsp 1
.Ltmp2:
	.cfi_def_cfa_offset 4
.Ltmp3:
	.cfi_offset 15, 0
	mov r2, r1
.Ltmp4:
	mov r1, r0
.Ltmp5:
	.loc	1 137 0 prologue_end
	ldaw r0, dp[rx_mem_lp]
	bl ethernet_rx_server
.Ltmp6:
	.loc	1 144 0
	retsp 1
.Ltmp7:
.Ltmp8:
	.size	ethernet_rx_server_wr, .Ltmp8-ethernet_rx_server_wr
.Lfunc_end0:
	.file	6 "/home/vdelacruz/XMOS/xTIMEcomposer/Community_13.1.0//target/include/xccompat.h"
.Ltmp9:
	.cfi_endproc
.Leh_func_end0:

	.cc_bottom ethernet_rx_server_wr.function
	.set	ethernet_rx_server_wr.nstackwords,(ethernet_rx_server.nstackwords + 1)
	.globl	ethernet_rx_server_wr.nstackwords
	.set	ethernet_rx_server_wr.maxcores,ethernet_rx_server.maxcores $M 1
	.globl	ethernet_rx_server_wr.maxcores
	.set	ethernet_rx_server_wr.maxtimers,ethernet_rx_server.maxtimers $M 0
	.globl	ethernet_rx_server_wr.maxtimers
	.set	ethernet_rx_server_wr.maxchanends,ethernet_rx_server.maxchanends $M 0
	.globl	ethernet_rx_server_wr.maxchanends
	.cc_top ethernet_tx_server_wr.function
	.globl	ethernet_tx_server_wr
	.align	2
	.type	ethernet_tx_server_wr,@function
ethernet_tx_server_wr:
.Ltmp11:
	.cfi_startproc
.Lfunc_begin1:
	.loc	1 119 0
	entsp 5
.Ltmp12:
	.cfi_def_cfa_offset 20
.Ltmp13:
	.cfi_offset 15, 0
	mov r11, r0
.Ltmp14:
	ldw r0, sp[7]
	.loc	1 121 0 prologue_end
.Ltmp15:
	stw r0, sp[4]
	ldw r0, sp[6]
	stw r0, sp[3]
	stw r3, sp[2]
	stw r1, sp[1]
	ldaw r0, dp[tx_mem_lp]
	ldaw r3, dp[ts_queue]
.Ltmp16:
	mov r1, r2
.Ltmp17:
	mov r2, r3
	mov r3, r11
.Ltmp18:
	bl ethernet_tx_server
.Ltmp19:
	.loc	1 133 0
	retsp 5
.Ltmp20:
.Ltmp21:
	.size	ethernet_tx_server_wr, .Ltmp21-ethernet_tx_server_wr
.Lfunc_end1:
	.file	7 "/home/vdelacruz/Documents/Ethernet 2 Ports/module_ethernet_smi/src/smi.h"
.Ltmp22:
	.cfi_endproc
.Leh_func_end1:

	.cc_bottom ethernet_tx_server_wr.function
	.set	ethernet_tx_server_wr.nstackwords,(ethernet_tx_server.nstackwords + 5)
	.globl	ethernet_tx_server_wr.nstackwords
	.set	ethernet_tx_server_wr.maxcores,ethernet_tx_server.maxcores $M 1
	.globl	ethernet_tx_server_wr.maxcores
	.set	ethernet_tx_server_wr.maxtimers,ethernet_tx_server.maxtimers $M 0
	.globl	ethernet_tx_server_wr.maxtimers
	.set	ethernet_tx_server_wr.maxchanends,ethernet_tx_server.maxchanends $M 0
	.globl	ethernet_tx_server_wr.maxchanends
	.cc_top mii_tx_pins_wr.function
	.globl	mii_tx_pins_wr
	.align	2
	.type	mii_tx_pins_wr,@function
mii_tx_pins_wr:
.Ltmp24:
	.cfi_startproc
.Lfunc_begin2:
	.loc	1 103 0
	entsp 1
.Ltmp25:
	.cfi_def_cfa_offset 4
.Ltmp26:
	.cfi_offset 15, 0
	mov r3, r1
.Ltmp27:
	mov r2, r0
.Ltmp28:
	.loc	1 104 0 prologue_end
	ldaw r0, dp[tx_mem_lp]
	ldw r0, r0[r3]
	ldc r1, 36
	mul r1, r3, r1
	ldaw r11, dp[ts_queue]
	add r1, r11, r1
	bl mii_tx_pins
.Ltmp29:
	.loc	1 115 0
	retsp 1
.Ltmp30:
.Ltmp31:
	.size	mii_tx_pins_wr, .Ltmp31-mii_tx_pins_wr
.Lfunc_end2:
.Ltmp32:
	.cfi_endproc
.Leh_func_end2:

	.cc_bottom mii_tx_pins_wr.function
	.set	mii_tx_pins_wr.nstackwords,(mii_tx_pins.nstackwords + 1)
	.globl	mii_tx_pins_wr.nstackwords
	.set	mii_tx_pins_wr.maxcores,mii_tx_pins.maxcores $M 1
	.globl	mii_tx_pins_wr.maxcores
	.set	mii_tx_pins_wr.maxtimers,mii_tx_pins.maxtimers $M 0
	.globl	mii_tx_pins_wr.maxtimers
	.set	mii_tx_pins_wr.maxchanends,mii_tx_pins.maxchanends $M 0
	.globl	mii_tx_pins_wr.maxchanends
	.cc_top mii_rx_pins_wr.function
	.globl	mii_rx_pins_wr
	.align	2
	.type	mii_rx_pins_wr,@function
mii_rx_pins_wr:
.Ltmp34:
	.cfi_startproc
.Lfunc_begin3:
	.loc	1 93 0
	entsp 2
.Ltmp35:
	.cfi_def_cfa_offset 8
.Ltmp36:
	.cfi_offset 15, 0
	mov r11, r2
.Ltmp37:
	mov r2, r1
.Ltmp38:
	mov r1, r0
.Ltmp39:
	.loc	1 94 0 prologue_end
	ldaw r0, dp[rx_mem_lp]
	ldw r0, r0[r11]
	stw r3, sp[1]
	mov r3, r11
.Ltmp40:
	bl mii_rx_pins
.Ltmp41:
	.loc	1 99 0
	retsp 2
.Ltmp42:
.Ltmp43:
	.size	mii_rx_pins_wr, .Ltmp43-mii_rx_pins_wr
.Lfunc_end3:
.Ltmp44:
	.cfi_endproc
.Leh_func_end3:

	.cc_bottom mii_rx_pins_wr.function
	.set	mii_rx_pins_wr.nstackwords,(mii_rx_pins.nstackwords + 2)
	.globl	mii_rx_pins_wr.nstackwords
	.set	mii_rx_pins_wr.maxcores,mii_rx_pins.maxcores $M 1
	.globl	mii_rx_pins_wr.maxcores
	.set	mii_rx_pins_wr.maxtimers,mii_rx_pins.maxtimers $M 0
	.globl	mii_rx_pins_wr.maxtimers
	.set	mii_rx_pins_wr.maxchanends,mii_rx_pins.maxchanends $M 0
	.globl	mii_rx_pins_wr.maxchanends
	.cc_top init_mii_mem.function
	.globl	init_mii_mem
	.align	2
	.type	init_mii_mem,@function
init_mii_mem:
.Ltmp47:
	.cfi_startproc
.Lfunc_begin4:
	.loc	1 54 0
	entsp 2
.Ltmp48:
	.cfi_def_cfa_offset 8
.Ltmp49:
	.cfi_offset 15, 0
	.loc	2 32 0 prologue_end
.Ltmp50:
	stw r4, sp[1]
.Ltmp51:
	.cfi_offset 4, -4
	#APP
	getr r0, 0x5
	#NO_APP
.Ltmp52:
	.loc	1 56 0
	stw r0, dp[ethernet_memory_lock]
.Ltmp53:
	.loc	1 71 0
	ldaw r0, dp[ts_queue]
.Ltmp54:
	bl init_ts_queue
.Ltmp55:
	.loc	1 76 0
	ldaw r0, dp[rx_lp_data]
	stw r0, dp[rx_mem_lp]
.Ltmp56:
	ldc r4, 4096
	.loc	1 77 0
	mov r1, r4
	bl mii_init_mempool
	.loc	1 80 0
	ldaw r0, dp[tx_lp_data]
	stw r0, dp[tx_mem_lp]
	.loc	1 81 0
	mov r1, r4
	bl mii_init_mempool
.Ltmp57:
	.loc	1 86 0
	ldw r4, sp[1]
	retsp 2
.Ltmp58:
.Ltmp59:
	.size	init_mii_mem, .Ltmp59-init_mii_mem
.Lfunc_end4:
.Ltmp60:
	.cfi_endproc
.Leh_func_end4:

	.cc_bottom init_mii_mem.function
	.set	init_mii_mem.nstackwords,((init_ts_queue.nstackwords $M mii_init_mempool.nstackwords) + 2)
	.globl	init_mii_mem.nstackwords
	.set	init_mii_mem.maxcores,init_ts_queue.maxcores $M mii_init_mempool.maxcores $M 1
	.globl	init_mii_mem.maxcores
	.set	init_mii_mem.maxtimers,init_ts_queue.maxtimers $M mii_init_mempool.maxtimers $M 0
	.globl	init_mii_mem.maxtimers
	.set	init_mii_mem.maxchanends,init_ts_queue.maxchanends $M mii_init_mempool.maxchanends $M 0
	.globl	init_mii_mem.maxchanends
	.section	.dp.bss,"awd",@nobits
	.cc_top ethernet_memory_lock.data
	.globl	ethernet_memory_lock
	.align	4
	.type	ethernet_memory_lock,@object
	.size ethernet_memory_lock,4
ethernet_memory_lock:
	.long	0
	.cc_bottom ethernet_memory_lock.data
	.cc_top rx_mem_lp.data
	.globl	rx_mem_lp.globound
	.set	rx_mem_lp.globound,1
	.globl	rx_mem_lp
	.align	4
	.type	rx_mem_lp,@object
	.size rx_mem_lp,4
rx_mem_lp:
	.space	4
	.cc_bottom rx_mem_lp.data
	.cc_top tx_mem_lp.data
	.globl	tx_mem_lp.globound
	.set	tx_mem_lp.globound,1
	.globl	tx_mem_lp
	.align	4
	.type	tx_mem_lp,@object
	.size tx_mem_lp,4
tx_mem_lp:
	.space	4
	.cc_bottom tx_mem_lp.data
	.cc_top ts_queue.data
	.globl	ts_queue.globound
	.set	ts_queue.globound,1
	.globl	ts_queue
	.align	4
	.type	ts_queue,@object
	.size ts_queue,36
ts_queue:
	.space	36
	.cc_bottom ts_queue.data
	.cc_top rx_lp_data.data
	.globl	rx_lp_data.globound
	.set	rx_lp_data.globound,1
	.globl	rx_lp_data
	.align	4
	.type	rx_lp_data,@object
	.size rx_lp_data,4096
rx_lp_data:
	.space	4096
	.cc_bottom rx_lp_data.data
	.cc_top tx_lp_data.data
	.globl	tx_lp_data.globound
	.set	tx_lp_data.globound,1
	.globl	tx_lp_data
	.align	4
	.type	tx_lp_data,@object
	.size tx_lp_data,4096
tx_lp_data:
	.space	4096
	.cc_bottom tx_lp_data.data
	.cfi_sections .debug_frame
	.text
.Ltext_end:
	.section	.dp.data,"awd",@progbits
.Ldata_end:
	.text
.Lsection_end1: