	.file	"/home/vdelacruz/Documents/Ethernet sin mii/module_ethernet/src/lite/mii_driver.xc"

	.inline_definition delay_seconds
	.inline_definition delay_milliseconds
	.inline_definition delay_microseconds
	.set usage.anon.0,0
	.set usage.anon.1,0
	.set usage.anon.2,0
	.call mii_driver,miiLLD
	.call mii_initialise,phy_reset
	.call mii_initialise,mii_port_init
	.call usage.anon.2,delay_ticks_longlong
	.call usage.anon.1,delay_ticks_longlong
	.call usage.anon.0,delay_ticks_longlong
	.set usage.anon.0.locnoside, 1
	.set usage.anon.1.locnoside, 1
	.set usage.anon.2.locnoside, 1
	.set usage.anon.0.locnochandec, 1
	.set usage.anon.1.locnochandec, 1
	.set usage.anon.2.locnochandec, 1
	.set mii_initialise.locnochandec, 1
	.set mii_driver.locnochandec, 1
	.set usage.anon.0.locnoglobalaccess, 1
	.set usage.anon.1.locnoglobalaccess, 1
	.set usage.anon.2.locnoglobalaccess, 1
	.set mii_initialise.locnoglobalaccess, 1
	.set mii_driver.locnoglobalaccess, 1
	.set usage.anon.0.locnointerfaceaccess, 1
	.set usage.anon.1.locnointerfaceaccess, 1
	.set usage.anon.2.locnointerfaceaccess, 1
	.set mii_initialise.locnointerfaceaccess, 1
	.set mii_driver.locnointerfaceaccess, 1
	.set usage.anon.0.locnonotificationselect, 1
	.set usage.anon.1.locnonotificationselect, 1
	.set usage.anon.2.locnonotificationselect, 1
	.set mii_initialise.locnonotificationselect, 1
	.set mii_driver.locnonotificationselect, 1


	.file	1 "/home/vdelacruz/Documents/Ethernet sin mii/module_ethernet/src/lite/mii_driver.xc"
	.file	2 "/home/vdelacruz/Documents/Ethernet sin mii/app_simple_webserver/.build_IPV4/timer.h"
	.text
.Ltext_begin:
	.section	.dp.data,"awd",@progbits
	.text
	.cc_top mii_initialise.function
	.globl	mii_initialise
	.align	4
	.type	mii_initialise,@function
mii_initialise:
.Ltmp2:
	.cfi_startproc
.Lfunc_begin0:
	.loc	1 17 0
.Lxtalabel0:
	entsp 2
.Ltmp3:
	.cfi_def_cfa_offset 8
.Ltmp4:
	.cfi_offset 15, 0
	.loc	1 15 0 prologue_end
.Ltmp5:
	stw r4, sp[1]
.Ltmp6:
	.cfi_offset 4, -4
	mov r4, r1
.Ltmp7:
	.loc	1 20 0
	bf r0, .LBB0_2
.Lxtalabel1:
.Ltmp8:
	.loc	1 21 0
	ldaw r1, dp[__timers]
	get r11, id
	ldw r1, r1[r11]
.Ltmp9:
	.loc	1 22 0
.Lxta.call_labels0:
	bl phy_reset
.Ltmp10:
.LBB0_2:
.Lxtalabel2:
	.loc	1 26 0
	mov r0, r4
.Lxta.call_labels1:
	bl mii_port_init
	ldw r4, sp[1]
.Ltmp11:
	retsp 2
.Ltmp12:
.Ltmp13:
	.size	mii_initialise, .Ltmp13-mii_initialise
.Lfunc_end0:
.Ltmp14:
	.cfi_endproc
.Leh_func_end0:

	.align	4
	.cc_bottom mii_initialise.function
	.set	mii_initialise.nstackwords,((mii_port_init.nstackwords $M phy_reset.nstackwords) + 2)
	.globl	mii_initialise.nstackwords
	.set	mii_initialise.maxcores,mii_port_init.maxcores $M phy_reset.maxcores $M 1
	.globl	mii_initialise.maxcores
	.set	mii_initialise.maxtimers,mii_port_init.maxtimers $M phy_reset.maxtimers $M 0
	.globl	mii_initialise.maxtimers
	.set	mii_initialise.maxchanends,mii_port_init.maxchanends $M phy_reset.maxchanends $M 0
	.globl	mii_initialise.maxchanends
	.cc_top mii_driver.function
	.globl	mii_driver
	.align	4
	.type	mii_driver,@function
mii_driver:
.Ltmp18:
	.cfi_startproc
.Lfunc_begin1:
	.loc	1 32 0
.Lxtalabel3:
	entsp 6
.Ltmp19:
	.cfi_def_cfa_offset 24
.Ltmp20:
	.cfi_offset 15, 0
	.loc	1 31 0 prologue_end
.Ltmp21:
	stw r4, sp[5]
.Ltmp22:
	.cfi_offset 4, -4
	stw r5, sp[4]
.Ltmp23:
	.cfi_offset 5, -8
	mov r3, r1
.Ltmp24:
	.loc	1 33 0
	ldaw r1, dp[__timers]
	get r11, id
	ldw r5, r1[r11]
.Ltmp25:
	.loc	1 34 0
	ldw r11, r0[8]
	ldw r1, r0[5]
	ldw r4, r0[4]
	ldw r0, r0[9]
.Ltmp26:
	.loc	1 34 0
	stw r5, sp[3]
	stw r0, sp[2]
	stw r2, sp[1]
	mov r0, r4
	mov r2, r11
.Ltmp27:
.Lxta.call_labels2:
	bl miiLLD
.Ltmp28:
	ldw r5, sp[4]
.Ltmp29:
	ldw r4, sp[5]
	retsp 6
.Ltmp30:
.Ltmp31:
	.size	mii_driver, .Ltmp31-mii_driver
.Lfunc_end1:
.Ltmp32:
	.cfi_endproc
.Leh_func_end1:

	.align	4
	.cc_bottom mii_driver.function
	.set	mii_driver.nstackwords,(miiLLD.nstackwords + 6)
	.globl	mii_driver.nstackwords
	.set	mii_driver.maxcores,miiLLD.maxcores $M 1
	.globl	mii_driver.maxcores
	.set	mii_driver.maxtimers,miiLLD.maxtimers $M 0
	.globl	mii_driver.maxtimers
	.set	mii_driver.maxchanends,miiLLD.maxchanends $M 0
	.globl	mii_driver.maxchanends
	.cfi_sections .debug_frame
.Ltext_end:
	.section	.dp.data,"awd",@progbits
.Ldata_end:
	.text
.Lsection_end1:
	.section	.xtacalltable,"",@progbits
.Lentries_start0:
	.long	.Lentries_end1-.Lentries_start0
	.long	0
	.ascii	 "/home/vdelacruz/Documents/Ethernet sin mii/app_simple_webserver/.build_IPV4"
	.byte	0
.cc_top cc_0,.Lxta.call_labels0
	.ascii	 "/home/vdelacruz/Documents/Ethernet sin mii/module_ethernet/src/lite/mii_driver.xc"
	.byte	0
	.long	22
	.long	.Lxta.call_labels0
.cc_bottom cc_0
.cc_top cc_1,.Lxta.call_labels1
	.ascii	 "/home/vdelacruz/Documents/Ethernet sin mii/module_ethernet/src/lite/mii_driver.xc"
	.byte	0
	.long	26
	.long	.Lxta.call_labels1
.cc_bottom cc_1
.cc_top cc_2,.Lxta.call_labels2
	.ascii	 "/home/vdelacruz/Documents/Ethernet sin mii/module_ethernet/src/lite/mii_driver.xc"
	.byte	0
	.long	34
	.long	.Lxta.call_labels2
.cc_bottom cc_2
.Lentries_end1:
	.section	.xtalabeltable,"",@progbits
.Lentries_start2:
	.long	.Lentries_end3-.Lentries_start2
	.long	0
	.ascii	 "/home/vdelacruz/Documents/Ethernet sin mii/app_simple_webserver/.build_IPV4"
	.byte	0
.cc_top cc_3,.Lxtalabel0
	.ascii	 "/home/vdelacruz/Documents/Ethernet sin mii/module_ethernet/src/lite/mii_driver.xc"
	.byte	0
	.long	17
	.long	20
	.long	.Lxtalabel0
.cc_bottom cc_3
.cc_top cc_4,.Lxtalabel1
	.ascii	 "/home/vdelacruz/Documents/Ethernet sin mii/module_ethernet/src/lite/mii_driver.xc"
	.byte	0
	.long	21
	.long	23
	.long	.Lxtalabel1
.cc_bottom cc_4
.cc_top cc_5,.Lxtalabel2
	.ascii	 "/home/vdelacruz/Documents/Ethernet sin mii/module_ethernet/src/lite/mii_driver.xc"
	.byte	0
	.long	24
	.long	27
	.long	.Lxtalabel2
.cc_bottom cc_5
.cc_top cc_6,.Lxtalabel3
	.ascii	 "/home/vdelacruz/Documents/Ethernet sin mii/module_ethernet/src/lite/mii_driver.xc"
	.byte	0
	.long	32
	.long	35
	.long	.Lxtalabel3
.cc_bottom cc_6
.Lentries_end3:
