	.file	"/home/vdelacruz/Documents/Ethernet 2 Ports/module_ethernet/src/lite/mii_lite.xc"

	.inline_definition delay_seconds
	.inline_definition delay_milliseconds
	.inline_definition delay_microseconds
	.set usage.anon.0,0
	.set usage.anon.1,0
	.set usage.anon.2,0
	.call mii_port_init,configure_out_port_strobed_master
	.call mii_port_init,configure_in_port_strobed_slave
	.call mii_port_init,configure_clock_src
	.call usage.anon.2,delay_ticks_longlong
	.call usage.anon.1,delay_ticks_longlong
	.call usage.anon.0,delay_ticks_longlong
	.set usage.anon.0.locnoside, 1
	.set usage.anon.1.locnoside, 1
	.set usage.anon.2.locnoside, 1
	.set usage.anon.0.locnochandec, 1
	.set usage.anon.1.locnochandec, 1
	.set usage.anon.2.locnochandec, 1
	.set mii_port_init.locnochandec, 1
	.set phy_reset.locnochandec, 1
	.set usage.anon.0.locnoglobalaccess, 1
	.set usage.anon.1.locnoglobalaccess, 1
	.set usage.anon.2.locnoglobalaccess, 1
	.set mii_port_init.locnoglobalaccess, 1
	.set phy_reset.locnoglobalaccess, 1
	.set usage.anon.0.locnointerfaceaccess, 1
	.set usage.anon.1.locnointerfaceaccess, 1
	.set usage.anon.2.locnointerfaceaccess, 1
	.set mii_port_init.locnointerfaceaccess, 1
	.set phy_reset.locnointerfaceaccess, 1
	.set usage.anon.0.locnonotificationselect, 1
	.set usage.anon.1.locnonotificationselect, 1
	.set usage.anon.2.locnonotificationselect, 1
	.set mii_port_init.locnonotificationselect, 1
	.set phy_reset.locnonotificationselect, 1


	.file	1 "/home/vdelacruz/Documents/Ethernet 2 Ports/module_ethernet/src/lite/mii_lite.xc"
	.file	2 "/home/vdelacruz/Documents/Ethernet 2 Ports/app_simple_webserver/.build_IPV4/timer.h"
	.text
.Ltext_begin:
	.section	.dp.data,"awd",@progbits
	.text
	.cc_top phy_reset.function
	.globl	phy_reset
	.align	4
	.type	phy_reset,@function
phy_reset:
.Ltmp0:
	.cfi_startproc
.Lfunc_begin0:
	.loc	1 32 0
.Lxtalabel0:
	ldc r1, 0
.Ltmp1:
	.loc	1 35 0 prologue_end
.Lxta.endpoint_labels0:
	out res[r0], r1
	.loc	1 36 0
	ldaw r1, dp[__timers]
	get r11, id
	ldw r1, r1[r11]
	setc res[r1], 1
	.loc	1 36 0
.Lxta.endpoint_labels1:
	in r3, res[r1]
.Ltmp2:
	ldc r2, 50000
	.loc	1 37 0
	add r3, r3, r2
.Ltmp3:
	.loc	1 38 0
	setd res[r1], r3
	setc res[r1], 9
	.loc	1 38 0
.Ltmp4:
.Lxta.endpoint_labels2:
	in r3, res[r1]
	mkmsk r3, 32
	.loc	1 40 0
.Lxta.endpoint_labels3:
	out res[r0], r3
	.loc	1 41 0
	setc res[r1], 1
	.loc	1 41 0
.Lxta.endpoint_labels4:
	in r0, res[r1]
.Ltmp5:
	.loc	1 42 0
	add r0, r0, r2
.Ltmp6:
	.loc	1 43 0
	setd res[r1], r0
	setc res[r1], 9
	.loc	1 43 0
.Ltmp7:
.Lxta.endpoint_labels5:
	in r0, res[r1]
	retsp 0
.Ltmp8:
.Ltmp9:
	.size	phy_reset, .Ltmp9-phy_reset
.Lfunc_end0:
.Ltmp10:
	.cfi_endproc
.Leh_func_end0:

	.align	4
	.cc_bottom phy_reset.function
	.set	phy_reset.nstackwords,0
	.globl	phy_reset.nstackwords
	.set	phy_reset.maxcores,1
	.globl	phy_reset.maxcores
	.set	phy_reset.maxtimers,0
	.globl	phy_reset.maxtimers
	.set	phy_reset.maxchanends,0
	.globl	phy_reset.maxchanends
	.cc_top mii_port_init.function
	.globl	mii_port_init
	.align	4
	.type	mii_port_init,@function
mii_port_init:
.Ltmp15:
	.cfi_startproc
.Lfunc_begin1:
	.loc	1 15 0
.Lxtalabel1:
	entsp 4
.Ltmp16:
	.cfi_def_cfa_offset 16
.Ltmp17:
	.cfi_offset 15, 0
	.loc	1 15 0 prologue_end
.Ltmp18:
	stw r4, sp[3]
.Ltmp19:
	.cfi_offset 4, -4
	stw r5, sp[2]
.Ltmp20:
	.cfi_offset 5, -8
	stw r6, sp[1]
.Ltmp21:
	.cfi_offset 6, -12
	mov r6, r0
.Ltmp22:
	.loc	1 16 0
	ldw r1, r6[2]
	ldw r4, r6[0]
	.loc	1 16 0
	mov r0, r4
.Lxta.call_labels0:
	bl configure_clock_src
	.loc	1 17 0
	ldw r1, r6[5]
	ldw r5, r6[1]
	.loc	1 17 0
	mov r0, r5
.Lxta.call_labels1:
	bl configure_clock_src
	.loc	1 19 0
	setc res[r5], 32831
	.loc	1 21 0
	ldw r1, r6[4]
	ldw r0, r6[3]
	.loc	1 21 0
	mov r2, r4
.Lxta.call_labels2:
	bl configure_in_port_strobed_slave
	.loc	1 22 0
	ldw r1, r6[6]
	ldw r0, r6[7]
	ldc r3, 0
	.loc	1 22 0
	mov r2, r5
.Lxta.call_labels3:
	bl configure_out_port_strobed_master
	.loc	1 24 0
	setc res[r4], 15
	.loc	1 25 0
	setc res[r5], 15
	ldw r6, sp[1]
.Ltmp23:
	ldw r5, sp[2]
	ldw r4, sp[3]
	retsp 4
.Ltmp24:
.Ltmp25:
	.size	mii_port_init, .Ltmp25-mii_port_init
.Lfunc_end1:
.Ltmp26:
	.cfi_endproc
.Leh_func_end1:

	.align	4
	.cc_bottom mii_port_init.function
	.set	mii_port_init.nstackwords,((configure_clock_src.nstackwords $M configure_in_port_strobed_slave.nstackwords $M configure_out_port_strobed_master.nstackwords) + 4)
	.globl	mii_port_init.nstackwords
	.set	mii_port_init.maxcores,configure_clock_src.maxcores $M configure_in_port_strobed_slave.maxcores $M configure_out_port_strobed_master.maxcores $M 1
	.globl	mii_port_init.maxcores
	.set	mii_port_init.maxtimers,configure_clock_src.maxtimers $M configure_in_port_strobed_slave.maxtimers $M configure_out_port_strobed_master.maxtimers $M 0
	.globl	mii_port_init.maxtimers
	.set	mii_port_init.maxchanends,configure_clock_src.maxchanends $M configure_in_port_strobed_slave.maxchanends $M configure_out_port_strobed_master.maxchanends $M 0
	.globl	mii_port_init.maxchanends
	.cfi_sections .debug_frame
.Ltext_end:
	.section	.dp.data,"awd",@progbits
.Ldata_end:
	.text
.Lsection_end1:
	.section	.xtacalltable,"",@progbits
.Lentries_start0:
	.long	.Lentries_end1-.Lentries_start0
	.long	0
	.ascii	 "/home/vdelacruz/Documents/Ethernet 2 Ports/app_simple_webserver/.build_IPV4"
	.byte	0
.cc_top cc_0,.Lxta.call_labels0
	.ascii	 "/home/vdelacruz/Documents/Ethernet 2 Ports/module_ethernet/src/lite/mii_lite.xc"
	.byte	0
	.long	16
	.long	.Lxta.call_labels0
.cc_bottom cc_0
.cc_top cc_1,.Lxta.call_labels1
	.ascii	 "/home/vdelacruz/Documents/Ethernet 2 Ports/module_ethernet/src/lite/mii_lite.xc"
	.byte	0
	.long	17
	.long	.Lxta.call_labels1
.cc_bottom cc_1
.cc_top cc_2,.Lxta.call_labels2
	.ascii	 "/home/vdelacruz/Documents/Ethernet 2 Ports/module_ethernet/src/lite/mii_lite.xc"
	.byte	0
	.long	21
	.long	.Lxta.call_labels2
.cc_bottom cc_2
.cc_top cc_3,.Lxta.call_labels3
	.ascii	 "/home/vdelacruz/Documents/Ethernet 2 Ports/module_ethernet/src/lite/mii_lite.xc"
	.byte	0
	.long	22
	.long	.Lxta.call_labels3
.cc_bottom cc_3
.Lentries_end1:
	.section	.xtaendpointtable,"",@progbits
.Lentries_start2:
	.long	.Lentries_end3-.Lentries_start2
	.long	0
	.ascii	 "/home/vdelacruz/Documents/Ethernet 2 Ports/app_simple_webserver/.build_IPV4"
	.byte	0
.cc_top cc_4,.Lxta.endpoint_labels0
	.ascii	 "/home/vdelacruz/Documents/Ethernet 2 Ports/module_ethernet/src/lite/mii_lite.xc"
	.byte	0
	.long	35
	.long	.Lxta.endpoint_labels0
.cc_bottom cc_4
.cc_top cc_5,.Lxta.endpoint_labels1
	.ascii	 "/home/vdelacruz/Documents/Ethernet 2 Ports/module_ethernet/src/lite/mii_lite.xc"
	.byte	0
	.long	36
	.long	.Lxta.endpoint_labels1
.cc_bottom cc_5
.cc_top cc_6,.Lxta.endpoint_labels2
	.ascii	 "/home/vdelacruz/Documents/Ethernet 2 Ports/module_ethernet/src/lite/mii_lite.xc"
	.byte	0
	.long	38
	.long	.Lxta.endpoint_labels2
.cc_bottom cc_6
.cc_top cc_7,.Lxta.endpoint_labels3
	.ascii	 "/home/vdelacruz/Documents/Ethernet 2 Ports/module_ethernet/src/lite/mii_lite.xc"
	.byte	0
	.long	40
	.long	.Lxta.endpoint_labels3
.cc_bottom cc_7
.cc_top cc_8,.Lxta.endpoint_labels4
	.ascii	 "/home/vdelacruz/Documents/Ethernet 2 Ports/module_ethernet/src/lite/mii_lite.xc"
	.byte	0
	.long	41
	.long	.Lxta.endpoint_labels4
.cc_bottom cc_8
.cc_top cc_9,.Lxta.endpoint_labels5
	.ascii	 "/home/vdelacruz/Documents/Ethernet 2 Ports/module_ethernet/src/lite/mii_lite.xc"
	.byte	0
	.long	43
	.long	.Lxta.endpoint_labels5
.cc_bottom cc_9
.Lentries_end3:
	.section	.xtalabeltable,"",@progbits
.Lentries_start4:
	.long	.Lentries_end5-.Lentries_start4
	.long	0
	.ascii	 "/home/vdelacruz/Documents/Ethernet 2 Ports/app_simple_webserver/.build_IPV4"
	.byte	0
.cc_top cc_10,.Lxtalabel1
	.ascii	 "/home/vdelacruz/Documents/Ethernet 2 Ports/module_ethernet/src/lite/mii_lite.xc"
	.byte	0
	.long	16
	.long	26
	.long	.Lxtalabel1
.cc_bottom cc_10
.cc_top cc_11,.Lxtalabel0
	.ascii	 "/home/vdelacruz/Documents/Ethernet 2 Ports/module_ethernet/src/lite/mii_lite.xc"
	.byte	0
	.long	33
	.long	44
	.long	.Lxtalabel0
.cc_bottom cc_11
.Lentries_end5:
