	.file	"/home/vdelacruz/Documents/Ethernet sin mii/module_ethernet/src/full/nettypes.c"

.set hton16.locnoside, 1

.set hton16.locnochandec, 1

.set hton16.locnoglobalaccess, 1

.set hton16.locnointerfaceaccess, 1

.set hton16.locnonotificationselect, 1

.set ntoh16.locnoside, 1

.set ntoh16.locnochandec, 1

.set ntoh16.locnoglobalaccess, 1

.set ntoh16.locnointerfaceaccess, 1

.set ntoh16.locnonotificationselect, 1

.set ntoh32.locnoside, 1

.set ntoh32.locnochandec, 1

.set ntoh32.locnoglobalaccess, 1

.set ntoh32.locnointerfaceaccess, 1

.set ntoh32.locnonotificationselect, 1

.set ntoh64.locnoside, 1

.set ntoh64.locnochandec, 1

.set ntoh64.locnoglobalaccess, 1

.set ntoh64.locnointerfaceaccess, 1

.set ntoh64.locnonotificationselect, 1

.set hton32.locnoside, 1

.set hton32.locnochandec, 1

.set hton32.locnoglobalaccess, 1

.set hton32.locnointerfaceaccess, 1

.set hton32.locnonotificationselect, 1

.set hton80.locnoside, 1

.set hton80.locnochandec, 1

.set hton80.locnoglobalaccess, 1

.set hton80.locnointerfaceaccess, 1

.set hton80.locnonotificationselect, 1


	.file	1 "/home/vdelacruz/Documents/Ethernet sin mii/module_ethernet/src/full/nettypes.c"
	.file	2 "/home/vdelacruz/Documents/Ethernet sin mii/module_ethernet/src/full/nettypes.h"
	.text
.Ltext_begin:
	.section	.dp.data,"awd",@progbits
	.text
	.cc_top hton16.function
	.globl	hton16
	.align	2
	.type	hton16,@function
hton16:
.Ltmp0:
	.cfi_startproc
.Lfunc_begin0:
	.loc	2 29 0
	.loc	2 31 0 prologue_end
	shr r2, r1, 8
	.loc	2 33 0
	ldc r3, 0
	st8 r2, r0[r3]
	mkmsk r2, 1
	st8 r1, r0[r2]
	retsp 0
.Ltmp1:
.Ltmp2:
	.size	hton16, .Ltmp2-hton16
.Lfunc_end0:
.Ltmp3:
	.cfi_endproc
.Leh_func_end0:

	.cc_bottom hton16.function
	.set	hton16.nstackwords,0
	.globl	hton16.nstackwords
	.set	hton16.maxcores,1
	.globl	hton16.maxcores
	.set	hton16.maxtimers,0
	.globl	hton16.maxtimers
	.set	hton16.maxchanends,0
	.globl	hton16.maxchanends
	.cc_top ntoh16.function
	.globl	ntoh16
	.align	2
	.type	ntoh16,@function
ntoh16:
.Ltmp4:
	.cfi_startproc
.Lfunc_begin1:
	.loc	2 36 0
	mkmsk r1, 1
	.loc	2 37 0 prologue_end
.Ltmp5:
	ld8u r1, r0[r1]
	ldc r2, 0
	ld8u r0, r0[r2]
	shl r0, r0, 8
	or r0, r0, r1
	zext r0, 16
	retsp 0
.Ltmp6:
.Ltmp7:
	.size	ntoh16, .Ltmp7-ntoh16
.Lfunc_end1:
.Ltmp8:
	.cfi_endproc
.Leh_func_end1:

	.cc_bottom ntoh16.function
	.set	ntoh16.nstackwords,0
	.globl	ntoh16.nstackwords
	.set	ntoh16.maxcores,1
	.globl	ntoh16.maxcores
	.set	ntoh16.maxtimers,0
	.globl	ntoh16.maxtimers
	.set	ntoh16.maxchanends,0
	.globl	ntoh16.maxchanends
	.cc_top ntoh32.function
	.globl	ntoh32
	.align	2
	.type	ntoh32,@function
ntoh32:
.Ltmp9:
	.cfi_startproc
.Lfunc_begin2:
	.loc	2 40 0
	.loc	2 41 0 prologue_end
	ldc r1, 0
	ld8u r1, r0[r1]
	shl r1, r1, 24
	mkmsk r2, 1
	ld8u r2, r0[r2]
	shl r2, r2, 16
	or r1, r2, r1
	mkmsk r2, 2
	ld8u r2, r0[r2]
	or r1, r1, r2
	ldc r2, 2
	ld8u r0, r0[r2]
	shl r0, r0, 8
	or r0, r1, r0
	retsp 0
.Ltmp10:
.Ltmp11:
	.size	ntoh32, .Ltmp11-ntoh32
.Lfunc_end2:
.Ltmp12:
	.cfi_endproc
.Leh_func_end2:

	.cc_bottom ntoh32.function
	.set	ntoh32.nstackwords,0
	.globl	ntoh32.nstackwords
	.set	ntoh32.maxcores,1
	.globl	ntoh32.maxcores
	.set	ntoh32.maxtimers,0
	.globl	ntoh32.maxtimers
	.set	ntoh32.maxchanends,0
	.globl	ntoh32.maxchanends
	.cc_top ntoh64.function
	.globl	ntoh64
	.align	2
	.type	ntoh64,@function
ntoh64:
.Ltmp16:
	.cfi_startproc
.Lfunc_begin3:
	.loc	2 44 0
	entsp 4
.Ltmp17:
	.cfi_def_cfa_offset 16
.Ltmp18:
	.cfi_offset 15, 0
	.loc	2 44 0 prologue_end
.Ltmp19:
	stw r4, sp[3]
.Ltmp20:
	.cfi_offset 4, -4
	stw r5, sp[2]
.Ltmp21:
	.cfi_offset 5, -8
	ldc r4, 0
	ld8u r11, r0[r4]
	ldaw r2, sp[0]
	st8 r11, r2[r4]
	mkmsk r3, 1
	or r1, r2, r3
	ld8u r5, r0[r3]
	st8 r5, r1[r4]
	ldc r5, 2
	or r1, r2, r5
	ld8u r5, r0[r5]
	st8 r5, r1[r4]
	mkmsk r5, 2
	or r1, r2, r5
	ld8u r5, r0[r5]
	st8 r5, r1[r4]
	ldc r1, 4
	ld8u r5, r0[r1]
	st8 r5, r2[r1]
	ldc r1, 5
	ld8u r5, r0[r1]
	st8 r5, r2[r1]
	ldc r1, 6
	ld8u r5, r0[r1]
	st8 r5, r2[r1]
	mkmsk r1, 3
	ld8u r0, r0[r1]
	st8 r0, r2[r1]
.Ltmp22:
	mov r1, r4
	bu .LBB3_1
.LBB3_2:
.Ltmp23:
	.loc	2 47 0
	ld8u r11, r2[r3]
	.loc	2 46 0
	shr r4, r0, 24
	shl r1, r1, 8
	or r1, r1, r4
	shl r4, r0, 8
	add r3, r3, 1
.Ltmp24:
.LBB3_1:
	.loc	2 47 0
	zext r11, 8
	or r0, r11, r4
.xtaloop 8
	# LOOPMARKER 0
	.loc	2 46 0
	eq r11, r3, 8
.Ltmp25:
	bf r11, .LBB3_2
.Ltmp26:
	.loc	2 48 0
	ldw r5, sp[2]
	ldw r4, sp[3]
	retsp 4
.Ltmp27:
.Ltmp28:
	.size	ntoh64, .Ltmp28-ntoh64
.Lfunc_end3:
.Ltmp29:
	.cfi_endproc
.Leh_func_end3:

	.cc_bottom ntoh64.function
	.set	ntoh64.nstackwords,4
	.globl	ntoh64.nstackwords
	.set	ntoh64.maxcores,1
	.globl	ntoh64.maxcores
	.set	ntoh64.maxtimers,0
	.globl	ntoh64.maxtimers
	.set	ntoh64.maxchanends,0
	.globl	ntoh64.maxchanends
	.cc_top hton32.function
	.globl	hton32
	.align	2
	.type	hton32,@function
hton32:
.Ltmp30:
	.cfi_startproc
.Lfunc_begin4:
	.loc	2 52 0
	.loc	2 55 0 prologue_end
	shr r2, r1, 24
	.loc	2 59 0
	ldc r3, 0
	st8 r2, r0[r3]
	.loc	2 56 0
	shr r2, r1, 16
	mkmsk r3, 1
	.loc	2 59 0
	st8 r2, r0[r3]
	.loc	2 57 0
	shr r2, r1, 8
	ldc r3, 2
	.loc	2 59 0
	st8 r2, r0[r3]
	mkmsk r2, 2
	st8 r1, r0[r2]
	retsp 0
.Ltmp31:
.Ltmp32:
	.size	hton32, .Ltmp32-hton32
.Lfunc_end4:
.Ltmp33:
	.cfi_endproc
.Leh_func_end4:

	.cc_bottom hton32.function
	.set	hton32.nstackwords,0
	.globl	hton32.nstackwords
	.set	hton32.maxcores,1
	.globl	hton32.maxcores
	.set	hton32.maxtimers,0
	.globl	hton32.maxtimers
	.set	hton32.maxchanends,0
	.globl	hton32.maxchanends
	.cc_top hton80.function
	.globl	hton80
	.align	2
	.type	hton80,@function
hton80:
.Ltmp37:
	.cfi_startproc
.Lfunc_begin5:
	.loc	2 62 0
	entsp 9
.Ltmp38:
	.cfi_def_cfa_offset 36
.Ltmp39:
	.cfi_offset 15, 0
	stw r4, sp[8]
.Ltmp40:
	.cfi_offset 4, -4
	stw r5, sp[7]
.Ltmp41:
	.cfi_offset 5, -8
	mov r4, r0
	ldaw r5, sp[4]
	ldc r2, 10
	.loc	2 62 0 prologue_end
.Ltmp42:
	mov r0, r5
	bl memcpy
	ldc r0, 0
.Ltmp43:
	ldc r1, 9
	ldaw r2, sp[1]
.LBB5_1:
	.loc	2 65 0
.Ltmp44:
	sub r3, r1, r0
	ld8u r3, r5[r3]
	st8 r3, r2[r0]
.xtaloop 10
	# LOOPMARKER 0
	.loc	2 64 0
	add r0, r0, 1
.Ltmp45:
	eq r3, r0, 10
	bf r3, .LBB5_1
.Ltmp46:
	ldaw r1, sp[1]
	ldc r2, 10
	.loc	2 66 0
	mov r0, r4
	bl memcpy
	ldw r5, sp[7]
	ldw r4, sp[8]
	retsp 9
.Ltmp47:
.Ltmp48:
	.size	hton80, .Ltmp48-hton80
.Lfunc_end5:
.Ltmp49:
	.cfi_endproc
.Leh_func_end5:

	.cc_bottom hton80.function
	.set	hton80.nstackwords,(memcpy.nstackwords + 9)
	.globl	hton80.nstackwords
	.set	hton80.maxcores,1
	.globl	hton80.maxcores
	.set	hton80.maxtimers,0
	.globl	hton80.maxtimers
	.set	hton80.maxchanends,0
	.globl	hton80.maxchanends
	.cfi_sections .debug_frame
.Ltext_end:
	.section	.dp.data,"awd",@progbits
.Ldata_end:
	.text
.Lsection_end1: