	.file	"/home/vdelacruz/Documents/Ethernet 2 Ports/module_ethernet_smi/src/smi.xc"

	.inline_definition delay_seconds
	.inline_definition delay_milliseconds
	.inline_definition delay_microseconds
	.set usage.anon.0,0
	.set usage.anon.1,0
	.set usage.anon.2,0
	.set usage.anon.3,0
	.call smi_check_link_state,smi_reg
	.call eth_phy_loopback,smi_reg
	.call eth_phy_config_noauto,smi_reg
	.call eth_phy_config,smi_reg
	.call eth_phy_id,smi_reg
	.call smi_reg,usage.anon.3
	.call usage.anon.2,delay_ticks_longlong
	.call usage.anon.1,delay_ticks_longlong
	.call usage.anon.0,delay_ticks_longlong
	.set usage.anon.0.locnoside, 1
	.set usage.anon.1.locnoside, 1
	.set usage.anon.2.locnoside, 1
	.set usage.anon.0.locnochandec, 1
	.set usage.anon.1.locnochandec, 1
	.set usage.anon.2.locnochandec, 1
	.set smi_init.locnochandec, 1
	.set usage.anon.3.locnochandec, 1
	.set smi_reg.locnochandec, 1
	.set eth_phy_id.locnochandec, 1
	.set eth_phy_config.locnochandec, 1
	.set eth_phy_config_noauto.locnochandec, 1
	.set eth_phy_loopback.locnochandec, 1
	.set smi_check_link_state.locnochandec, 1
	.set usage.anon.0.locnoglobalaccess, 1
	.set usage.anon.1.locnoglobalaccess, 1
	.set usage.anon.2.locnoglobalaccess, 1
	.set smi_init.locnoglobalaccess, 1
	.set usage.anon.3.locnoglobalaccess, 1
	.set smi_reg.locnoglobalaccess, 1
	.set eth_phy_id.locnoglobalaccess, 1
	.set eth_phy_config.locnoglobalaccess, 1
	.set eth_phy_config_noauto.locnoglobalaccess, 1
	.set eth_phy_loopback.locnoglobalaccess, 1
	.set smi_check_link_state.locnoglobalaccess, 1
	.set usage.anon.0.locnointerfaceaccess, 1
	.set usage.anon.1.locnointerfaceaccess, 1
	.set usage.anon.2.locnointerfaceaccess, 1
	.set smi_init.locnointerfaceaccess, 1
	.set usage.anon.3.locnointerfaceaccess, 1
	.set smi_reg.locnointerfaceaccess, 1
	.set eth_phy_id.locnointerfaceaccess, 1
	.set eth_phy_config.locnointerfaceaccess, 1
	.set eth_phy_config_noauto.locnointerfaceaccess, 1
	.set eth_phy_loopback.locnointerfaceaccess, 1
	.set smi_check_link_state.locnointerfaceaccess, 1
	.set usage.anon.0.locnonotificationselect, 1
	.set usage.anon.1.locnonotificationselect, 1
	.set usage.anon.2.locnonotificationselect, 1
	.set smi_init.locnonotificationselect, 1
	.set usage.anon.3.locnonotificationselect, 1
	.set smi_reg.locnonotificationselect, 1
	.set eth_phy_id.locnonotificationselect, 1
	.set eth_phy_config.locnonotificationselect, 1
	.set eth_phy_config_noauto.locnonotificationselect, 1
	.set eth_phy_loopback.locnonotificationselect, 1
	.set smi_check_link_state.locnonotificationselect, 1


	.file	1 "/home/vdelacruz/Documents/Ethernet 2 Ports/module_ethernet_smi/src/smi.xc"
	.file	2 "/home/vdelacruz/Documents/Ethernet 2 Ports/app_simple_webserver/.build_IPV4/timer.h"
	.text
.Ltext_begin:
	.section	.dp.data,"awd",@progbits
	.text
	.cc_top smi_init.function
	.globl	smi_init
	.align	2
	.type	smi_init,@function
smi_init:
.Ltmp0:
	.cfi_startproc
.Lfunc_begin0:
	.loc	1 76 0
.Lxtalabel0:
	.loc	1 90 0 prologue_end
	ldw r0, r0[1]
.Ltmp1:
	mkmsk r1, 1
	.loc	1 90 0
.Lxta.endpoint_labels0:
	out res[r0], r1
	retsp 0
.Ltmp2:
.Ltmp3:
	.size	smi_init, .Ltmp3-smi_init
.Lfunc_end0:
.Ltmp4:
	.cfi_endproc
.Leh_func_end0:

	.cc_bottom smi_init.function
	.set	smi_init.nstackwords,0
	.globl	smi_init.nstackwords
	.set	smi_init.maxcores,1
	.globl	smi_init.maxcores
	.set	smi_init.maxtimers,0
	.globl	smi_init.maxtimers
	.set	smi_init.maxchanends,0
	.globl	smi_init.maxchanends
	.cc_top eth_phy_config.function
	.globl	eth_phy_config
	.align	2
	.type	eth_phy_config,@function
eth_phy_config:
.Ltmp11:
	.cfi_startproc
.Lfunc_begin1:
	.loc	1 185 0
.Lxtalabel1:
	entsp 6
.Ltmp12:
	.cfi_def_cfa_offset 24
.Ltmp13:
	.cfi_offset 15, 0
	.loc	1 185 0 prologue_end
.Ltmp14:
	stw r4, sp[5]
.Ltmp15:
	.cfi_offset 4, -4
	stw r5, sp[4]
.Ltmp16:
	.cfi_offset 5, -8
	stw r6, sp[3]
.Ltmp17:
	.cfi_offset 6, -12
	stw r7, sp[2]
.Ltmp18:
	.cfi_offset 7, -16
	stw r8, sp[1]
.Ltmp19:
	.cfi_offset 8, -20
	mov r4, r1
.Ltmp20:
	mov r8, r0
.Ltmp21:
	ldc r7, 4
	ldc r5, 0
	mkmsk r6, 1
	.loc	1 187 0
.Ltmp22:
	mov r0, r4
	mov r1, r7
	mov r2, r5
	mov r3, r6
.Lxta.call_labels0:
	bl smi_reg
.Ltmp23:
	ldc r1, 64543
	.loc	1 190 0
	and r0, r0, r1
.Ltmp24:
	.loc	1 193 0
	bf r8, .LBB1_2
.Ltmp25:
	ldc r1, 256
	bu .LBB1_3
.LBB1_2:
.Lxtalabel2:
	ldc r1, 64
.LBB1_3:
.Lxtalabel3:
.Ltmp26:
	or r2, r0, r1
	.loc	1 200 0
	mov r0, r4
.Ltmp27:
	mov r1, r7
	mov r3, r5
.Lxta.call_labels1:
	bl smi_reg
	.loc	1 202 0
	mov r0, r4
	mov r1, r5
	mov r2, r5
	mov r3, r6
.Lxta.call_labels2:
	bl smi_reg
	mov r6, r0
.Ltmp28:
	ldc r0, 4096
	.loc	1 207 0
	or r2, r6, r0
.Ltmp29:
	.loc	1 208 0
	mov r0, r4
	mov r1, r5
	mov r3, r5
.Lxta.call_labels3:
	bl smi_reg
.Ltmp30:
	ldc r0, 4608
	.loc	1 210 0
	or r2, r6, r0
.Ltmp31:
	.loc	1 211 0
	mov r0, r4
	mov r1, r5
	mov r3, r5
.Lxta.call_labels4:
	bl smi_reg
.Ltmp32:
	ldw r8, sp[1]
	ldw r7, sp[2]
	ldw r6, sp[3]
	ldw r5, sp[4]
	ldw r4, sp[5]
.Ltmp33:
	retsp 6
.Ltmp34:
.Ltmp35:
	.size	eth_phy_config, .Ltmp35-eth_phy_config
.Lfunc_end1:
.Ltmp36:
	.cfi_endproc
.Leh_func_end1:

	.cc_bottom eth_phy_config.function
	.set	eth_phy_config.nstackwords,(smi_reg.nstackwords + 6)
	.globl	eth_phy_config.nstackwords
	.set	eth_phy_config.maxcores,smi_reg.maxcores $M 1
	.globl	eth_phy_config.maxcores
	.set	eth_phy_config.maxtimers,smi_reg.maxtimers $M 0
	.globl	eth_phy_config.maxtimers
	.set	eth_phy_config.maxchanends,smi_reg.maxchanends $M 0
	.globl	eth_phy_config.maxchanends
	.cc_top eth_phy_config_noauto.function
	.section	.cp.rodata.cst4,"aMc",@progbits,4
	.cc_top .LCPI2_0.data
	.align	4
.LCPI2_0:
	.long	4294954751
	.cc_bottom .LCPI2_0.data
	.text
	.globl	eth_phy_config_noauto
	.align	2
	.type	eth_phy_config_noauto,@function
eth_phy_config_noauto:
.Ltmp41:
	.cfi_startproc
.Lfunc_begin2:
	.loc	1 214 0
.Lxtalabel4:
	entsp 4
.Ltmp42:
	.cfi_def_cfa_offset 16
.Ltmp43:
	.cfi_offset 15, 0
	.loc	1 214 0 prologue_end
.Ltmp44:
	stw r4, sp[3]
.Ltmp45:
	.cfi_offset 4, -4
	stw r5, sp[2]
.Ltmp46:
	.cfi_offset 5, -8
	stw r6, sp[1]
.Ltmp47:
	.cfi_offset 6, -12
	mov r5, r1
.Ltmp48:
	mov r6, r0
.Ltmp49:
	ldc r4, 0
	mkmsk r3, 1
	.loc	1 215 0
.Ltmp50:
	mov r0, r5
	mov r1, r4
	mov r2, r4
.Lxta.call_labels5:
	bl smi_reg
.Ltmp51:
	.loc	1 220 0
	bf r6, .LBB2_2
.Ltmp52:
	ldc r1, 8448
	bu .LBB2_3
.LBB2_2:
.Lxtalabel5:
	ldc r1, 256
.LBB2_3:
.Lxtalabel6:
.Ltmp53:
	ldw r2, cp[.LCPI2_0]
	.loc	1 218 0
	and r0, r0, r2
.Ltmp54:
	.loc	1 220 0
	or r2, r0, r1
	.loc	1 223 0
	mov r0, r5
	mov r1, r4
	mov r3, r4
.Lxta.call_labels6:
	bl smi_reg
	ldw r6, sp[1]
	ldw r5, sp[2]
.Ltmp55:
	ldw r4, sp[3]
	retsp 4
.Ltmp56:
.Ltmp57:
	.size	eth_phy_config_noauto, .Ltmp57-eth_phy_config_noauto
.Lfunc_end2:
.Ltmp58:
	.cfi_endproc
.Leh_func_end2:

	.cc_bottom eth_phy_config_noauto.function
	.set	eth_phy_config_noauto.nstackwords,(smi_reg.nstackwords + 4)
	.globl	eth_phy_config_noauto.nstackwords
	.set	eth_phy_config_noauto.maxcores,smi_reg.maxcores $M 1
	.globl	eth_phy_config_noauto.maxcores
	.set	eth_phy_config_noauto.maxtimers,smi_reg.maxtimers $M 0
	.globl	eth_phy_config_noauto.maxtimers
	.set	eth_phy_config_noauto.maxchanends,smi_reg.maxchanends $M 0
	.globl	eth_phy_config_noauto.maxchanends
	.cc_top eth_phy_loopback.function
	.section	.cp.rodata.cst4,"aMc",@progbits,4
	.cc_top .LCPI3_0.data
	.align	4
.LCPI3_0:
	.long	4294946815
	.cc_bottom .LCPI3_0.data
	.text
	.globl	eth_phy_loopback
	.align	2
	.type	eth_phy_loopback,@function
eth_phy_loopback:
.Ltmp63:
	.cfi_startproc
.Lfunc_begin3:
	.loc	1 227 0
.Lxtalabel7:
	entsp 4
.Ltmp64:
	.cfi_def_cfa_offset 16
.Ltmp65:
	.cfi_offset 15, 0
	.loc	1 227 0 prologue_end
.Ltmp66:
	stw r4, sp[3]
.Ltmp67:
	.cfi_offset 4, -4
	stw r5, sp[2]
.Ltmp68:
	.cfi_offset 5, -8
	stw r6, sp[1]
.Ltmp69:
	.cfi_offset 6, -12
	mov r5, r1
.Ltmp70:
	mov r6, r0
.Ltmp71:
	ldc r4, 0
	mkmsk r3, 1
	.loc	1 228 0
.Ltmp72:
	mov r0, r5
	mov r1, r4
	mov r2, r4
.Lxta.call_labels7:
	bl smi_reg
.Ltmp73:
	.loc	1 233 0
	bf r6, .LBB3_2
.Ltmp74:
	ldc r1, 16384
	bu .LBB3_3
.LBB3_2:
.Lxtalabel8:
	ldc r1, 4096
.LBB3_3:
.Lxtalabel9:
.Ltmp75:
	ldw r2, cp[.LCPI3_0]
	.loc	1 230 0
	and r0, r0, r2
.Ltmp76:
	.loc	1 233 0
	or r2, r0, r1
	.loc	1 238 0
	mov r0, r5
	mov r1, r4
	mov r3, r4
.Lxta.call_labels8:
	bl smi_reg
	ldw r6, sp[1]
	ldw r5, sp[2]
.Ltmp77:
	ldw r4, sp[3]
	retsp 4
.Ltmp78:
.Ltmp79:
	.size	eth_phy_loopback, .Ltmp79-eth_phy_loopback
.Lfunc_end3:
.Ltmp80:
	.cfi_endproc
.Leh_func_end3:

	.cc_bottom eth_phy_loopback.function
	.set	eth_phy_loopback.nstackwords,(smi_reg.nstackwords + 4)
	.globl	eth_phy_loopback.nstackwords
	.set	eth_phy_loopback.maxcores,smi_reg.maxcores $M 1
	.globl	eth_phy_loopback.maxcores
	.set	eth_phy_loopback.maxtimers,smi_reg.maxtimers $M 0
	.globl	eth_phy_loopback.maxtimers
	.set	eth_phy_loopback.maxchanends,smi_reg.maxchanends $M 0
	.globl	eth_phy_loopback.maxchanends
	.cc_top eth_phy_id.function
	.section	.cp.rodata.cst4,"aMc",@progbits,4
	.cc_top .LCPI4_0.data
	.align	4
.LCPI4_0:
	.long	4294901760
	.cc_bottom .LCPI4_0.data
	.text
	.globl	eth_phy_id
	.align	2
	.type	eth_phy_id,@function
eth_phy_id:
.Ltmp86:
	.cfi_startproc
.Lfunc_begin4:
	.loc	1 179 0
.Lxtalabel10:
	entsp 5
.Ltmp87:
	.cfi_def_cfa_offset 20
.Ltmp88:
	.cfi_offset 15, 0
	.loc	1 179 0 prologue_end
.Ltmp89:
	stw r4, sp[4]
.Ltmp90:
	.cfi_offset 4, -4
	stw r5, sp[3]
.Ltmp91:
	.cfi_offset 5, -8
	stw r6, sp[2]
.Ltmp92:
	.cfi_offset 6, -12
	stw r7, sp[1]
.Ltmp93:
	.cfi_offset 7, -16
	mov r4, r0
.Ltmp94:
	ldc r1, 2
	ldc r7, 0
	mkmsk r6, 1
	.loc	1 180 0
.Ltmp95:
	mov r0, r4
	mov r2, r7
	mov r3, r6
.Lxta.call_labels9:
	bl smi_reg
	mov r5, r0
.Ltmp96:
	mkmsk r1, 2
	.loc	1 181 0
.Ltmp97:
	mov r0, r4
	mov r2, r7
	mov r3, r6
.Lxta.call_labels10:
	bl smi_reg
.Ltmp98:
	.loc	1 182 0
	shl r0, r0, 6
.Ltmp99:
	ldw r1, cp[.LCPI4_0]
	and r0, r0, r1
	or r0, r0, r5
	ldw r7, sp[1]
	ldw r6, sp[2]
	ldw r5, sp[3]
.Ltmp100:
	ldw r4, sp[4]
.Ltmp101:
	retsp 5
.Ltmp102:
.Ltmp103:
	.size	eth_phy_id, .Ltmp103-eth_phy_id
.Lfunc_end4:
.Ltmp104:
	.cfi_endproc
.Leh_func_end4:

	.cc_bottom eth_phy_id.function
	.set	eth_phy_id.nstackwords,(smi_reg.nstackwords + 5)
	.globl	eth_phy_id.nstackwords
	.set	eth_phy_id.maxcores,smi_reg.maxcores $M 1
	.globl	eth_phy_id.maxcores
	.set	eth_phy_id.maxtimers,smi_reg.maxtimers $M 0
	.globl	eth_phy_id.maxtimers
	.set	eth_phy_id.maxchanends,smi_reg.maxchanends $M 0
	.globl	eth_phy_id.maxchanends
	.cc_top smi_check_link_state.function
	.globl	smi_check_link_state
	.align	2
	.type	smi_check_link_state,@function
smi_check_link_state:
.Ltmp106:
	.cfi_startproc
.Lfunc_begin5:
	.loc	1 241 0
.Lxtalabel11:
	entsp 1
.Ltmp107:
	.cfi_def_cfa_offset 4
.Ltmp108:
	.cfi_offset 15, 0
	ldc r2, 0
	mkmsk r3, 1
	.loc	1 242 0 prologue_end
.Ltmp109:
	mov r1, r3
.Lxta.call_labels11:
	bl smi_reg
.Ltmp110:
	.loc	1 242 0
	shr r0, r0, 2
	zext r0, 1
	retsp 1
.Ltmp111:
.Ltmp112:
	.size	smi_check_link_state, .Ltmp112-smi_check_link_state
.Lfunc_end5:
.Ltmp113:
	.cfi_endproc
.Leh_func_end5:

	.cc_bottom smi_check_link_state.function
	.set	smi_check_link_state.nstackwords,(smi_reg.nstackwords + 1)
	.globl	smi_check_link_state.nstackwords
	.set	smi_check_link_state.maxcores,smi_reg.maxcores $M 1
	.globl	smi_check_link_state.maxcores
	.set	smi_check_link_state.maxtimers,smi_reg.maxtimers $M 0
	.globl	smi_check_link_state.maxtimers
	.set	smi_check_link_state.maxchanends,smi_reg.maxchanends $M 0
	.globl	smi_check_link_state.maxchanends
	.cc_top smi_reg.function
	.globl	smi_reg
	.align	2
	.type	smi_reg,@function
smi_reg:
.Ltmp120:
	.cfi_startproc
.Lfunc_begin6:
	.loc	1 172 0
.Lxtalabel12:
	entsp 6
.Ltmp121:
	.cfi_def_cfa_offset 24
.Ltmp122:
	.cfi_offset 15, 0
	.loc	1 172 0 prologue_end
.Ltmp123:
	stw r4, sp[5]
.Ltmp124:
	.cfi_offset 4, -4
	stw r5, sp[4]
.Ltmp125:
	.cfi_offset 5, -8
	stw r6, sp[3]
.Ltmp126:
	.cfi_offset 6, -12
	stw r7, sp[2]
.Ltmp127:
	.cfi_offset 7, -16
	stw r8, sp[1]
.Ltmp128:
	.cfi_offset 8, -20
	mov r4, r3
.Ltmp129:
	mov r5, r2
.Ltmp130:
	mov r8, r1
.Ltmp131:
	mov r6, r0
.Ltmp132:
	mkmsk r1, 32
	ldc r2, 32
	ldc r7, 0
	.loc	1 173 0
.Ltmp133:
	mov r0, r6
	mov r3, r7
.Lxta.call_labels12:
	bl smi_bit_shift
	ldc r0, 10
	.loc	1 174 0
	shl r0, r4, r0
	ldc r1, 5120
	add r0, r0, r1
	or r0, r0, r8
	ldw r1, r6[0]
	shl r1, r1, 5
	or r1, r0, r1
	ldc r2, 14
	.loc	1 174 0
	mov r0, r6
	mov r3, r7
.Lxta.call_labels13:
	bl smi_bit_shift
	ldc r2, 2
	.loc	1 175 0
	mov r0, r6
	mov r1, r2
	mov r3, r4
.Lxta.call_labels14:
	bl smi_bit_shift
	ldc r2, 16
	.loc	1 176 0
	mov r0, r6
	mov r1, r5
.Ltmp134:
	mov r3, r4
.Lxta.call_labels15:
	bl smi_bit_shift
.Ltmp135:
	ldw r8, sp[1]
.Ltmp136:
	ldw r7, sp[2]
	ldw r6, sp[3]
.Ltmp137:
	ldw r5, sp[4]
	ldw r4, sp[5]
.Ltmp138:
	retsp 6
.Ltmp139:
.Ltmp140:
	.size	smi_reg, .Ltmp140-smi_reg
.Lfunc_end6:
.Ltmp141:
	.cfi_endproc
.Leh_func_end6:

	.cc_bottom smi_reg.function
	.set	smi_reg.nstackwords,(smi_bit_shift.nstackwords + 6)
	.globl	smi_reg.nstackwords
	.set	smi_reg.maxcores,smi_bit_shift.maxcores $M 1
	.globl	smi_reg.maxcores
	.set	smi_reg.maxtimers,smi_bit_shift.maxtimers $M 0
	.globl	smi_reg.maxtimers
	.set	smi_reg.maxchanends,smi_bit_shift.maxchanends $M 0
	.globl	smi_reg.maxchanends
	.cc_top smi_bit_shift.function
	.align	2
	.type	smi_bit_shift,@function
smi_bit_shift:
.Ltmp148:
	.cfi_startproc
.Lfunc_begin7:
	.loc	1 103 0
.Lxtalabel13:
	entsp 5
.Ltmp149:
	.cfi_def_cfa_offset 20
.Ltmp150:
	.cfi_offset 15, 0
	.loc	1 103 0 prologue_end
.Ltmp151:
	stw r4, sp[4]
.Ltmp152:
	.cfi_offset 4, -4
	stw r5, sp[3]
.Ltmp153:
	.cfi_offset 5, -8
	stw r6, sp[2]
.Ltmp154:
	.cfi_offset 6, -12
	stw r7, sp[1]
.Ltmp155:
	.cfi_offset 7, -16
	stw r8, sp[0]
.Ltmp156:
	.cfi_offset 8, -20
.Ltmp157:
	.loc	1 108 0
	ldw r0, r0[1]
.Ltmp158:
	setc res[r0], 1
	.loc	1 108 0
.Ltmp159:
.Lxta.endpoint_labels1:
	in r11, res[r0]
	.loc	1 108 0
	getts r11, res[r0]
.Ltmp160:
	.loc	1 109 0
	bf r3, .LBB7_6
.Ltmp161:
.Lxtalabel14:
	.loc	1 110 0
	bf r2, .LBB7_4
.Ltmp162:
	ldc r3, 30
	ldc r4, 2
	ldc r5, 60
	mkmsk r6, 1
.Ltmp163:
.LBB7_3:
.Lxtalabel15:
	.loc	1 112 0
	add r7, r11, r3
	setc res[r0], 1
	setpt res[r0], r7
	.loc	1 112 0
.Lxta.endpoint_labels2:
	in r7, res[r0]
	.loc	1 113 0
	and r7, r7, r4
	.loc	1 117 0
.Lxta.endpoint_labels3:
	out res[r0], r7
	.loc	1 119 0
	add r11, r11, r5
.Ltmp164:
	setpt res[r0], r11
	or r8, r7, r6
	.loc	1 119 0
.Lxta.endpoint_labels4:
	out res[r0], r8
	.loc	1 118 0
	shr r7, r7, 1
	shl r1, r1, 1
	or r1, r7, r1
.Ltmp165:
	.loc	1 120 0
.Lxta.endpoint_labels5:
	in r7, res[r0]
.Lxta.loop_labels0:
	# LOOPMARKER 0
.Ltmp166:
	.loc	1 111 0
	sub r2, r2, 1
.Ltmp167:
	bt r2, .LBB7_3
.Ltmp168:
.LBB7_4:
.Lxtalabel16:
	ldc r2, 30
	.loc	1 123 0
.Ltmp169:
	add r2, r11, r2
	setc res[r0], 1
	setpt res[r0], r2
	.loc	1 123 0
.Ltmp170:
.Lxta.endpoint_labels6:
	in r0, res[r0]
.LBB7_5:
.Lxtalabel17:
	mov r0, r1
	ldw r8, sp[0]
	ldw r7, sp[1]
	ldw r6, sp[2]
	ldw r5, sp[3]
	ldw r4, sp[4]
	retsp 5
.LBB7_6:
.Lxtalabel18:
.Ltmp171:
	.loc	1 125 0
	bt r2, .LBB7_9
.Ltmp172:
	mkmsk r7, 1
.LBB7_8:
.Lxtalabel19:
	ldc r2, 30
	.loc	1 135 0
	add r2, r11, r2
	setpt res[r0], r2
	.loc	1 135 0
.Lxta.endpoint_labels7:
	out res[r0], r7
	bu .LBB7_5
.LBB7_9:
.Ltmp173:
	ldc r3, 30
	ldc r4, 2
	ldc r5, 60
	mkmsk r6, 1
.Ltmp174:
.LBB7_10:
.Lxtalabel20:
	.loc	1 131 0
	add r7, r11, r3
	setpt res[r0], r7
	.loc	1 126 0
	sub r2, r2, 1
.Ltmp175:
	.loc	1 127 0
	shr r7, r1, r2
	shl r7, r7, 1
	and r7, r7, r4
	.loc	1 131 0
.Lxta.endpoint_labels8:
	out res[r0], r7
	.loc	1 132 0
	add r11, r11, r5
.Ltmp176:
	setpt res[r0], r11
	or r7, r7, r6
	.loc	1 132 0
.Lxta.endpoint_labels9:
	out res[r0], r7
.Lxta.loop_labels1:
	# LOOPMARKER 1
	.loc	1 125 0
	bt r2, .LBB7_10
	bu .LBB7_8
.Ltmp177:
.Ltmp178:
	.size	smi_bit_shift, .Ltmp178-smi_bit_shift
.Lfunc_end7:
.Ltmp179:
	.cfi_endproc
.Leh_func_end7:

	.cc_bottom smi_bit_shift.function
	.set	smi_bit_shift.nstackwords,5
	.set	smi_bit_shift.maxcores,1
	.set	smi_bit_shift.maxtimers,0
	.set	smi_bit_shift.maxchanends,0
	.cfi_sections .debug_frame
.Ltext_end:
	.section	.dp.data,"awd",@progbits
.Ldata_end:
	.text
.Lsection_end1:
	.section	.xtacalltable,"",@progbits
.Lentries_start0:
	.long	.Lentries_end1-.Lentries_start0
	.long	0
	.ascii	 "/home/vdelacruz/Documents/Ethernet 2 Ports/app_simple_webserver/.build_IPV4"
	.byte	0
.cc_top cc_0,.Lxta.call_labels12
	.ascii	 "/home/vdelacruz/Documents/Ethernet 2 Ports/module_ethernet_smi/src/smi.xc"
	.byte	0
	.long	173
	.long	.Lxta.call_labels12
.cc_bottom cc_0
.cc_top cc_1,.Lxta.call_labels13
	.ascii	 "/home/vdelacruz/Documents/Ethernet 2 Ports/module_ethernet_smi/src/smi.xc"
	.byte	0
	.long	174
	.long	.Lxta.call_labels13
.cc_bottom cc_1
.cc_top cc_2,.Lxta.call_labels14
	.ascii	 "/home/vdelacruz/Documents/Ethernet 2 Ports/module_ethernet_smi/src/smi.xc"
	.byte	0
	.long	175
	.long	.Lxta.call_labels14
.cc_bottom cc_2
.cc_top cc_3,.Lxta.call_labels15
	.ascii	 "/home/vdelacruz/Documents/Ethernet 2 Ports/module_ethernet_smi/src/smi.xc"
	.byte	0
	.long	176
	.long	.Lxta.call_labels15
.cc_bottom cc_3
.cc_top cc_4,.Lxta.call_labels9
	.ascii	 "/home/vdelacruz/Documents/Ethernet 2 Ports/module_ethernet_smi/src/smi.xc"
	.byte	0
	.long	180
	.long	.Lxta.call_labels9
.cc_bottom cc_4
.cc_top cc_5,.Lxta.call_labels10
	.ascii	 "/home/vdelacruz/Documents/Ethernet 2 Ports/module_ethernet_smi/src/smi.xc"
	.byte	0
	.long	181
	.long	.Lxta.call_labels10
.cc_bottom cc_5
.cc_top cc_6,.Lxta.call_labels0
	.ascii	 "/home/vdelacruz/Documents/Ethernet 2 Ports/module_ethernet_smi/src/smi.xc"
	.byte	0
	.long	187
	.long	.Lxta.call_labels0
.cc_bottom cc_6
.cc_top cc_7,.Lxta.call_labels1
	.ascii	 "/home/vdelacruz/Documents/Ethernet 2 Ports/module_ethernet_smi/src/smi.xc"
	.byte	0
	.long	200
	.long	.Lxta.call_labels1
.cc_bottom cc_7
.cc_top cc_8,.Lxta.call_labels2
	.ascii	 "/home/vdelacruz/Documents/Ethernet 2 Ports/module_ethernet_smi/src/smi.xc"
	.byte	0
	.long	202
	.long	.Lxta.call_labels2
.cc_bottom cc_8
.cc_top cc_9,.Lxta.call_labels3
	.ascii	 "/home/vdelacruz/Documents/Ethernet 2 Ports/module_ethernet_smi/src/smi.xc"
	.byte	0
	.long	208
	.long	.Lxta.call_labels3
.cc_bottom cc_9
.cc_top cc_10,.Lxta.call_labels4
	.ascii	 "/home/vdelacruz/Documents/Ethernet 2 Ports/module_ethernet_smi/src/smi.xc"
	.byte	0
	.long	211
	.long	.Lxta.call_labels4
.cc_bottom cc_10
.cc_top cc_11,.Lxta.call_labels5
	.ascii	 "/home/vdelacruz/Documents/Ethernet 2 Ports/module_ethernet_smi/src/smi.xc"
	.byte	0
	.long	215
	.long	.Lxta.call_labels5
.cc_bottom cc_11
.cc_top cc_12,.Lxta.call_labels6
	.ascii	 "/home/vdelacruz/Documents/Ethernet 2 Ports/module_ethernet_smi/src/smi.xc"
	.byte	0
	.long	223
	.long	.Lxta.call_labels6
.cc_bottom cc_12
.cc_top cc_13,.Lxta.call_labels7
	.ascii	 "/home/vdelacruz/Documents/Ethernet 2 Ports/module_ethernet_smi/src/smi.xc"
	.byte	0
	.long	228
	.long	.Lxta.call_labels7
.cc_bottom cc_13
.cc_top cc_14,.Lxta.call_labels8
	.ascii	 "/home/vdelacruz/Documents/Ethernet 2 Ports/module_ethernet_smi/src/smi.xc"
	.byte	0
	.long	238
	.long	.Lxta.call_labels8
.cc_bottom cc_14
.cc_top cc_15,.Lxta.call_labels11
	.ascii	 "/home/vdelacruz/Documents/Ethernet 2 Ports/module_ethernet_smi/src/smi.xc"
	.byte	0
	.long	242
	.long	.Lxta.call_labels11
.cc_bottom cc_15
.Lentries_end1:
	.section	.xtaendpointtable,"",@progbits
.Lentries_start2:
	.long	.Lentries_end3-.Lentries_start2
	.long	0
	.ascii	 "/home/vdelacruz/Documents/Ethernet 2 Ports/app_simple_webserver/.build_IPV4"
	.byte	0
.cc_top cc_16,.Lxta.endpoint_labels0
	.ascii	 "/home/vdelacruz/Documents/Ethernet 2 Ports/module_ethernet_smi/src/smi.xc"
	.byte	0
	.long	90
	.long	.Lxta.endpoint_labels0
.cc_bottom cc_16
.cc_top cc_17,.Lxta.endpoint_labels1
	.ascii	 "/home/vdelacruz/Documents/Ethernet 2 Ports/module_ethernet_smi/src/smi.xc"
	.byte	0
	.long	108
	.long	.Lxta.endpoint_labels1
.cc_bottom cc_17
.cc_top cc_18,.Lxta.endpoint_labels2
	.ascii	 "/home/vdelacruz/Documents/Ethernet 2 Ports/module_ethernet_smi/src/smi.xc"
	.byte	0
	.long	112
	.long	.Lxta.endpoint_labels2
.cc_bottom cc_18
.cc_top cc_19,.Lxta.endpoint_labels3
	.ascii	 "/home/vdelacruz/Documents/Ethernet 2 Ports/module_ethernet_smi/src/smi.xc"
	.byte	0
	.long	117
	.long	.Lxta.endpoint_labels3
.cc_bottom cc_19
.cc_top cc_20,.Lxta.endpoint_labels4
	.ascii	 "/home/vdelacruz/Documents/Ethernet 2 Ports/module_ethernet_smi/src/smi.xc"
	.byte	0
	.long	119
	.long	.Lxta.endpoint_labels4
.cc_bottom cc_20
.cc_top cc_21,.Lxta.endpoint_labels5
	.ascii	 "/home/vdelacruz/Documents/Ethernet 2 Ports/module_ethernet_smi/src/smi.xc"
	.byte	0
	.long	120
	.long	.Lxta.endpoint_labels5
.cc_bottom cc_21
.cc_top cc_22,.Lxta.endpoint_labels6
	.ascii	 "/home/vdelacruz/Documents/Ethernet 2 Ports/module_ethernet_smi/src/smi.xc"
	.byte	0
	.long	123
	.long	.Lxta.endpoint_labels6
.cc_bottom cc_22
.cc_top cc_23,.Lxta.endpoint_labels8
	.ascii	 "/home/vdelacruz/Documents/Ethernet 2 Ports/module_ethernet_smi/src/smi.xc"
	.byte	0
	.long	131
	.long	.Lxta.endpoint_labels8
.cc_bottom cc_23
.cc_top cc_24,.Lxta.endpoint_labels9
	.ascii	 "/home/vdelacruz/Documents/Ethernet 2 Ports/module_ethernet_smi/src/smi.xc"
	.byte	0
	.long	132
	.long	.Lxta.endpoint_labels9
.cc_bottom cc_24
.cc_top cc_25,.Lxta.endpoint_labels7
	.ascii	 "/home/vdelacruz/Documents/Ethernet 2 Ports/module_ethernet_smi/src/smi.xc"
	.byte	0
	.long	135
	.long	.Lxta.endpoint_labels7
.cc_bottom cc_25
.Lentries_end3:
	.section	.xtalabeltable,"",@progbits
.Lentries_start4:
	.long	.Lentries_end5-.Lentries_start4
	.long	0
	.ascii	 "/home/vdelacruz/Documents/Ethernet 2 Ports/app_simple_webserver/.build_IPV4"
	.byte	0
.cc_top cc_26,.Lxtalabel0
	.ascii	 "/home/vdelacruz/Documents/Ethernet 2 Ports/module_ethernet_smi/src/smi.xc"
	.byte	0
	.long	77
	.long	77
	.long	.Lxtalabel0
.cc_bottom cc_26
.cc_top cc_27,.Lxtalabel0
	.ascii	 "/home/vdelacruz/Documents/Ethernet 2 Ports/module_ethernet_smi/src/smi.xc"
	.byte	0
	.long	89
	.long	89
	.long	.Lxtalabel0
.cc_bottom cc_27
.cc_top cc_28,.Lxtalabel13
	.ascii	 "/home/vdelacruz/Documents/Ethernet 2 Ports/module_ethernet_smi/src/smi.xc"
	.byte	0
	.long	104
	.long	107
	.long	.Lxtalabel13
.cc_bottom cc_28
.cc_top cc_29,.Lxtalabel13
	.ascii	 "/home/vdelacruz/Documents/Ethernet 2 Ports/module_ethernet_smi/src/smi.xc"
	.byte	0
	.long	108
	.long	109
	.long	.Lxtalabel13
.cc_bottom cc_29
.cc_top cc_30,.Lxtalabel14
	.ascii	 "/home/vdelacruz/Documents/Ethernet 2 Ports/module_ethernet_smi/src/smi.xc"
	.byte	0
	.long	110
	.long	110
	.long	.Lxtalabel14
.cc_bottom cc_30
.cc_top cc_31,.Lxtalabel15
	.ascii	 "/home/vdelacruz/Documents/Ethernet 2 Ports/module_ethernet_smi/src/smi.xc"
	.byte	0
	.long	111
	.long	114
	.long	.Lxtalabel15
.cc_bottom cc_31
.cc_top cc_32,.Lxtalabel15
	.ascii	 "/home/vdelacruz/Documents/Ethernet 2 Ports/module_ethernet_smi/src/smi.xc"
	.byte	0
	.long	117
	.long	122
	.long	.Lxtalabel15
.cc_bottom cc_32
.cc_top cc_33,.Lxtalabel16
	.ascii	 "/home/vdelacruz/Documents/Ethernet 2 Ports/module_ethernet_smi/src/smi.xc"
	.byte	0
	.long	123
	.long	124
	.long	.Lxtalabel16
.cc_bottom cc_33
.cc_top cc_34,.Lxtalabel18
	.ascii	 "/home/vdelacruz/Documents/Ethernet 2 Ports/module_ethernet_smi/src/smi.xc"
	.byte	0
	.long	125
	.long	125
	.long	.Lxtalabel18
.cc_bottom cc_34
.cc_top cc_35,.Lxtalabel20
	.ascii	 "/home/vdelacruz/Documents/Ethernet 2 Ports/module_ethernet_smi/src/smi.xc"
	.byte	0
	.long	126
	.long	128
	.long	.Lxtalabel20
.cc_bottom cc_35
.cc_top cc_36,.Lxtalabel20
	.ascii	 "/home/vdelacruz/Documents/Ethernet 2 Ports/module_ethernet_smi/src/smi.xc"
	.byte	0
	.long	131
	.long	134
	.long	.Lxtalabel20
.cc_bottom cc_36
.cc_top cc_37,.Lxtalabel19
	.ascii	 "/home/vdelacruz/Documents/Ethernet 2 Ports/module_ethernet_smi/src/smi.xc"
	.byte	0
	.long	135
	.long	136
	.long	.Lxtalabel19
.cc_bottom cc_37
.cc_top cc_38,.Lxtalabel17
	.ascii	 "/home/vdelacruz/Documents/Ethernet 2 Ports/module_ethernet_smi/src/smi.xc"
	.byte	0
	.long	137
	.long	138
	.long	.Lxtalabel17
.cc_bottom cc_38
.cc_top cc_39,.Lxtalabel12
	.ascii	 "/home/vdelacruz/Documents/Ethernet 2 Ports/module_ethernet_smi/src/smi.xc"
	.byte	0
	.long	173
	.long	177
	.long	.Lxtalabel12
.cc_bottom cc_39
.cc_top cc_40,.Lxtalabel10
	.ascii	 "/home/vdelacruz/Documents/Ethernet 2 Ports/module_ethernet_smi/src/smi.xc"
	.byte	0
	.long	180
	.long	183
	.long	.Lxtalabel10
.cc_bottom cc_40
.cc_top cc_41,.Lxtalabel1
	.ascii	 "/home/vdelacruz/Documents/Ethernet 2 Ports/module_ethernet_smi/src/smi.xc"
	.byte	0
	.long	186
	.long	193
	.long	.Lxtalabel1
.cc_bottom cc_41
.cc_top cc_42,.Lxtalabel2
	.ascii	 "/home/vdelacruz/Documents/Ethernet 2 Ports/module_ethernet_smi/src/smi.xc"
	.byte	0
	.long	186
	.long	193
	.long	.Lxtalabel2
.cc_bottom cc_42
.cc_top cc_43,.Lxtalabel3
	.ascii	 "/home/vdelacruz/Documents/Ethernet 2 Ports/module_ethernet_smi/src/smi.xc"
	.byte	0
	.long	186
	.long	193
	.long	.Lxtalabel3
.cc_bottom cc_43
.cc_top cc_44,.Lxtalabel1
	.ascii	 "/home/vdelacruz/Documents/Ethernet 2 Ports/module_ethernet_smi/src/smi.xc"
	.byte	0
	.long	198
	.long	212
	.long	.Lxtalabel1
.cc_bottom cc_44
.cc_top cc_45,.Lxtalabel2
	.ascii	 "/home/vdelacruz/Documents/Ethernet 2 Ports/module_ethernet_smi/src/smi.xc"
	.byte	0
	.long	198
	.long	212
	.long	.Lxtalabel2
.cc_bottom cc_45
.cc_top cc_46,.Lxtalabel3
	.ascii	 "/home/vdelacruz/Documents/Ethernet 2 Ports/module_ethernet_smi/src/smi.xc"
	.byte	0
	.long	198
	.long	212
	.long	.Lxtalabel3
.cc_bottom cc_46
.cc_top cc_47,.Lxtalabel5
	.ascii	 "/home/vdelacruz/Documents/Ethernet 2 Ports/module_ethernet_smi/src/smi.xc"
	.byte	0
	.long	215
	.long	220
	.long	.Lxtalabel5
.cc_bottom cc_47
.cc_top cc_48,.Lxtalabel4
	.ascii	 "/home/vdelacruz/Documents/Ethernet 2 Ports/module_ethernet_smi/src/smi.xc"
	.byte	0
	.long	215
	.long	220
	.long	.Lxtalabel4
.cc_bottom cc_48
.cc_top cc_49,.Lxtalabel6
	.ascii	 "/home/vdelacruz/Documents/Ethernet 2 Ports/module_ethernet_smi/src/smi.xc"
	.byte	0
	.long	215
	.long	220
	.long	.Lxtalabel6
.cc_bottom cc_49
.cc_top cc_50,.Lxtalabel4
	.ascii	 "/home/vdelacruz/Documents/Ethernet 2 Ports/module_ethernet_smi/src/smi.xc"
	.byte	0
	.long	221
	.long	222
	.long	.Lxtalabel4
.cc_bottom cc_50
.cc_top cc_51,.Lxtalabel6
	.ascii	 "/home/vdelacruz/Documents/Ethernet 2 Ports/module_ethernet_smi/src/smi.xc"
	.byte	0
	.long	221
	.long	222
	.long	.Lxtalabel6
.cc_bottom cc_51
.cc_top cc_52,.Lxtalabel5
	.ascii	 "/home/vdelacruz/Documents/Ethernet 2 Ports/module_ethernet_smi/src/smi.xc"
	.byte	0
	.long	221
	.long	222
	.long	.Lxtalabel5
.cc_bottom cc_52
.cc_top cc_53,.Lxtalabel4
	.ascii	 "/home/vdelacruz/Documents/Ethernet 2 Ports/module_ethernet_smi/src/smi.xc"
	.byte	0
	.long	223
	.long	224
	.long	.Lxtalabel4
.cc_bottom cc_53
.cc_top cc_54,.Lxtalabel6
	.ascii	 "/home/vdelacruz/Documents/Ethernet 2 Ports/module_ethernet_smi/src/smi.xc"
	.byte	0
	.long	223
	.long	224
	.long	.Lxtalabel6
.cc_bottom cc_54
.cc_top cc_55,.Lxtalabel5
	.ascii	 "/home/vdelacruz/Documents/Ethernet 2 Ports/module_ethernet_smi/src/smi.xc"
	.byte	0
	.long	223
	.long	224
	.long	.Lxtalabel5
.cc_bottom cc_55
.cc_top cc_56,.Lxtalabel9
	.ascii	 "/home/vdelacruz/Documents/Ethernet 2 Ports/module_ethernet_smi/src/smi.xc"
	.byte	0
	.long	228
	.long	233
	.long	.Lxtalabel9
.cc_bottom cc_56
.cc_top cc_57,.Lxtalabel8
	.ascii	 "/home/vdelacruz/Documents/Ethernet 2 Ports/module_ethernet_smi/src/smi.xc"
	.byte	0
	.long	228
	.long	233
	.long	.Lxtalabel8
.cc_bottom cc_57
.cc_top cc_58,.Lxtalabel7
	.ascii	 "/home/vdelacruz/Documents/Ethernet 2 Ports/module_ethernet_smi/src/smi.xc"
	.byte	0
	.long	228
	.long	233
	.long	.Lxtalabel7
.cc_bottom cc_58
.cc_top cc_59,.Lxtalabel9
	.ascii	 "/home/vdelacruz/Documents/Ethernet 2 Ports/module_ethernet_smi/src/smi.xc"
	.byte	0
	.long	238
	.long	239
	.long	.Lxtalabel9
.cc_bottom cc_59
.cc_top cc_60,.Lxtalabel8
	.ascii	 "/home/vdelacruz/Documents/Ethernet 2 Ports/module_ethernet_smi/src/smi.xc"
	.byte	0
	.long	238
	.long	239
	.long	.Lxtalabel8
.cc_bottom cc_60
.cc_top cc_61,.Lxtalabel7
	.ascii	 "/home/vdelacruz/Documents/Ethernet 2 Ports/module_ethernet_smi/src/smi.xc"
	.byte	0
	.long	238
	.long	239
	.long	.Lxtalabel7
.cc_bottom cc_61
.cc_top cc_62,.Lxtalabel11
	.ascii	 "/home/vdelacruz/Documents/Ethernet 2 Ports/module_ethernet_smi/src/smi.xc"
	.byte	0
	.long	242
	.long	243
	.long	.Lxtalabel11
.cc_bottom cc_62
.Lentries_end5:
	.section	.xtalooplabeltable,"",@progbits
.Lentries_start6:
	.long	.Lentries_end7-.Lentries_start6
	.long	0
	.ascii	 "/home/vdelacruz/Documents/Ethernet 2 Ports/app_simple_webserver/.build_IPV4"
	.byte	0
.cc_top cc_63,.Lxta.loop_labels0
	.ascii	 "/home/vdelacruz/Documents/Ethernet 2 Ports/module_ethernet_smi/src/smi.xc"
	.byte	0
	.long	111
	.long	114
	.long	.Lxta.loop_labels0
.cc_bottom cc_63
.cc_top cc_64,.Lxta.loop_labels0
	.ascii	 "/home/vdelacruz/Documents/Ethernet 2 Ports/module_ethernet_smi/src/smi.xc"
	.byte	0
	.long	117
	.long	122
	.long	.Lxta.loop_labels0
.cc_bottom cc_64
.cc_top cc_65,.Lxta.loop_labels1
	.ascii	 "/home/vdelacruz/Documents/Ethernet 2 Ports/module_ethernet_smi/src/smi.xc"
	.byte	0
	.long	126
	.long	128
	.long	.Lxta.loop_labels1
.cc_bottom cc_65
.cc_top cc_66,.Lxta.loop_labels1
	.ascii	 "/home/vdelacruz/Documents/Ethernet 2 Ports/module_ethernet_smi/src/smi.xc"
	.byte	0
	.long	131
	.long	134
	.long	.Lxta.loop_labels1
.cc_bottom cc_66
.Lentries_end7:
