	.file	"/home/vdelacruz/Documents/Ethernet sin mii/module_xtcp/src/xtcp_uip/uip.c"

.set uip_setipid.locnoside, 1

.set uip_setipid.locnochandec, 1

.set uip_setipid.locnoglobalaccess, 1

.set uip_setipid.locnointerfaceaccess, 1

.set uip_setipid.locnonotificationselect, 1

.set xtcp_copy_word.locnoside, 1

.set xtcp_copy_word.locnochandec, 1

.set xtcp_copy_word.locnoglobalaccess, 1

.set xtcp_copy_word.locnointerfaceaccess, 1

.set xtcp_copy_word.locnonotificationselect, 1

.set uip_ipaddr_copy.locnoside, 1

.set uip_ipaddr_copy.locnochandec, 1

.set uip_ipaddr_copy.locnoglobalaccess, 1

.set uip_ipaddr_copy.locnointerfaceaccess, 1

.set uip_ipaddr_copy.locnonotificationselect, 1

.set uip_ipaddr_cmp.locnoside, 1

.set uip_ipaddr_cmp.locnochandec, 1

.set uip_ipaddr_cmp.locnoglobalaccess, 1

.set uip_ipaddr_cmp.locnointerfaceaccess, 1

.set uip_ipaddr_cmp.locnonotificationselect, 1

.set uip_unlisten.locnoside, 1

.set uip_unlisten.locnochandec, 1

.set uip_unlisten.locnoglobalaccess, 1

.set uip_unlisten.locnointerfaceaccess, 1

.set uip_unlisten.locnonotificationselect, 1

.set uip_udp_unlisten.locnoside, 1

.set uip_udp_unlisten.locnochandec, 1

.set uip_udp_unlisten.locnoglobalaccess, 1

.set uip_udp_unlisten.locnointerfaceaccess, 1

.set uip_udp_unlisten.locnonotificationselect, 1

.set uip_listen.locnoside, 1

.set uip_listen.locnochandec, 1

.set uip_listen.locnoglobalaccess, 1

.set uip_listen.locnointerfaceaccess, 1

.set uip_listen.locnonotificationselect, 1

.set uip_udp_listen.locnoside, 1

.set uip_udp_listen.locnochandec, 1

.set uip_udp_listen.locnoglobalaccess, 1

.set uip_udp_listen.locnointerfaceaccess, 1

.set uip_udp_listen.locnonotificationselect, 1

.set htons.locnoside, 1

.set htons.locnochandec, 1

.set htons.locnoglobalaccess, 1

.set htons.locnointerfaceaccess, 1

.set htons.locnonotificationselect, 1

.set uip_connect.locnoside, 1

.set uip_connect.locnochandec, 1

.set uip_connect.locnoglobalaccess, 1

.set uip_connect.locnointerfaceaccess, 1

.set uip_connect.locnonotificationselect, 1

.set uip_send.locnoside, 1

.set uip_send.locnochandec, 1

.set uip_send.locnoglobalaccess, 1

.set uip_send.locnointerfaceaccess, 1

.set uip_send.locnonotificationselect, 1

.set uip_udpchksum.locnoside, 1

.set uip_udpchksum.locnochandec, 1

.set uip_udpchksum.locnoglobalaccess, 1

.set uip_udpchksum.locnointerfaceaccess, 1

.set uip_udpchksum.locnonotificationselect, 1

.set uip_tcpchksum.locnoside, 1

.set uip_tcpchksum.locnochandec, 1

.set uip_tcpchksum.locnoglobalaccess, 1

.set uip_tcpchksum.locnointerfaceaccess, 1

.set uip_tcpchksum.locnonotificationselect, 1

.set uip_ipchksum.locnoside, 1

.set uip_ipchksum.locnochandec, 1

.set uip_ipchksum.locnoglobalaccess, 1

.set uip_ipchksum.locnointerfaceaccess, 1

.set uip_ipchksum.locnonotificationselect, 1

.set uip_chksum.locnoside, 1

.set uip_chksum.locnochandec, 1

.set uip_chksum.locnoglobalaccess, 1

.set uip_chksum.locnointerfaceaccess, 1

.set uip_chksum.locnonotificationselect, 1

.set uip_add32.locnoside, 1

.set uip_add32.locnochandec, 1

.set uip_add32.locnoglobalaccess, 1

.set uip_add32.locnointerfaceaccess, 1

.set uip_add32.locnonotificationselect, 1

.set uip_process.locnoside, 1

.set uip_process.locnochandec, 1

.set uip_process.locnoglobalaccess, 1

.set uip_process.locnointerfaceaccess, 1

.set uip_process.locnonotificationselect, 1

.set uip_udp_new.locnoside, 1

.set uip_udp_new.locnochandec, 1

.set uip_udp_new.locnoglobalaccess, 1

.set uip_udp_new.locnointerfaceaccess, 1

.set uip_udp_new.locnonotificationselect, 1

.set uip_init.locnoside, 1

.set uip_init.locnochandec, 1

.set uip_init.locnoglobalaccess, 1

.set uip_init.locnointerfaceaccess, 1

.set uip_init.locnonotificationselect, 1


	.file	1 "/home/vdelacruz/Documents/Ethernet sin mii/module_xtcp/src/xtcp_uip/uip.c"
	.file	2 "/home/vdelacruz/Documents/Ethernet sin mii/module_xtcp/src/xtcp_uip/uip-conf.h"
	.file	3 "/home/vdelacruz/Documents/Ethernet sin mii/module_xtcp/src/xtcp_uip/uip.h"
	.file	4 "/home/vdelacruz/Documents/Ethernet sin mii/module_xtcp/src/xtcp_server.h"
	.file	5 "/home/vdelacruz/Documents/Ethernet sin mii/module_xtcp/src/xtcp_client.h"
	.file	6 "/home/vdelacruz/Documents/Ethernet sin mii/module_xtcp/src/xtcp_uip/clock-arch.h"
	.file	7 "/home/vdelacruz/Documents/Ethernet sin mii/module_xtcp/src/xtcp_uip/xtcp_server_conf.h"
	.file	8 "/home/vdelacruz/Documents/Ethernet sin mii/module_xtcp/src/xtcp_uip/timer.h"
	.file	9 "/home/vdelacruz/Documents/Ethernet sin mii/module_xtcp/src/xtcp_uip/lc-switch.h"
	.file	10 "/home/vdelacruz/Documents/Ethernet sin mii/module_xtcp/src/xtcp_uip/dhcpc/dhcpc.h"
	.text
.Ltext_begin:
	.section	.dp.data,"awd",@progbits
	.text
	.cc_top uip_setipid.function
	.globl	uip_setipid
	.align	2
	.type	uip_setipid,@function
uip_setipid:
.Ltmp0:
	.cfi_startproc
.Lfunc_begin0:
	.loc	1 199 0
	.loc	1 200 0 prologue_end
	ldc r1, 0
	ldaw r2, dp[ipid]
	st16 r0, r2[r1]
	.loc	1 201 0
	retsp 0
.Ltmp1:
.Ltmp2:
	.size	uip_setipid, .Ltmp2-uip_setipid
.Lfunc_end0:
.Ltmp3:
	.cfi_endproc
.Leh_func_end0:

	.cc_bottom uip_setipid.function
	.set	uip_setipid.nstackwords,0
	.globl	uip_setipid.nstackwords
	.set	uip_setipid.maxcores,1
	.globl	uip_setipid.maxcores
	.set	uip_setipid.maxtimers,0
	.globl	uip_setipid.maxtimers
	.set	uip_setipid.maxchanends,0
	.globl	uip_setipid.maxchanends
	.cc_top xtcp_copy_word.function
	.globl	xtcp_copy_word
	.align	2
	.type	xtcp_copy_word,@function
xtcp_copy_word:
.Ltmp4:
	.cfi_startproc
.Lfunc_begin1:
	.loc	1 293 0
	.loc	1 295 0 prologue_end
	ldc r2, 0
	.loc	1 294 0
	ld16s r3, r1[r2]
	st16 r3, r0[r2]
	.loc	1 295 0
	add r1, r1, 2
.Ltmp5:
	ld16s r1, r1[r2]
	add r0, r0, 2
.Ltmp6:
	st16 r1, r0[r2]
	.loc	1 296 0
	retsp 0
.Ltmp7:
.Ltmp8:
	.size	xtcp_copy_word, .Ltmp8-xtcp_copy_word
.Lfunc_end1:
.Ltmp9:
	.cfi_endproc
.Leh_func_end1:

	.cc_bottom xtcp_copy_word.function
	.set	xtcp_copy_word.nstackwords,0
	.globl	xtcp_copy_word.nstackwords
	.set	xtcp_copy_word.maxcores,1
	.globl	xtcp_copy_word.maxcores
	.set	xtcp_copy_word.maxtimers,0
	.globl	xtcp_copy_word.maxtimers
	.set	xtcp_copy_word.maxchanends,0
	.globl	xtcp_copy_word.maxchanends
	.cc_top xtcp_compare_words.function
	.align	2
	.type	xtcp_compare_words,@function
xtcp_compare_words:
.Ltmp10:
	.cfi_startproc
.Lfunc_begin2:
	.loc	1 300 0
	mov r2, r0
.Ltmp11:
	.loc	1 301 0 prologue_end
	ldc r0, 0
	ld16s r3, r1[r0]
	zext r3, 16
	ld16s r11, r2[r0]
	zext r11, 16
	eq r3, r11, r3
	bf r3, .LBB2_3
.Ltmp12:
	add r1, r1, 2
.Ltmp13:
	ldc r3, 0
	ld16s r1, r1[r3]
	zext r1, 16
	add r2, r2, 2
.Ltmp14:
	ld16s r2, r2[r3]
	zext r2, 16
	eq r1, r2, r1
	bf r1, .LBB2_3
	mkmsk r0, 1
.LBB2_3:
	retsp 0
.Ltmp15:
.Ltmp16:
	.size	xtcp_compare_words, .Ltmp16-xtcp_compare_words
.Lfunc_end2:
.Ltmp17:
	.cfi_endproc
.Leh_func_end2:

	.cc_bottom xtcp_compare_words.function
	.set	xtcp_compare_words.nstackwords,0
	.set	xtcp_compare_words.maxcores,1
	.set	xtcp_compare_words.maxtimers,0
	.set	xtcp_compare_words.maxchanends,0
	.cc_top uip_ipaddr_copy.function
	.globl	uip_ipaddr_copy
	.align	2
	.type	uip_ipaddr_copy,@function
uip_ipaddr_copy:
.Ltmp19:
	.cfi_startproc
.Lfunc_begin3:
	.loc	1 331 0
	entsp 1
.Ltmp20:
	.cfi_def_cfa_offset 4
.Ltmp21:
	.cfi_offset 15, 0
	.loc	1 332 0 prologue_end
.Ltmp22:
	bl xtcp_copy_word
.Ltmp23:
	.loc	1 333 0
	retsp 1
.Ltmp24:
.Ltmp25:
	.size	uip_ipaddr_copy, .Ltmp25-uip_ipaddr_copy
.Lfunc_end3:
.Ltmp26:
	.cfi_endproc
.Leh_func_end3:

	.cc_bottom uip_ipaddr_copy.function
	.set	uip_ipaddr_copy.nstackwords,(xtcp_copy_word.nstackwords + 1)
	.globl	uip_ipaddr_copy.nstackwords
	.set	uip_ipaddr_copy.maxcores,xtcp_copy_word.maxcores $M 1
	.globl	uip_ipaddr_copy.maxcores
	.set	uip_ipaddr_copy.maxtimers,xtcp_copy_word.maxtimers $M 0
	.globl	uip_ipaddr_copy.maxtimers
	.set	uip_ipaddr_copy.maxchanends,xtcp_copy_word.maxchanends $M 0
	.globl	uip_ipaddr_copy.maxchanends
	.cc_top uip_ipaddr_cmp.function
	.globl	uip_ipaddr_cmp
	.align	2
	.type	uip_ipaddr_cmp,@function
uip_ipaddr_cmp:
.Ltmp28:
	.cfi_startproc
.Lfunc_begin4:
	.loc	1 336 0
	entsp 1
.Ltmp29:
	.cfi_def_cfa_offset 4
.Ltmp30:
	.cfi_offset 15, 0
	.loc	1 337 0 prologue_end
.Ltmp31:
	bl xtcp_compare_words
.Ltmp32:
	retsp 1
.Ltmp33:
.Ltmp34:
	.size	uip_ipaddr_cmp, .Ltmp34-uip_ipaddr_cmp
.Lfunc_end4:
.Ltmp35:
	.cfi_endproc
.Leh_func_end4:

	.cc_bottom uip_ipaddr_cmp.function
	.set	uip_ipaddr_cmp.nstackwords,(xtcp_compare_words.nstackwords + 1)
	.globl	uip_ipaddr_cmp.nstackwords
	.set	uip_ipaddr_cmp.maxcores,xtcp_compare_words.maxcores $M 1
	.globl	uip_ipaddr_cmp.maxcores
	.set	uip_ipaddr_cmp.maxtimers,xtcp_compare_words.maxtimers $M 0
	.globl	uip_ipaddr_cmp.maxtimers
	.set	uip_ipaddr_cmp.maxchanends,xtcp_compare_words.maxchanends $M 0
	.globl	uip_ipaddr_cmp.maxchanends
	.cc_top uip_unlisten.function
	.globl	uip_unlisten
	.align	2
	.type	uip_unlisten,@function
uip_unlisten:
.Ltmp38:
	.cfi_startproc
.Lfunc_begin5:
	.loc	1 551 0
	entsp 1
.Ltmp39:
	.cfi_def_cfa_offset 4
.Ltmp40:
	.cfi_offset 15, 0
	.loc	1 551 0 prologue_end
.Ltmp41:
	stw r4, sp[0]
.Ltmp42:
	.cfi_offset 4, -4
	ldc r1, 0
	ldc r11, 10
	.loc	1 553 0
.Ltmp43:
	ldaw r3, dp[uip_listenports]
	mov r2, r1
	bu .LBB5_4
.Ltmp44:
.LBB5_2:
	.loc	1 552 0
	ldc r0, 0
	ldaw r11, dp[c]
	st8 r2, r11[r0]
	.loc	1 554 0
	st16 r0, r3[r1]
	bu .LBB5_6
.LBB5_1:
.Ltmp45:
	.loc	1 553 0
	ld16s r4, r3[r1]
	zext r4, 16
	eq r4, r4, r0
	bt r4, .LBB5_2
	.loc	1 552 0
	add r2, r2, 1
	add r1, r1, 1
.LBB5_4:
.Ltmp46:
	mov r4, r1
	zext r4, 8
	lsu r4, r4, r11
	bt r4, .LBB5_1
.Ltmp47:
	ldc r0, 0
	ldaw r1, dp[c]
	st8 r2, r1[r0]
.LBB5_6:
	.loc	1 555 0
	ldw r4, sp[0]
	retsp 1
.Ltmp48:
.Ltmp49:
	.size	uip_unlisten, .Ltmp49-uip_unlisten
.Lfunc_end5:
.Ltmp50:
	.cfi_endproc
.Leh_func_end5:

	.cc_bottom uip_unlisten.function
	.set	uip_unlisten.nstackwords,1
	.globl	uip_unlisten.nstackwords
	.set	uip_unlisten.maxcores,1
	.globl	uip_unlisten.maxcores
	.set	uip_unlisten.maxtimers,0
	.globl	uip_unlisten.maxtimers
	.set	uip_unlisten.maxchanends,0
	.globl	uip_unlisten.maxchanends
	.cc_top uip_udp_unlisten.function
	.globl	uip_udp_unlisten
	.align	2
	.type	uip_udp_unlisten,@function
uip_udp_unlisten:
.Ltmp53:
	.cfi_startproc
.Lfunc_begin6:
	.loc	1 560 0
	entsp 1
.Ltmp54:
	.cfi_def_cfa_offset 4
.Ltmp55:
	.cfi_offset 15, 0
	.loc	1 560 0 prologue_end
.Ltmp56:
	stw r4, sp[0]
.Ltmp57:
	.cfi_offset 4, -4
	ldc r1, 0
	ldc r11, 10
	.loc	1 562 0
.Ltmp58:
	ldaw r3, dp[uip_udp_listenports]
	mov r2, r1
	bu .LBB6_4
.Ltmp59:
.LBB6_2:
	.loc	1 561 0
	ldc r0, 0
	ldaw r11, dp[c]
	st8 r2, r11[r0]
	.loc	1 563 0
	st16 r0, r3[r1]
	bu .LBB6_6
.LBB6_1:
.Ltmp60:
	.loc	1 562 0
	ld16s r4, r3[r1]
	zext r4, 16
	eq r4, r4, r0
	bt r4, .LBB6_2
	.loc	1 561 0
	add r2, r2, 1
	add r1, r1, 1
.LBB6_4:
.Ltmp61:
	mov r4, r1
	zext r4, 8
	lsu r4, r4, r11
	bt r4, .LBB6_1
.Ltmp62:
	ldc r0, 0
	ldaw r1, dp[c]
	st8 r2, r1[r0]
.LBB6_6:
	.loc	1 564 0
	ldw r4, sp[0]
	retsp 1
.Ltmp63:
.Ltmp64:
	.size	uip_udp_unlisten, .Ltmp64-uip_udp_unlisten
.Lfunc_end6:
.Ltmp65:
	.cfi_endproc
.Leh_func_end6:

	.cc_bottom uip_udp_unlisten.function
	.set	uip_udp_unlisten.nstackwords,1
	.globl	uip_udp_unlisten.nstackwords
	.set	uip_udp_unlisten.maxcores,1
	.globl	uip_udp_unlisten.maxcores
	.set	uip_udp_unlisten.maxtimers,0
	.globl	uip_udp_unlisten.maxtimers
	.set	uip_udp_unlisten.maxchanends,0
	.globl	uip_udp_unlisten.maxchanends
	.cc_top uip_listen.function
	.globl	uip_listen
	.align	2
	.type	uip_listen,@function
uip_listen:
.Ltmp68:
	.cfi_startproc
.Lfunc_begin7:
	.loc	1 569 0
	entsp 1
.Ltmp69:
	.cfi_def_cfa_offset 4
.Ltmp70:
	.cfi_offset 15, 0
	.loc	1 569 0 prologue_end
.Ltmp71:
	stw r4, sp[0]
.Ltmp72:
	.cfi_offset 4, -4
	ldc r1, 0
	ldc r11, 10
	.loc	1 571 0
.Ltmp73:
	ldaw r3, dp[uip_listenports]
	mov r2, r1
	bu .LBB7_4
.LBB7_2:
	.loc	1 570 0
	ldc r11, 0
	ldaw r4, dp[c]
	st8 r2, r4[r11]
	.loc	1 572 0
	st16 r0, r3[r1]
	bu .LBB7_6
.LBB7_1:
	.loc	1 571 0
	ld16s r4, r3[r1]
	zext r4, 16
	bf r4, .LBB7_2
	.loc	1 570 0
	add r2, r2, 1
	add r1, r1, 1
.LBB7_4:
.Ltmp74:
	mov r4, r1
	zext r4, 8
	lsu r4, r4, r11
	bt r4, .LBB7_1
.Ltmp75:
	ldc r0, 0
	ldaw r1, dp[c]
	st8 r2, r1[r0]
.LBB7_6:
	.loc	1 573 0
	ldw r4, sp[0]
	retsp 1
.Ltmp76:
.Ltmp77:
	.size	uip_listen, .Ltmp77-uip_listen
.Lfunc_end7:
.Ltmp78:
	.cfi_endproc
.Leh_func_end7:

	.cc_bottom uip_listen.function
	.set	uip_listen.nstackwords,1
	.globl	uip_listen.nstackwords
	.set	uip_listen.maxcores,1
	.globl	uip_listen.maxcores
	.set	uip_listen.maxtimers,0
	.globl	uip_listen.maxtimers
	.set	uip_listen.maxchanends,0
	.globl	uip_listen.maxchanends
	.cc_top uip_udp_listen.function
	.globl	uip_udp_listen
	.align	2
	.type	uip_udp_listen,@function
uip_udp_listen:
.Ltmp81:
	.cfi_startproc
.Lfunc_begin8:
	.loc	1 578 0
	entsp 1
.Ltmp82:
	.cfi_def_cfa_offset 4
.Ltmp83:
	.cfi_offset 15, 0
	.loc	1 578 0 prologue_end
.Ltmp84:
	stw r4, sp[0]
.Ltmp85:
	.cfi_offset 4, -4
	ldc r1, 0
	ldc r11, 10
	.loc	1 580 0
.Ltmp86:
	ldaw r3, dp[uip_udp_listenports]
	mov r2, r1
	bu .LBB8_4
.LBB8_2:
	.loc	1 579 0
	ldc r11, 0
	ldaw r4, dp[c]
	st8 r2, r4[r11]
	.loc	1 581 0
	st16 r0, r3[r1]
	bu .LBB8_6
.LBB8_1:
	.loc	1 580 0
	ld16s r4, r3[r1]
	zext r4, 16
	bf r4, .LBB8_2
	.loc	1 579 0
	add r2, r2, 1
	add r1, r1, 1
.LBB8_4:
.Ltmp87:
	mov r4, r1
	zext r4, 8
	lsu r4, r4, r11
	bt r4, .LBB8_1
.Ltmp88:
	ldc r0, 0
	ldaw r1, dp[c]
	st8 r2, r1[r0]
.LBB8_6:
	.loc	1 582 0
	ldw r4, sp[0]
	retsp 1
.Ltmp89:
.Ltmp90:
	.size	uip_udp_listen, .Ltmp90-uip_udp_listen
.Lfunc_end8:
.Ltmp91:
	.cfi_endproc
.Leh_func_end8:

	.cc_bottom uip_udp_listen.function
	.set	uip_udp_listen.nstackwords,1
	.globl	uip_udp_listen.nstackwords
	.set	uip_udp_listen.maxcores,1
	.globl	uip_udp_listen.maxcores
	.set	uip_udp_listen.maxtimers,0
	.globl	uip_udp_listen.maxtimers
	.set	uip_udp_listen.maxchanends,0
	.globl	uip_udp_listen.maxchanends
	.cc_top htons.function
	.globl	htons
	.align	2
	.type	htons,@function
htons:
.Ltmp92:
	.cfi_startproc
.Lfunc_begin9:
	.loc	1 2012 0
	.loc	1 2013 0 prologue_end
	byterev r0, r0
.Ltmp93:
	shr r0, r0, 16
	retsp 0
.Ltmp94:
.Ltmp95:
	.size	htons, .Ltmp95-htons
.Lfunc_end9:
.Ltmp96:
	.cfi_endproc
.Leh_func_end9:

	.cc_bottom htons.function
	.set	htons.nstackwords,0
	.globl	htons.nstackwords
	.set	htons.maxcores,1
	.globl	htons.maxcores
	.set	htons.maxtimers,0
	.globl	htons.maxtimers
	.set	htons.maxchanends,0
	.globl	htons.maxchanends
	.cc_top uip_connect.function
	.globl	uip_connect
	.align	2
	.type	uip_connect,@function
uip_connect:
.Ltmp105:
	.cfi_startproc
.Lfunc_begin10:
	.loc	1 440 0
	entsp 10
.Ltmp106:
	.cfi_def_cfa_offset 40
.Ltmp107:
	.cfi_offset 15, 0
	.loc	1 439 0 prologue_end
.Ltmp108:
	stw r4, sp[9]
.Ltmp109:
	.cfi_offset 4, -4
	stw r5, sp[8]
.Ltmp110:
	.cfi_offset 5, -8
	stw r6, sp[7]
.Ltmp111:
	.cfi_offset 6, -12
	stw r7, sp[6]
.Ltmp112:
	.cfi_offset 7, -16
	stw r8, sp[5]
.Ltmp113:
	.cfi_offset 8, -20
	stw r9, sp[4]
.Ltmp114:
	.cfi_offset 9, -24
	stw r10, sp[3]
.Ltmp115:
	.cfi_offset 10, -28
	stw r1, sp[1]
.Ltmp116:
	stw r0, sp[2]
.Ltmp117:
	.loc	1 445 0
	ldc r2, 0
	ldaw r0, dp[lastport]
	ld16s r8, r0[r2]
	ldc r11, 10
	ldc r5, 112
	.loc	1 454 0
	ldaw r6, dp[uip_conns]
	ldc r3, 25
	.loc	1 452 0
	ldaw r7, dp[c]
	bu .LBB10_2
.LBB10_1:
	st8 r4, r7[r2]
.LBB10_2:
	.loc	1 445 0
	add r8, r8, 1
	mov r0, r8
	zext r0, 16
	ldc r1, 31999
	.loc	1 447 0
	lsu r0, r1, r0
	bf r0, .LBB10_4
	ldc r8, 4096
.LBB10_4:
	.loc	1 2013 0
.Ltmp118:
	shl r0, r8, 8
	ldc r1, 65280
.Ltmp119:
	.loc	1 447 0
	and r1, r8, r1
	.loc	1 2013 0
.Ltmp120:
	shr r1, r1, 8
	or r10, r0, r1
	mov r1, r2
	mov r4, r2
	bu .LBB10_8
.Ltmp121:
.LBB10_5:
	.loc	1 454 0
	mul r0, r1, r5
	add r9, r6, r0
	ld8u r0, r9[r3]
	bf r0, .LBB10_7
	add r0, r9, 4
	ld16s r9, r0[r2]
	zext r9, 16
	mov r0, r10
	zext r0, 16
	eq r0, r9, r0
	bt r0, .LBB10_1
.LBB10_7:
	.loc	1 452 0
	add r4, r4, 1
	add r1, r1, 1
.LBB10_8:
	mov r0, r1
	zext r0, 8
	lsu r0, r0, r11
	bt r0, .LBB10_5
	ldc r9, 0
	.loc	1 445 0
	ldaw r0, dp[lastport]
	st16 r8, r0[r9]
	.loc	1 452 0
	st8 r4, r7[r9]
	ldc r8, 26
	mov r10, r9
	mov r4, r9
	bu .LBB10_17
.LBB10_11:
	mov r4, r0
	bu .LBB10_18
.LBB10_10:
	.loc	1 462 0
	mul r1, r0, r5
	add r0, r6, r1
.Ltmp122:
	.loc	1 463 0
	ld8u r2, r0[r3]
	bf r2, .LBB10_11
.Ltmp123:
	eq r2, r2, 7
	bf r2, .LBB10_16
	.loc	1 468 0
	bf r4, .LBB10_15
	ld8u r2, r4[r8]
	add r1, r6, r1
	ld8u r1, r1[r8]
	lsu r1, r2, r1
	bf r1, .LBB10_16
.LBB10_15:
	mov r4, r0
.LBB10_16:
	.loc	1 461 0
	add r10, r10, 1
.LBB10_17:
	st8 r10, r7[r9]
	mov r0, r10
	zext r0, 8
	lsu r1, r0, r11
	bt r1, .LBB10_10
.LBB10_18:
	.loc	1 475 0
	bt r4, .LBB10_20
	ldc r4, 0
	bu .LBB10_21
.LBB10_20:
.Ltmp124:
	ldc r1, 2
	.loc	1 480 0
	st8 r1, r4[r3]
	.loc	1 496 0
	ldc r3, 0
	.loc	1 482 0
	ldaw r2, dp[iss]
	ld8u r0, r2[r3]
	ldc r11, 12
	st8 r0, r4[r11]
	mkmsk r0, 1
	.loc	1 483 0
	ld8u r11, r2[r0]
	ldc r5, 13
	st8 r11, r4[r5]
	.loc	1 484 0
	ld8u r1, r2[r1]
	ldc r11, 14
	st8 r1, r4[r11]
	mkmsk r1, 2
	.loc	1 485 0
	ld8u r2, r2[r1]
	mkmsk r11, 4
	st8 r2, r4[r11]
	ldc r2, 18
	.loc	1 487 0
	add r11, r4, r2
	ldc r2, 1472
	st16 r2, r11[r3]
	ldaw r11, r4[5]
	st16 r2, r11[r3]
	.loc	1 489 0
	ldaw r2, r4[4]
	st16 r0, r2[r3]
	ldc r2, 27
	.loc	1 490 0
	st8 r3, r4[r2]
	.loc	1 491 0
	st8 r0, r4[r8]
	ldc r0, 24
	.loc	1 492 0
	st8 r1, r4[r0]
	ldc r0, 22
	.loc	1 493 0
	st8 r3, r4[r0]
	ldc r0, 23
	ldc r1, 16
	.loc	1 494 0
	st8 r1, r4[r0]
	.loc	1 445 0
	ldaw r0, dp[lastport]
	.loc	1 495 0
	ld16s r0, r0[r3]
	zext r0, 16
	.loc	1 2013 0
.Ltmp125:
	shr r1, r0, 8
	shl r0, r0, 8
	or r0, r0, r1
.Ltmp126:
	.loc	1 495 0
	add r1, r4, 4
	st16 r0, r1[r3]
	.loc	1 496 0
	add r0, r4, 6
	ldw r1, sp[1]
	st16 r1, r0[r3]
.Ltmp127:
	.loc	1 332 0
	mov r0, r4
	ldw r1, sp[2]
	bl xtcp_copy_word
.Ltmp128:
.LBB10_21:
	.loc	1 477 0
	mov r0, r4
	ldw r10, sp[3]
	ldw r9, sp[4]
	ldw r8, sp[5]
	ldw r7, sp[6]
	ldw r6, sp[7]
	ldw r5, sp[8]
	ldw r4, sp[9]
	retsp 10
.Ltmp129:
.Ltmp130:
	.size	uip_connect, .Ltmp130-uip_connect
.Lfunc_end10:
.Ltmp131:
	.cfi_endproc
.Leh_func_end10:

	.cc_bottom uip_connect.function
	.set	uip_connect.nstackwords,(xtcp_copy_word.nstackwords + 10)
	.globl	uip_connect.nstackwords
	.set	uip_connect.maxcores,xtcp_copy_word.maxcores $M 1
	.globl	uip_connect.maxcores
	.set	uip_connect.maxtimers,xtcp_copy_word.maxtimers $M 0
	.globl	uip_connect.maxtimers
	.set	uip_connect.maxchanends,xtcp_copy_word.maxchanends $M 0
	.globl	uip_connect.maxchanends
	.cc_top uip_send.function
	.globl	uip_send
	.align	2
	.type	uip_send,@function
uip_send:
.Ltmp133:
	.cfi_startproc
.Lfunc_begin11:
	.loc	1 2016 0
	entsp 1
.Ltmp134:
	.cfi_def_cfa_offset 4
.Ltmp135:
	.cfi_offset 15, 0
	mov r2, r1
.Ltmp136:
	mov r1, r0
.Ltmp137:
	mkmsk r0, 1
	.loc	1 2017 0 prologue_end
.Ltmp138:
	lss r0, r2, r0
	bt r0, .LBB11_3
	.loc	1 2018 0
	ldc r0, 0
	ldaw r3, dp[uip_slen]
	st16 r2, r3[r0]
	.loc	1 2019 0
	ldw r0, dp[uip_sappdata]
	eq r3, r0, r1
	bt r3, .LBB11_3
.Ltmp139:
	.loc	1 2020 0
	zext r2, 16
.Ltmp140:
	bl memcpy
.Ltmp141:
.LBB11_3:
	.loc	1 2023 0
	retsp 1
.Ltmp142:
.Ltmp143:
	.size	uip_send, .Ltmp143-uip_send
.Lfunc_end11:
.Ltmp144:
	.cfi_endproc
.Leh_func_end11:

	.cc_bottom uip_send.function
	.set	uip_send.nstackwords,(memcpy.nstackwords + 1)
	.globl	uip_send.nstackwords
	.set	uip_send.maxcores,1
	.globl	uip_send.maxcores
	.set	uip_send.maxtimers,0
	.globl	uip_send.maxtimers
	.set	uip_send.maxchanends,0
	.globl	uip_send.maxchanends
	.cc_top xtcp_increment_word.function
	.align	2
	.type	xtcp_increment_word,@function
xtcp_increment_word:
.Ltmp145:
	.cfi_startproc
.Lfunc_begin12:
	.loc	1 284 0
	.loc	1 288 0 prologue_end
	ldc r1, 0
	.loc	1 285 0
	ld16s r2, r0[r1]
	add r3, r0, 2
	ld16s r3, r3[r1]
	shl r3, r3, 16
	add r2, r3, r2
.Ltmp146:
	.loc	1 286 0
	byterev r2, r2
.Ltmp147:
	add r2, r2, 1
	byterev r2, r2
.Ltmp148:
	.loc	1 287 0
	st16 r2, r0[r1]
	.loc	1 288 0
	shr r0, r2, 16
.Ltmp149:
	ldw r2, dp[uip_buf]
.Ltmp150:
	ldaw r2, r2[11]
	st16 r0, r2[r1]
	.loc	1 289 0
	retsp 0
.Ltmp151:
.Ltmp152:
	.size	xtcp_increment_word, .Ltmp152-xtcp_increment_word
.Lfunc_end12:
.Ltmp153:
	.cfi_endproc
.Leh_func_end12:

	.cc_bottom xtcp_increment_word.function
	.set	xtcp_increment_word.nstackwords,0
	.set	xtcp_increment_word.maxcores,1
	.set	xtcp_increment_word.maxtimers,0
	.set	xtcp_increment_word.maxchanends,0
	.cc_top chksum.function
	.align	2
	.type	chksum,@function
chksum:
.Ltmp157:
	.cfi_startproc
.Lfunc_begin13:
	.loc	1 348 0
	entsp 2
.Ltmp158:
	.cfi_def_cfa_offset 8
.Ltmp159:
	.cfi_offset 15, 0
	.loc	1 348 0 prologue_end
.Ltmp160:
	stw r4, sp[1]
.Ltmp161:
	.cfi_offset 4, -4
	stw r5, sp[0]
.Ltmp162:
	.cfi_offset 5, -8
.Ltmp163:
	.loc	1 352 0
	shr r3, r2, 1
.Ltmp164:
	bt r3, .LBB13_2
.Ltmp165:
	ldc r3, 0
	bu .LBB13_7
.LBB13_2:
.Ltmp166:
	ldc r11, 0
.Ltmp167:
.LBB13_3:
	add r5, r11, 1
.Ltmp168:
	lss r4, r5, r3
	.loc	1 353 0
	ld16s r11, r1[r11]
	byterev r11, r11
	shr r11, r11, 16
	add r0, r11, r0
.Ltmp169:
	mov r11, r5
.Ltmp170:
	.loc	1 352 0
	bt r4, .LBB13_3
.Ltmp171:
	mkmsk r11, 2
	lsu r11, r11, r2
	bf r11, .LBB13_6
	shl r3, r3, 1
	bu .LBB13_7
.LBB13_6:
	ldc r3, 2
.Ltmp172:
.LBB13_7:
	.loc	1 355 0
	zext r2, 1
.Ltmp173:
	bf r2, .LBB13_9
.Ltmp174:
	.loc	1 356 0
	ld8u r1, r1[r3]
.Ltmp175:
	shl r1, r1, 8
	add r0, r1, r0
.Ltmp176:
.LBB13_9:
	.loc	1 344 0
	shr r2, r0, 16
	.loc	1 345 0
	add r1, r2, r0
	.loc	1 344 0
	zext r0, 16
	add r0, r0, r2
.Ltmp177:
	.loc	1 345 0
	shr r0, r0, 16
.Ltmp178:
	add r0, r1, r0
.Ltmp179:
	.loc	1 359 0
	zext r0, 16
	ldw r5, sp[0]
	ldw r4, sp[1]
	retsp 2
.Ltmp180:
.Ltmp181:
	.size	chksum, .Ltmp181-chksum
.Lfunc_end13:
.Ltmp182:
	.cfi_endproc
.Leh_func_end13:

	.cc_bottom chksum.function
	.set	chksum.nstackwords,2
	.set	chksum.maxcores,1
	.set	chksum.maxtimers,0
	.set	chksum.maxchanends,0
	.cc_top upper_layer_chksum.function
	.align	2
	.type	upper_layer_chksum,@function
upper_layer_chksum:
.Ltmp186:
	.cfi_startproc
.Lfunc_begin14:
	.loc	1 378 0
	entsp 3
.Ltmp187:
	.cfi_def_cfa_offset 12
.Ltmp188:
	.cfi_offset 15, 0
	.loc	1 378 0 prologue_end
.Ltmp189:
	stw r4, sp[2]
.Ltmp190:
	.cfi_offset 4, -4
	stw r5, sp[1]
.Ltmp191:
	.cfi_offset 5, -8
	ldc r1, 17
	.loc	1 385 0
.Ltmp192:
	ldw r5, dp[uip_buf]
	ld8u r1, r5[r1]
	ldc r2, 16
	ld8u r2, r5[r2]
	shl r2, r2, 8
	or r1, r2, r1
	ldaw r4, r1[-5]
	.loc	1 391 0
	add r0, r4, r0
.Ltmp193:
	.loc	1 393 0
	zext r0, 16
	ldc r1, 26
	add r1, r5, r1
	ldc r2, 8
	bl chksum
	.loc	1 396 0
	zext r4, 16
	ldc r1, 34
	add r1, r5, r1
	mov r2, r4
	bl chksum
	.loc	1 398 0
	bt r0, .LBB14_2
	mkmsk r0, 16
	bu .LBB14_3
.LBB14_2:
	.loc	1 2013 0
.Ltmp194:
	byterev r0, r0
	shr r0, r0, 16
.Ltmp195:
.LBB14_3:
	.loc	1 398 0
	ldw r5, sp[1]
	ldw r4, sp[2]
	retsp 3
.Ltmp196:
.Ltmp197:
	.size	upper_layer_chksum, .Ltmp197-upper_layer_chksum
.Lfunc_end14:
.Ltmp198:
	.cfi_endproc
.Leh_func_end14:

	.cc_bottom upper_layer_chksum.function
	.set	upper_layer_chksum.nstackwords,(chksum.nstackwords + 3)
	.set	upper_layer_chksum.maxcores,chksum.maxcores $M 1
	.set	upper_layer_chksum.maxtimers,chksum.maxtimers $M 0
	.set	upper_layer_chksum.maxchanends,chksum.maxchanends $M 0
	.cc_top uip_udpchksum.function
	.globl	uip_udpchksum
	.align	2
	.type	uip_udpchksum,@function
uip_udpchksum:
.Ltmp200:
	.cfi_startproc
.Lfunc_begin15:
	.loc	1 417 0
	entsp 1
.Ltmp201:
	.cfi_def_cfa_offset 4
.Ltmp202:
	.cfi_offset 15, 0
	ldc r0, 17
	.loc	1 418 0 prologue_end
.Ltmp203:
	bl upper_layer_chksum
	retsp 1
.Ltmp204:
.Ltmp205:
	.size	uip_udpchksum, .Ltmp205-uip_udpchksum
.Lfunc_end15:
.Ltmp206:
	.cfi_endproc
.Leh_func_end15:

	.cc_bottom uip_udpchksum.function
	.set	uip_udpchksum.nstackwords,(upper_layer_chksum.nstackwords + 1)
	.globl	uip_udpchksum.nstackwords
	.set	uip_udpchksum.maxcores,upper_layer_chksum.maxcores $M 1
	.globl	uip_udpchksum.maxcores
	.set	uip_udpchksum.maxtimers,upper_layer_chksum.maxtimers $M 0
	.globl	uip_udpchksum.maxtimers
	.set	uip_udpchksum.maxchanends,upper_layer_chksum.maxchanends $M 0
	.globl	uip_udpchksum.maxchanends
	.cc_top uip_tcpchksum.function
	.globl	uip_tcpchksum
	.align	2
	.type	uip_tcpchksum,@function
uip_tcpchksum:
.Ltmp208:
	.cfi_startproc
.Lfunc_begin16:
	.loc	1 410 0
	entsp 1
.Ltmp209:
	.cfi_def_cfa_offset 4
.Ltmp210:
	.cfi_offset 15, 0
	ldc r0, 6
	.loc	1 411 0 prologue_end
.Ltmp211:
	bl upper_layer_chksum
	retsp 1
.Ltmp212:
.Ltmp213:
	.size	uip_tcpchksum, .Ltmp213-uip_tcpchksum
.Lfunc_end16:
.Ltmp214:
	.cfi_endproc
.Leh_func_end16:

	.cc_bottom uip_tcpchksum.function
	.set	uip_tcpchksum.nstackwords,(upper_layer_chksum.nstackwords + 1)
	.globl	uip_tcpchksum.nstackwords
	.set	uip_tcpchksum.maxcores,upper_layer_chksum.maxcores $M 1
	.globl	uip_tcpchksum.maxcores
	.set	uip_tcpchksum.maxtimers,upper_layer_chksum.maxtimers $M 0
	.globl	uip_tcpchksum.maxtimers
	.set	uip_tcpchksum.maxchanends,upper_layer_chksum.maxchanends $M 0
	.globl	uip_tcpchksum.maxchanends
	.cc_top uip_ipchksum.function
	.globl	uip_ipchksum
	.align	2
	.type	uip_ipchksum,@function
uip_ipchksum:
.Ltmp216:
	.cfi_startproc
.Lfunc_begin17:
	.loc	1 369 0
	entsp 1
.Ltmp217:
	.cfi_def_cfa_offset 4
.Ltmp218:
	.cfi_offset 15, 0
	ldc r0, 14
	.loc	1 372 0 prologue_end
.Ltmp219:
	ldw r1, dp[uip_buf]
	add r1, r1, r0
	ldc r0, 0
	ldc r2, 20
	bl chksum
	.loc	1 374 0
	bt r0, .LBB17_2
	mkmsk r0, 16
	retsp 1
.LBB17_2:
	.loc	1 2013 0
.Ltmp220:
	byterev r0, r0
	shr r0, r0, 16
.Ltmp221:
	.loc	1 374 0
	retsp 1
.Ltmp222:
.Ltmp223:
	.size	uip_ipchksum, .Ltmp223-uip_ipchksum
.Lfunc_end17:
.Ltmp224:
	.cfi_endproc
.Leh_func_end17:

	.cc_bottom uip_ipchksum.function
	.set	uip_ipchksum.nstackwords,(chksum.nstackwords + 1)
	.globl	uip_ipchksum.nstackwords
	.set	uip_ipchksum.maxcores,chksum.maxcores $M 1
	.globl	uip_ipchksum.maxcores
	.set	uip_ipchksum.maxtimers,chksum.maxtimers $M 0
	.globl	uip_ipchksum.maxtimers
	.set	uip_ipchksum.maxchanends,chksum.maxchanends $M 0
	.globl	uip_ipchksum.maxchanends
	.cc_top uip_chksum.function
	.globl	uip_chksum
	.align	2
	.type	uip_chksum,@function
uip_chksum:
.Ltmp226:
	.cfi_startproc
.Lfunc_begin18:
	.loc	1 364 0
	entsp 1
.Ltmp227:
	.cfi_def_cfa_offset 4
.Ltmp228:
	.cfi_offset 15, 0
	mov r2, r1
.Ltmp229:
	mov r1, r0
.Ltmp230:
	ldc r0, 0
	.loc	1 365 0 prologue_end
.Ltmp231:
	bl chksum
.Ltmp232:
	.loc	1 2013 0
	byterev r0, r0
	shr r0, r0, 16
.Ltmp233:
	.loc	1 365 0
	retsp 1
.Ltmp234:
.Ltmp235:
	.size	uip_chksum, .Ltmp235-uip_chksum
.Lfunc_end18:
.Ltmp236:
	.cfi_endproc
.Leh_func_end18:

	.cc_bottom uip_chksum.function
	.set	uip_chksum.nstackwords,(chksum.nstackwords + 1)
	.globl	uip_chksum.nstackwords
	.set	uip_chksum.maxcores,chksum.maxcores $M 1
	.globl	uip_chksum.maxcores
	.set	uip_chksum.maxtimers,chksum.maxtimers $M 0
	.globl	uip_chksum.maxtimers
	.set	uip_chksum.maxchanends,chksum.maxchanends $M 0
	.globl	uip_chksum.maxchanends
	.cc_top uip_add32.function
	.globl	uip_add32
	.align	2
	.type	uip_add32,@function
uip_add32:
.Ltmp237:
	.cfi_startproc
.Lfunc_begin19:
	.loc	1 321 0
	.loc	1 323 0 prologue_end
	ldc r3, 0
	ld16s r2, r0[r3]
	zext r2, 16
	add r0, r0, 2
.Ltmp238:
	ld16s r0, r0[r3]
	shl r0, r0, 16
	or r0, r0, r2
.Ltmp239:
	.loc	1 324 0
	byterev r0, r0
.Ltmp240:
	.loc	1 325 0
	add r0, r0, r1
	byterev r0, r0
	stw r0, dp[uip_acc32]
	.loc	1 326 0
	retsp 0
.Ltmp241:
.Ltmp242:
	.size	uip_add32, .Ltmp242-uip_add32
.Lfunc_end19:
.Ltmp243:
	.cfi_endproc
.Leh_func_end19:

	.cc_bottom uip_add32.function
	.set	uip_add32.nstackwords,0
	.globl	uip_add32.nstackwords
	.set	uip_add32.maxcores,1
	.globl	uip_add32.maxcores
	.set	uip_add32.maxtimers,0
	.globl	uip_add32.maxtimers
	.set	uip_add32.maxchanends,0
	.globl	uip_add32.maxchanends
	.cc_top uip_add_rcv_nxt.function
	.align	2
	.type	uip_add_rcv_nxt,@function
uip_add_rcv_nxt:
.Ltmp245:
	.cfi_startproc
.Lfunc_begin20:
	.loc	1 725 0
	entsp 1
.Ltmp246:
	.cfi_def_cfa_offset 4
.Ltmp247:
	.cfi_offset 15, 0
	mov r1, r0
.Ltmp248:
	.loc	1 726 0 prologue_end
	ldw r0, dp[uip_conn]
	add r0, r0, 8
	bl uip_add32
.Ltmp249:
	.loc	1 727 0
	ldw r0, dp[uip_conn]
	add r0, r0, 8
	ldaw r1, dp[uip_acc32]
	bl xtcp_copy_word
	.loc	1 728 0
	retsp 1
.Ltmp250:
.Ltmp251:
	.size	uip_add_rcv_nxt, .Ltmp251-uip_add_rcv_nxt
.Lfunc_end20:
.Ltmp252:
	.cfi_endproc
.Leh_func_end20:

	.cc_bottom uip_add_rcv_nxt.function
	.set	uip_add_rcv_nxt.nstackwords,((uip_add32.nstackwords $M xtcp_copy_word.nstackwords) + 1)
	.set	uip_add_rcv_nxt.maxcores,uip_add32.maxcores $M xtcp_copy_word.maxcores $M 1
	.set	uip_add_rcv_nxt.maxtimers,uip_add32.maxtimers $M xtcp_copy_word.maxtimers $M 0
	.set	uip_add_rcv_nxt.maxchanends,uip_add32.maxchanends $M xtcp_copy_word.maxchanends $M 0
	.cc_top uip_process.function
	.section	.cp.rodata.cst4,"aMc",@progbits,4
	.cc_top .LCPI21_0.data
	.align	4
.LCPI21_0:
	.long	4294967232
	.cc_bottom .LCPI21_0.data
	.text
	.globl	uip_process
	.align	2
	.type	uip_process,@function
uip_process:
.Ltmp261:
	.cfi_startproc
.Lfunc_begin21:
	.loc	1 733 0
	entsp 10
.Ltmp262:
	.cfi_def_cfa_offset 40
.Ltmp263:
	.cfi_offset 15, 0
	.loc	1 733 0 prologue_end
.Ltmp264:
	stw r4, sp[9]
.Ltmp265:
	.cfi_offset 4, -4
	stw r5, sp[8]
.Ltmp266:
	.cfi_offset 5, -8
	stw r6, sp[7]
.Ltmp267:
	.cfi_offset 6, -12
	stw r7, sp[6]
.Ltmp268:
	.cfi_offset 7, -16
	stw r8, sp[5]
.Ltmp269:
	.cfi_offset 8, -20
	stw r9, sp[4]
.Ltmp270:
	.cfi_offset 9, -24
	stw r10, sp[3]
.Ltmp271:
	.cfi_offset 10, -28
	.loc	1 744 0
.Ltmp272:
	eq r1, r0, 4
	bt r1, .LBB21_74
	.loc	1 734 0
	ldw r4, dp[uip_conn]
.Ltmp273:
	.loc	1 753 0
	sub r1, r0, 2
	zext r1, 8
	ldc r2, 5
	lsu r2, r2, r1
	ldc r3, 54
	.loc	1 749 0
	ldw r10, dp[uip_buf]
	add r3, r10, r3
	stw r3, dp[uip_appdata]
	stw r3, dp[uip_sappdata]
	.loc	1 753 0
	bt r2, .LBB21_32
.Ltmp274:
	
	.xtabranch .Ljumptable0+2,.Ljumptable0+4,.Ljumptable0+6,.Ljumptable0+8,.Ljumptable0+10,.Ljumptable0+12
.Ljumptable0:
		bru r1
	.jmptable .LBB21_6,.LBB21_3,.LBB21_32,.LBB21_25,.LBB21_29,.LBB21_25
.Ltmp275:
.LBB21_3:
	ldc r0, 25
	.loc	1 754 0
	ld8u r0, r4[r0]
	zext r0, 4
	eq r0, r0, 3
	bf r0, .LBB21_225
	ldaw r1, r4[4]
	ldc r0, 0
	ld16s r1, r1[r0]
	zext r1, 16
	bt r1, .LBB21_225
	ldc r1, 8
	.loc	1 761 0
	stw r1, dp[uip_flags]
	.loc	1 762 0
	ldaw r1, dp[uip_len]
	st16 r0, r1[r0]
	.loc	1 763 0
	ldaw r1, dp[uip_slen]
	st16 r0, r1[r0]
	bu .LBB21_176
.LBB21_6:
	.loc	1 777 0
	ldaw r0, dp[iss]
	bl xtcp_increment_word
	.loc	1 780 0
	ldaw r1, dp[uip_len]
	.loc	1 781 0
	ldc r0, 0
	.loc	1 780 0
	st16 r0, r1[r0]
	.loc	1 781 0
	ldaw r1, dp[uip_slen]
	st16 r0, r1[r0]
	ldc r2, 25
	.loc	1 787 0
	ld8u r1, r4[r2]
	bf r1, .LBB21_225
	add r2, r4, r2
	eq r3, r1, 5
	bt r3, .LBB21_9
	eq r3, r1, 7
	bf r3, .LBB21_11
.LBB21_9:
	ldc r3, 26
	.loc	1 789 0
	ld8u r1, r4[r3]
	add r1, r1, 1
	st8 r1, r4[r3]
	zext r1, 8
	ldc r3, 120
	.loc	1 790 0
	eq r1, r1, r3
	bf r1, .LBB21_225
	.loc	1 791 0
	st8 r0, r2[r0]
	bu .LBB21_225
.LBB21_11:
	.loc	1 797 0
	ldaw r3, r4[4]
	ld16s r3, r3[r0]
	zext r3, 16
	bf r3, .LBB21_23
	ldc r6, 26
	.loc	1 798 0
	add r3, r4, r6
	ld16s r5, r3[r0]
	mov r11, r5
	zext r11, 16
	sub r7, r11, 1
	st8 r7, r4[r6]
	zext r5, 8
	bt r5, .LBB21_225
	shr r11, r11, 8
	.loc	1 799 0
	eq r5, r11, 8
	bt r5, .LBB21_16
	sub r5, r1, 1
	zext r5, 8
	mkmsk r6, 1
	lsu r5, r6, r5
	bt r5, .LBB21_17
	eq r5, r11, 5
	bf r5, .LBB21_17
.LBB21_16:
	.loc	1 803 0
	st8 r0, r2[r0]
	ldc r0, 128
	.loc	1 808 0
	stw r0, dp[uip_flags]
	.loc	1 809 0
	bl xtcpd_appcall
	bu .LBB21_178
.LBB21_17:
	ldc r2, 27
	.loc	1 799 0
	add r5, r4, r2
	ldc r2, 4
	.loc	1 817 0
	lsu r6, r2, r11
	bf r6, .LBB21_19
	ldc r6, 48
	bu .LBB21_20
.LBB21_19:
	mkmsk r6, 2
	shl r6, r6, r11
.LBB21_20:
	st8 r6, r3[r0]
	.loc	1 819 0
	add r3, r11, 1
	st8 r3, r5[r0]
	.loc	1 828 0
	zext r1, 4
	sub r1, r1, 1
	mkmsk r3, 3
	lsu r3, r3, r1
	bt r3, .LBB21_225
	
	.xtabranch .Ljumptable1+2,.Ljumptable1+4,.Ljumptable1+6,.Ljumptable1+8,.Ljumptable1+10,.Ljumptable1+12,.Ljumptable1+14,.Ljumptable1+16
.Ljumptable1:
		bru r1
	.jmptable .LBB21_116,.LBB21_22,.LBB21_193,.LBB21_164,.LBB21_225,.LBB21_164,.LBB21_225,.LBB21_164
.LBB21_22:
	.loc	1 837 0
	ldw r1, dp[uip_buf]
	ldc r2, 47
	st8 r0, r1[r2]
	bu .LBB21_117
.LBB21_23:
	.loc	1 858 0
	zext r1, 4
	eq r0, r1, 3
	bf r0, .LBB21_225
	ldc r0, 8
	.loc	1 862 0
	stw r0, dp[uip_flags]
	bu .LBB21_176
.LBB21_25:
.Ltmp276:
	.loc	1 871 0
	ldw r1, dp[uip_udp_conn]
	add r3, r1, 4
	ldc r2, 0
	ld16s r3, r3[r2]
	zext r3, 16
	bf r3, .LBB21_225
.Ltmp277:
	ldc r3, 42
	.loc	1 873 0
	add r3, r10, r3
	.loc	1 872 0
	stw r2, dp[uip_conn]
	.loc	1 873 0
	stw r3, dp[uip_appdata]
	stw r3, dp[uip_sappdata]
	.loc	1 874 0
	ldaw r3, dp[uip_slen]
	st16 r2, r3[r2]
	ldaw r3, dp[uip_len]
	st16 r2, r3[r2]
	.loc	1 875 0
	eq r0, r0, 7
.Ltmp278:
	bf r0, .LBB21_28
	mkmsk r0, 1
	.loc	1 876 0
	stw r0, dp[uip_flags]
	ldc r0, 9
	.loc	1 877 0
	ld8u r2, r1[r0]
	ldc r3, 2
	xor r2, r2, r3
	st8 r2, r1[r0]
	bu .LBB21_73
.LBB21_28:
	ldc r0, 8
	.loc	1 880 0
	stw r0, dp[uip_flags]
	bu .LBB21_73
.LBB21_29:
	.loc	1 888 0
	ldw r0, dp[uip_udp_conn]
	add r2, r0, 4
	ldc r1, 0
	ld16s r2, r2[r1]
	zext r2, 16
	bf r2, .LBB21_225
	ldc r2, 9
	ld8u r3, r0[r2]
	zext r3, 1
	bf r3, .LBB21_225
	ldc r3, 42
	.loc	1 891 0
	add r3, r10, r3
	.loc	1 890 0
	stw r1, dp[uip_conn]
	.loc	1 891 0
	stw r3, dp[uip_appdata]
	stw r3, dp[uip_sappdata]
	.loc	1 892 0
	ldaw r3, dp[uip_slen]
	st16 r1, r3[r1]
	ldaw r3, dp[uip_len]
	st16 r1, r3[r1]
	ldc r1, 4
	.loc	1 893 0
	stw r1, dp[uip_flags]
	.loc	1 894 0
	ld8u r1, r0[r2]
	mkmsk r3, 1
	xor r1, r1, r3
	st8 r1, r0[r2]
	bu .LBB21_73
.LBB21_32:
	ldc r0, 14
	.loc	1 919 0
	ld8u r0, r10[r0]
	ldc r1, 69
	eq r0, r0, r1
	bf r0, .LBB21_225
	ldc r5, 17
	.loc	1 935 0
	ld8u r0, r10[r5]
	ldc r1, 16
	ld8u r1, r10[r1]
	shl r1, r1, 8
	or r6, r1, r0
	ldc r9, 0
	ldaw r7, dp[uip_len]
	ld16s r0, r7[r9]
	zext r0, 16
	lsu r0, r0, r6
	bt r0, .LBB21_225
	.loc	1 936 0
	st16 r6, r7[r9]
	ldc r0, 20
	.loc	1 956 0
	ld8u r0, r10[r0]
	zext r0, 6
	bt r0, .LBB21_225
	ldc r0, 21
	ld8u r0, r10[r0]
	bt r0, .LBB21_225
	.loc	1 337 0
.Ltmp279:
	ldaw r0, dp[uip_hostaddr]
.Ltmp280:
	ldaw r1, dp[all_zeroes_addr]
.Ltmp281:
	bl xtcp_compare_words
.Ltmp282:
	.loc	1 969 0
	bt r0, .LBB21_41
	ldc r0, 30
	.loc	1 988 0
	add r4, r10, r0
.Ltmp283:
	ldc r0, 23
	ld8u r0, r10[r0]
	eq r0, r0, r5
	bf r0, .LBB21_40
.Ltmp284:
	.loc	1 337 0
	ldaw r1, dp[all_ones_addr]
.Ltmp285:
	mov r0, r4
	bl xtcp_compare_words
.Ltmp286:
	.loc	1 988 0
	bt r0, .LBB21_50
.Ltmp287:
	ldc r0, 0
	ld8u r0, r4[r0]
	ldc r1, 224
	eq r0, r0, r1
	bt r0, .LBB21_50
.LBB21_40:
.Ltmp288:
	.loc	1 337 0
	ldaw r1, dp[uip_hostaddr]
.Ltmp289:
	mov r0, r4
	bl xtcp_compare_words
.Ltmp290:
	.loc	1 999 0
	bf r0, .LBB21_225
.Ltmp291:
.LBB21_41:
	.loc	1 1022 0
	bl uip_ipchksum
	mkmsk r4, 16
	eq r0, r0, r4
	bf r0, .LBB21_225
	ldc r0, 23
	.loc	1 1029 0
	ld8u r0, r10[r0]
	eq r1, r0, r5
	bt r1, .LBB21_50
	eq r1, r0, 6
	bt r1, .LBB21_77
	eq r0, r0, 1
	bf r0, .LBB21_225
	ldc r0, 34
	.loc	1 1065 0
	ld8u r1, r10[r0]
	eq r1, r1, 8
	bf r1, .LBB21_225
	add r0, r10, r0
	.loc	1 1080 0
	st8 r9, r0[r9]
	.loc	1 1082 0
	ldw r0, dp[uip_buf]
	ldaw r0, r0[9]
	ld16s r1, r0[r9]
	zext r1, 16
	ldc r2, 65526
	lsu r2, r2, r1
	bf r2, .LBB21_48
	ldc r2, 9
	bu .LBB21_49
.LBB21_48:
	ldc r2, 8
.LBB21_49:
	add r1, r1, r2
	.loc	1 1083 0
	st16 r1, r0[r9]
	ldc r0, 30
	.loc	1 1089 0
	ldw r1, dp[uip_buf]
	add r0, r1, r0
.Ltmp292:
	ldc r4, 26
	add r1, r1, r4
.Ltmp293:
	.loc	1 332 0
	bl xtcp_copy_word
.Ltmp294:
	.loc	1 1090 0
	ldw r0, dp[uip_buf]
	add r0, r0, r4
.Ltmp295:
	.loc	1 332 0
	ldaw r1, dp[uip_hostaddr]
.Ltmp296:
	bl xtcp_copy_word
.Ltmp297:
	bu .LBB21_226
.Ltmp298:
.LBB21_50:
	.loc	1 1174 0
	ldaw r0, r6[-7]
	.loc	1 1176 0
	ldc r6, 0
	.loc	1 1174 0
	st16 r0, r7[r6]
	ldc r5, 42
	.loc	1 1175 0
	add r0, r10, r5
	stw r0, dp[uip_appdata]
	.loc	1 1176 0
	ldaw r0, r10[10]
	ld16s r0, r0[r6]
	zext r0, 16
	bt r0, .LBB21_52
.LBB21_51:
	ldaw r4, dp[uip_udp_conns]
	bu .LBB21_60
.LBB21_52:
	ldc r0, 17
	.loc	1 418 0
.Ltmp299:
	bl upper_layer_chksum
	mkmsk r1, 16
.Ltmp300:
	.loc	1 1176 0
	eq r0, r0, r1
	bt r0, .LBB21_51
	bu .LBB21_225
.LBB21_53:
	.loc	1 1214 0
	ldw r0, r4[1]
	mov r1, r0
	zext r1, 16
	bf r1, .LBB21_59
	ldaw r2, r10[9]
	ldc r7, 0
	ld16s r8, r2[r7]
	zext r8, 16
	eq r1, r8, r1
	bf r1, .LBB21_59
	shr r0, r0, 16
	ldc r1, 34
	add r1, r10, r1
	ld16s r1, r1[r7]
	zext r1, 16
	eq r0, r1, r0
	bf r0, .LBB21_59
	ldc r0, 26
	add r0, r10, r0
.Ltmp301:
	.loc	1 337 0
	mov r1, r4
	bl xtcp_compare_words
.Ltmp302:
	.loc	1 1214 0
	bt r0, .LBB21_71
.Ltmp303:
	ldc r0, 17408
	eq r0, r8, r0
	bt r0, .LBB21_71
	ld8u r0, r4[r7]
	ldc r1, 224
	eq r0, r0, r1
	bt r0, .LBB21_71
.LBB21_59:
	ldc r0, 96
	.loc	1 1189 0
	add r4, r4, r0
.LBB21_60:
	stw r4, dp[uip_udp_conn]
	.loc	1 1188 0
	ldaw r0, dp[uip_udp_conns+960]
	lsu r0, r4, r0
	bt r0, .LBB21_53
	.loc	1 1226 0
	ldaw r0, r10[9]
	ld16s r0, r0[r6]
	ldaw r1, dp[tmp16]
	st16 r0, r1[r6]
	ldc r1, 10
	.loc	1 1229 0
	ldaw r2, dp[uip_udp_listenports]
	ldc r3, 96
	.loc	1 1232 0
	ldaw r4, dp[uip_udp_conns]
	mov r11, r6
	bu .LBB21_62
.LBB21_66:
	.loc	1 1231 0
	add r11, r11, 1
	add r7, r7, 1
.LBB21_67:
	mov r8, r7
	zext r8, 8
	lsu r8, r8, r1
	bt r8, .LBB21_65
.LBB21_68:
	.loc	1 1228 0
	add r11, r11, 1
.LBB21_62:
	mov r7, r11
	zext r7, 8
	lsu r8, r7, r1
	bf r8, .LBB21_224
	.loc	1 1229 0
	ld16s r7, r2[r7]
	zext r7, 16
	mov r8, r0
	zext r8, 16
	eq r7, r8, r7
	bf r7, .LBB21_68
	ldc r7, 0
	.loc	1 1230 0
	stw r7, dp[uip_udp_conn]
	mov r11, r7
	bu .LBB21_67
.LBB21_65:
	.loc	1 1232 0
	mul r8, r7, r3
	add r9, r4, r8
	add r8, r9, 4
	ld16s r10, r8[r6]
	zext r10, 16
	bt r10, .LBB21_66
	.loc	1 1233 0
	stw r9, dp[uip_udp_conn]
	.loc	1 1237 0
	bf r9, .LBB21_68
	.loc	1 1239 0
	ldc r1, 0
	.loc	1 1231 0
	ldaw r2, dp[c]
	st8 r11, r2[r1]
	.loc	1 1238 0
	st16 r0, r8[r1]
	ldc r0, 34
	.loc	1 1239 0
	ldw r2, dp[uip_buf]
	add r0, r2, r0
	ld16s r0, r0[r1]
	ldw r2, dp[uip_udp_conn]
	add r2, r2, 6
	st16 r0, r2[r1]
	ldc r0, 8
	ldc r2, 64
	.loc	1 1240 0
	ldw r3, dp[uip_udp_conn]
	st8 r2, r3[r0]
	ldc r0, 9
	.loc	1 1241 0
	ldw r2, dp[uip_udp_conn]
	st8 r1, r2[r0]
	ldc r0, 66
	.loc	1 1242 0
	stw r0, dp[uip_flags]
	ldc r0, 26
	.loc	1 1243 0
	ldw r1, dp[uip_buf]
	add r1, r1, r0
.Ltmp304:
	ldw r0, dp[uip_udp_conn]
.Ltmp305:
	.loc	1 332 0
	bl xtcp_copy_word
.Ltmp306:
	.loc	1 1256 0
	ldw r10, dp[uip_buf]
	bu .LBB21_72
.LBB21_71:
	ldc r0, 2
	.loc	1 1253 0
	stw r0, dp[uip_flags]
.LBB21_72:
	.loc	1 1256 0
	add r1, r10, r5
	.loc	1 1257 0
	ldc r0, 0
	.loc	1 1255 0
	stw r0, dp[uip_conn]
	.loc	1 1256 0
	stw r1, dp[uip_appdata]
	stw r1, dp[uip_sappdata]
	.loc	1 1257 0
	ldaw r1, dp[uip_slen]
	st16 r0, r1[r0]
.LBB21_73:
	.loc	1 1258 0
	bl xtcpd_appcall
.LBB21_74:
	.loc	1 1260 0
	ldc r5, 0
	ldaw r0, dp[uip_slen]
	ld16s r1, r0[r5]
	zext r1, 16
	bf r1, .LBB21_225
	.loc	1 1263 0
	ldaw r2, r1[7]
	ldaw r1, dp[uip_len]
	st16 r2, r1[r5]
	.loc	1 1271 0
	shr r2, r2, 8
	ldc r3, 16
	ldw r11, dp[uip_buf]
	st8 r2, r11[r3]
	.loc	1 1272 0
	ld8u r1, r1[r5]
	ldc r4, 17
	ldw r2, dp[uip_buf]
	st8 r1, r2[r4]
	ldc r1, 8
	.loc	1 1275 0
	ldw r2, dp[uip_udp_conn]
	ld8u r1, r2[r1]
	ldc r2, 22
	ldw r3, dp[uip_buf]
	st8 r1, r3[r2]
	ldc r1, 23
	.loc	1 1276 0
	ldw r2, dp[uip_buf]
	st8 r4, r2[r1]
	.loc	1 1278 0
	ld16s r0, r0[r5]
	add r1, r0, 8
	shl r0, r1, 8
	ldc r2, 65280
	and r1, r1, r2
	shr r1, r1, 8
	or r0, r0, r1
	ldc r1, 38
	ldw r2, dp[uip_buf]
	add r1, r2, r1
	st16 r0, r1[r5]
	.loc	1 1279 0
	ldw r0, dp[uip_buf]
	ldaw r0, r0[10]
	st16 r5, r0[r5]
	ldc r0, 34
	.loc	1 1281 0
	ldw r1, dp[uip_buf]
	add r0, r1, r0
	ldw r1, dp[uip_udp_conn]
	add r1, r1, 4
	ld16s r1, r1[r5]
	st16 r1, r0[r5]
	.loc	1 1282 0
	ldw r0, dp[uip_udp_conn]
	add r0, r0, 6
	ld16s r0, r0[r5]
	ldw r1, dp[uip_buf]
	ldaw r1, r1[9]
	st16 r0, r1[r5]
	ldc r0, 26
	.loc	1 1284 0
	ldw r1, dp[uip_buf]
	add r0, r1, r0
.Ltmp307:
	.loc	1 332 0
	ldaw r1, dp[uip_hostaddr]
.Ltmp308:
	bl xtcp_copy_word
.Ltmp309:
	ldc r0, 30
.Ltmp310:
	.loc	1 1285 0
	ldw r1, dp[uip_buf]
	add r0, r1, r0
.Ltmp311:
	ldw r1, dp[uip_udp_conn]
.Ltmp312:
	.loc	1 332 0
	bl xtcp_copy_word
.Ltmp313:
	ldc r0, 54
.Ltmp314:
	.loc	1 1287 0
	ldw r6, dp[uip_buf]
	add r0, r6, r0
	stw r0, dp[uip_appdata]
	.loc	1 418 0
.Ltmp315:
	mov r0, r4
	bl upper_layer_chksum
.Ltmp316:
	.loc	1 1291 0
	ldaw r1, r6[10]
	not r0, r0
	st16 r0, r1[r5]
	.loc	1 1292 0
	ldw r0, dp[uip_buf]
	ldaw r0, r0[10]
	ld16s r1, r0[r5]
	zext r1, 16
	bt r1, .LBB21_223
	mkmsk r1, 32
	.loc	1 1293 0
	st16 r1, r0[r5]
	bu .LBB21_223
.LBB21_77:
	ldc r0, 6
	.loc	1 411 0
.Ltmp317:
	bl upper_layer_chksum
.Ltmp318:
	.loc	1 1305 0
	eq r0, r0, r4
	bf r0, .LBB21_225
	stw r6, sp[1]
	ldc r0, 26
	.loc	1 1314 0
	add r6, r10, r0
.Ltmp319:
	ldc r0, 34
	add r8, r10, r0
	ldaw r7, r10[9]
	ldaw r4, dp[uip_conns]
	.loc	1 1313 0
	ldaw r5, dp[uip_conns+1008]
	bu .LBB21_84
.Ltmp320:
.LBB21_79:
	ldc r0, 25
	.loc	1 1314 0
	ld8u r0, r4[r0]
	bf r0, .LBB21_83
	ld16s r1, r7[r9]
	zext r1, 16
	ldw r0, r4[1]
	mov r2, r0
	zext r2, 16
	eq r1, r1, r2
	bf r1, .LBB21_83
	ld16s r1, r8[r9]
	zext r1, 16
	shr r0, r0, 16
	eq r0, r1, r0
	bf r0, .LBB21_83
.Ltmp321:
	.loc	1 337 0
	mov r0, r6
	mov r1, r4
	bl xtcp_compare_words
.Ltmp322:
	.loc	1 1314 0
	bt r0, .LBB21_118
.Ltmp323:
.LBB21_83:
	ldc r0, 112
	.loc	1 1313 0
	add r4, r4, r0
.Ltmp324:
.LBB21_84:
	lsu r0, r5, r4
	bf r0, .LBB21_79
	ldc r0, 47
	.loc	1 1325 0
	ld8u r0, r10[r0]
	zext r0, 6
	eq r0, r0, 2
	.loc	1 935 0
	ldaw r8, dp[uip_len]
	.loc	1 1325 0
	bf r0, .LBB21_92
	.loc	1 1329 0
	ldc r1, 0
	ld16s r2, r7[r1]
	ldaw r0, dp[tmp16]
	st16 r2, r0[r1]
	ldc r0, 10
	.loc	1 1332 0
	ldaw r11, dp[uip_listenports]
	mov r3, r1
	bu .LBB21_90
.LBB21_88:
	.loc	1 1331 0
	ldc r1, 0
	ldaw r7, dp[c]
	st8 r3, r7[r1]
	.loc	1 1384 0
	ldaw r2, dp[uip_conns]
	mov r3, r1
	mov r11, r1
	ldc r9, 26
	bu .LBB21_100
.LBB21_87:
	.loc	1 1332 0
	ld16s r4, r11[r1]
	zext r4, 16
	mov r5, r2
	zext r5, 16
	eq r4, r5, r4
	bt r4, .LBB21_88
	.loc	1 1331 0
	add r3, r3, 1
	add r1, r1, 1
.LBB21_90:
	mov r4, r1
	zext r4, 8
	lsu r4, r4, r0
	bt r4, .LBB21_87
	ldc r0, 0
	ldaw r1, dp[c]
	st8 r3, r1[r0]
.LBB21_92:
	ldc r0, 47
	.loc	1 1341 0
	ld8u r1, r10[r0]
	ldc r2, 4
	and r1, r1, r2
	bt r1, .LBB21_225
	add r0, r10, r0
	.loc	1 1363 0
	ldc r4, 0
	ldc r1, 20
	.loc	1 1347 0
	st8 r1, r0[r4]
	ldc r0, 40
	.loc	1 1348 0
	st16 r0, r8[r4]
	ldc r0, 46
	ldc r1, 80
	.loc	1 1349 0
	ldw r2, dp[uip_buf]
	st8 r1, r2[r0]
	ldc r0, 38
	.loc	1 1352 0
	ldw r1, dp[uip_buf]
	add r3, r1, r0
.Ltmp325:
	.loc	1 274 0
	ld16s r2, r3[r4]
	ldc r0, 42
.Ltmp326:
	.loc	1 1352 0
	add r11, r1, r0
.Ltmp327:
	.loc	1 275 0
	ld16s r5, r11[r4]
	st16 r5, r3[r4]
	.loc	1 276 0
	st16 r2, r11[r4]
	.loc	1 278 0
	ldaw r3, r1[10]
.Ltmp328:
	ld16s r2, r3[r4]
	.loc	1 279 0
	ldaw r1, r1[11]
	ld16s r11, r1[r4]
.Ltmp329:
	st16 r11, r3[r4]
	.loc	1 280 0
	st16 r2, r1[r4]
.Ltmp330:
	.loc	1 1357 0
	ldw r1, dp[uip_buf]
	add r0, r1, r0
	bl xtcp_increment_word
	.loc	1 1361 0
	ldw r2, dp[uip_buf]
	ldc r0, 34
	add r0, r2, r0
	ld16s r3, r0[r4]
	ldaw r1, dp[tmp16]
	st16 r3, r1[r4]
	.loc	1 1362 0
	ldaw r2, r2[9]
	ld16s r2, r2[r4]
	st16 r2, r0[r4]
	.loc	1 1363 0
	ld16s r0, r1[r4]
	ldw r1, dp[uip_buf]
	ldaw r1, r1[9]
	st16 r0, r1[r4]
	ldc r0, 30
	.loc	1 1366 0
	ldw r1, dp[uip_buf]
	add r0, r1, r0
.Ltmp331:
	ldc r4, 26
	add r1, r1, r4
.Ltmp332:
	.loc	1 332 0
	bl xtcp_copy_word
.Ltmp333:
	.loc	1 1367 0
	ldw r0, dp[uip_buf]
	add r0, r0, r4
.Ltmp334:
	.loc	1 332 0
	ldaw r1, dp[uip_hostaddr]
.Ltmp335:
	bl xtcp_copy_word
.Ltmp336:
	bu .LBB21_222
.Ltmp337:
.LBB21_94:
	ldc r5, 112
	.loc	1 1384 0
	mul r5, r4, r5
	add r4, r2, r5
	ldc r6, 25
	ld8u r8, r4[r6]
	eq r6, r8, 7
	bt r6, .LBB21_96
	bt r8, .LBB21_99
	bu .LBB21_102
.LBB21_96:
	.loc	1 1389 0
	bf r11, .LBB21_98
	ld8u r4, r11[r9]
	add r6, r2, r5
	ld8u r6, r6[r9]
	lsu r4, r4, r6
	bf r4, .LBB21_99
.LBB21_98:
	.loc	1 1390 0
	add r11, r2, r5
.Ltmp338:
.LBB21_99:
	.loc	1 1383 0
	add r3, r3, 1
.LBB21_100:
	st8 r3, r7[r1]
	mov r4, r3
	zext r4, 8
	lsu r5, r4, r0
	bt r5, .LBB21_94
	mov r4, r11
.LBB21_102:
	.loc	1 1395 0
	bf r4, .LBB21_225
	.loc	1 1402 0
	stw r4, dp[uip_conn]
	mkmsk r0, 2
	mov r2, r9
	.loc	1 1405 0
	st8 r0, r4[r2]
	ldc r1, 24
	st8 r0, r4[r1]
	ldc r0, 22
	.loc	1 1415 0
	ldc r9, 0
	.loc	1 1406 0
	st8 r9, r4[r0]
	ldc r0, 4
	ldc r1, 23
	.loc	1 1407 0
	st8 r0, r4[r1]
	ldc r0, 27
	.loc	1 1408 0
	st8 r9, r4[r0]
	.loc	1 1409 0
	ldw r0, dp[uip_buf]
	ldaw r0, r0[9]
	ld16s r0, r0[r9]
	add r1, r4, 4
	st16 r0, r1[r9]
	.loc	1 1410 0
	ldw r0, dp[uip_buf]
	ldc r1, 34
	add r0, r0, r1
	ld16s r0, r0[r9]
	add r1, r4, 6
	st16 r0, r1[r9]
	.loc	1 1411 0
	ldw r0, dp[uip_buf]
	add r1, r0, r2
.Ltmp339:
	.loc	1 332 0
	mov r0, r4
	bl xtcp_copy_word
.Ltmp340:
	mkmsk r5, 1
	ldc r0, 25
.Ltmp341:
	.loc	1 1412 0
	st8 r5, r4[r0]
	.loc	1 1414 0
	ldaw r0, r4[3]
	ldaw r1, dp[iss]
	bl xtcp_copy_word
	.loc	1 1415 0
	ldaw r0, r4[4]
	st16 r5, r0[r9]
	ldc r0, 38
	.loc	1 1418 0
	ldw r1, dp[uip_buf]
	add r1, r1, r0
	add r0, r4, 8
	bl xtcp_copy_word
	.loc	1 1419 0
	mov r0, r5
	bl uip_add_rcv_nxt
	ldc r0, 46
	.loc	1 1422 0
	ldw r1, dp[uip_buf]
	ld8u r2, r1[r0]
	ldc r3, 240
	and r2, r2, r3
	ldc r3, 80
	lsu r2, r3, r2
	bf r2, .LBB21_116
.Ltmp342:
	add r2, r1, r0
	.loc	1 1423 0
	ldc r0, 0
	ldc r3, 60
	.loc	1 1424 0
	ldaw r11, dp[opt]
	ldc r5, 55
	bu .LBB21_111
.LBB21_110:
	.loc	1 1429 0
	add r9, r9, 1
.LBB21_111:
	.loc	1 1423 0
	st8 r9, r7[r0]
	ld8u r6, r2[r0]
	shr r6, r6, 2
	and r6, r6, r3
	ldaw r10, r6[-5]
	mov r8, r9
	zext r8, 8
	lss r6, r8, r10
	bf r6, .LBB21_116
	.loc	1 1424 0
	add r8, r8, r1
	ldc r6, 54
	ld8u r10, r8[r6]
	st8 r10, r11[r0]
	.loc	1 1425 0
	bf r10, .LBB21_116
	eq r6, r10, 1
	bt r6, .LBB21_110
	eq r10, r10, 2
	bt r10, .LBB21_112
.LBB21_108:
	.loc	1 1445 0
	add r8, r8, r5
	ld8u r8, r8[r0]
	bf r8, .LBB21_116
	.loc	1 1450 0
	add r9, r8, r9
	bu .LBB21_111
.LBB21_112:
	.loc	1 1431 0
	ld8u r10, r8[r5]
	eq r10, r10, 4
	bf r10, .LBB21_108
	ldc r1, 57
	.loc	1 1434 0
	ld8u r1, r8[r1]
	ldc r2, 56
	ld8u r2, r8[r2]
	shl r2, r2, 8
	or r2, r2, r1
	mov r3, r2
	zext r3, 16
	ldc r1, 1472
	.loc	1 1437 0
	lsu r3, r1, r3
	bt r3, .LBB21_115
	mov r1, r2
.LBB21_115:
	.loc	1 1329 0
	ldaw r3, dp[tmp16]
	.loc	1 1434 0
	st16 r2, r3[r0]
	ldc r2, 18
	.loc	1 1437 0
	add r2, r4, r2
	st16 r1, r2[r0]
	ldaw r2, r4[5]
	st16 r1, r2[r0]
.LBB21_116:
	.loc	1 1458 0
	ldw r0, dp[uip_buf]
	ldc r1, 47
	ldc r2, 16
	st8 r2, r0[r1]
.LBB21_117:
	ldc r0, 47
	.loc	1 1461 0
	ldw r2, dp[uip_buf]
	ld8u r3, r2[r0]
	ldc r1, 2
	or r3, r3, r1
	st8 r3, r2[r0]
	.loc	1 1468 0
	ldw r0, dp[uip_buf]
	ldc r2, 54
	st8 r1, r0[r2]
	ldc r0, 55
	ldc r1, 4
	.loc	1 1469 0
	ldw r2, dp[uip_buf]
	st8 r1, r2[r0]
	ldc r0, 56
	.loc	1 1470 0
	ldw r1, dp[uip_buf]
	ldc r2, 5
	st8 r2, r1[r0]
	ldc r0, 57
	ldw r1, cp[.LCPI21_0]
	.loc	1 1471 0
	ldw r2, dp[uip_buf]
	st8 r1, r2[r0]
	.loc	1 1472 0
	ldc r0, 0
	ldaw r1, dp[uip_len]
	ldc r2, 44
	st16 r2, r1[r0]
	ldc r0, 46
	ldc r1, 96
	.loc	1 1473 0
	ldw r2, dp[uip_buf]
	st8 r1, r2[r0]
	bu .LBB21_219
.LBB21_118:
	ldc r0, 25
	.loc	1 1314 0
	add r11, r4, r0
	ldc r2, 47
	.loc	1 1477 0
	stw r4, dp[uip_conn]
	.loc	1 1478 0
	stw r9, dp[uip_flags]
	.loc	1 1483 0
	ld8u r0, r10[r2]
	ldc r1, 4
	and r0, r0, r1
	ldw r3, sp[1]
	bf r0, .LBB21_121
	.loc	1 1484 0
	st8 r9, r11[r9]
	ldc r0, 32
.LBB21_120:
	.loc	1 1486 0
	stw r0, dp[uip_flags]
	.loc	1 1487 0
	bl xtcpd_appcall
	bu .LBB21_225
.LBB21_121:
	.loc	1 1483 0
	add r5, r10, r2
	ldc r0, 46
	.loc	1 1492 0
	ld8u r0, r10[r0]
	shr r0, r0, 2
	ldc r1, 60
	and r0, r0, r1
	ldaw r7, dp[c]
	st8 r0, r7[r9]
	.loc	1 1496 0
	sub r0, r3, r0
	ldaw r0, r0[-5]
	.loc	1 935 0
	ldaw r8, dp[uip_len]
	.loc	1 1496 0
	st16 r0, r8[r9]
	.loc	1 1501 0
	ld8u r1, r11[r9]
	zext r1, 4
	eq r1, r1, 2
	bf r1, .LBB21_123
	ldc r1, 0
	ld8u r1, r5[r1]
	mov r2, r1
	zext r2, 6
	ldc r3, 18
	eq r2, r2, r3
	bt r2, .LBB21_127
.LBB21_123:
	.loc	1 1503 0
	zext r0, 16
	bt r0, .LBB21_125
	ld8u r1, r5[r9]
	mov r0, r1
	zext r0, 2
	bf r0, .LBB21_127
.LBB21_125:
	ldc r0, 38
	add r0, r10, r0
	add r1, r4, 8
	mov r6, r11
	bl xtcp_compare_words
	mov r11, r6
	bf r0, .LBB21_216
	.loc	1 1513 0
	ld8u r1, r5[r9]
.LBB21_127:
	stw r11, sp[2]
	ldc r0, 16
	and r0, r1, r0
	bf r0, .LBB21_133
	ldaw r5, r4[4]
	ld16s r1, r5[r9]
	zext r1, 16
	bf r1, .LBB21_133
	.loc	1 1514 0
	ldaw r6, r4[3]
	mov r0, r6
	bl uip_add32
	ldc r0, 42
	.loc	1 1521 0
	ldw r10, dp[uip_buf]
	add r0, r10, r0
	ldaw r1, dp[uip_acc32]
	bl xtcp_compare_words
	bf r0, .LBB21_133
	.loc	1 1528 0
	ldaw r1, dp[uip_acc32]
	mov r0, r6
	bl xtcp_copy_word
	ldc r0, 27
	.loc	1 1532 0
	ld8u r1, r4[r0]
	.loc	1 1534 0
.Ltmp343:
	ldaw r0, r4[6]
.Ltmp344:
	.loc	1 1532 0
	bt r1, .LBB21_132
	.loc	1 1534 0
.Ltmp345:
	ldw r1, r4[6]
	shr r2, r1, 16
	sub r11, r1, r2
	ldc r1, 22
	.loc	1 1536 0
	add r2, r4, r1
	ld16s r3, r2[r9]
	ldc r2, 248
	and r6, r3, r2
	shr r6, r6, 3
	sub r11, r11, r6
	mov r6, r11
	sext r6, 8
	ashr r6, r6, 7
	add r8, r11, r6
	.loc	1 1538 0
	xor r6, r8, r6
	.loc	1 1536 0
	zext r3, 16
	ldc r8, 10
	.loc	1 1541 0
	shr r8, r3, r8
	sub r6, r6, r8
	shr r8, r3, 8
	.loc	1 1542 0
	add r6, r6, r8
	.loc	1 1537 0
	add r3, r11, r3
	st8 r3, r4[r1]
	ldc r1, 23
	.loc	1 1542 0
	st8 r6, r4[r1]
	.loc	1 1537 0
	and r1, r3, r2
	.loc	1 1543 0
	shr r1, r1, 3
	add r1, r6, r1
	st8 r1, r0[r9]
.Ltmp346:
.LBB21_132:
	mkmsk r1, 1
	.loc	1 1548 0
	stw r1, dp[uip_flags]
	.loc	1 1551 0
	ld8u r0, r0[r9]
	ldc r1, 26
	st8 r0, r4[r1]
	.loc	1 1562 0
	st16 r9, r5[r9]
	.loc	1 1568 0
	ldw r10, dp[uip_buf]
	.loc	1 935 0
	ldaw r8, dp[uip_len]
.LBB21_133:
	ldc r0, 47
	.loc	1 1568 0
	ld8u r0, r10[r0]
	ldc r6, 8
	and r0, r0, r6
	bf r0, .LBB21_135
	ldc r0, 256
	.loc	1 1569 0
	ldw r1, dp[uip_flags]
	or r0, r1, r0
	stw r0, dp[uip_flags]
.LBB21_135:
	ldw r11, sp[2]
	.loc	1 1573 0
	ld8u r0, r11[r9]
	mov r1, r0
	zext r1, 4
	sub r2, r1, 1
	mkmsk r5, 3
	lsu r1, r5, r2
	bt r1, .LBB21_225
	ldc r1, 47
	.loc	1 1568 0
	add r1, r10, r1
	
	.xtabranch .Ljumptable2+2,.Ljumptable2+4,.Ljumptable2+6,.Ljumptable2+8,.Ljumptable2+10,.Ljumptable2+12,.Ljumptable2+14,.Ljumptable2+16
.Ljumptable2:
		bru r2
	.jmptable .LBB21_137,.LBB21_141,.LBB21_158,.LBB21_200,.LBB21_209,.LBB21_213,.LBB21_216,.LBB21_198
.LBB21_137:
	.loc	1 1583 0
	ldc r5, 0
	ldaw r0, dp[uip_flags]
	ld8u r0, r0[r5]
	zext r0, 1
	bf r0, .LBB21_225
	mkmsk r0, 2
	.loc	1 1584 0
	st8 r0, r11[r5]
	ldc r0, 64
	.loc	1 1585 0
	stw r0, dp[uip_flags]
	.loc	1 1586 0
	ldaw r0, r4[4]
	st16 r5, r0[r5]
	.loc	1 1587 0
	ld16s r0, r8[r5]
	zext r0, 16
	bf r0, .LBB21_140
	ldc r1, 2
	.loc	1 1588 0
	ldw r2, dp[uip_flags]
	or r1, r2, r1
	stw r1, dp[uip_flags]
	.loc	1 1589 0
	bl uip_add_rcv_nxt
.LBB21_140:
	.loc	1 1591 0
	ldaw r0, dp[uip_slen]
	st16 r5, r0[r5]
	bu .LBB21_176
.LBB21_141:
	.loc	1 1602 0
	ldaw r0, dp[uip_flags]
	ld8u r0, r0[r9]
	zext r0, 1
	ldc r3, 46
	bf r0, .LBB21_157
	ld8u r1, r1[r9]
	zext r1, 6
	ldc r0, 18
	eq r1, r1, r0
	bf r1, .LBB21_157
	.loc	1 1606 0
	ld8u r1, r10[r3]
	ldc r2, 240
	and r1, r1, r2
	ldc r2, 80
	lsu r1, r2, r1
	bf r1, .LBB21_156
	add r2, r10, r3
	.loc	1 1607 0
	ldc r1, 0
	.loc	1 1608 0
	ldaw r3, dp[opt]
	ldc r11, 55
	bu .LBB21_151
.LBB21_150:
	.loc	1 1613 0
	add r9, r9, 1
.LBB21_151:
	.loc	1 1607 0
	st8 r9, r7[r1]
	ld8u r5, r2[r1]
	shr r5, r5, 2
	ldc r6, 60
	and r5, r5, r6
	ldaw r6, r5[-5]
	mov r5, r9
	zext r5, 8
	lss r6, r5, r6
	bf r6, .LBB21_156
	.loc	1 1608 0
	add r5, r5, r10
	ldc r6, 54
	ld8u r6, r5[r6]
	st8 r6, r3[r1]
	.loc	1 1609 0
	bf r6, .LBB21_156
	eq r8, r6, 1
	bt r8, .LBB21_150
	eq r6, r6, 2
	bt r6, .LBB21_152
.LBB21_148:
	.loc	1 1628 0
	add r5, r5, r11
	ld8u r5, r5[r1]
	bf r5, .LBB21_156
	.loc	1 1633 0
	add r9, r5, r9
	bu .LBB21_151
.LBB21_152:
	.loc	1 1615 0
	ld8u r6, r5[r11]
	eq r6, r6, 4
	bf r6, .LBB21_148
	ldc r2, 57
	.loc	1 1618 0
	ld8u r2, r5[r2]
	ldc r3, 56
	ld8u r3, r5[r3]
	shl r3, r3, 8
	or r2, r3, r2
	mov r11, r2
	zext r11, 16
	ldc r3, 1472
	.loc	1 1620 0
	lsu r11, r3, r11
	bt r11, .LBB21_155
	mov r3, r2
.LBB21_155:
	.loc	1 1618 0
	ldaw r11, dp[tmp16]
	st16 r2, r11[r1]
	.loc	1 1620 0
	add r0, r4, r0
	st16 r3, r0[r1]
	ldaw r0, r4[5]
	st16 r3, r0[r1]
.LBB21_156:
	.loc	1 1643 0
	ldc r5, 0
	mkmsk r0, 2
	.loc	1 1637 0
	ldw r1, sp[2]
	st8 r0, r1[r5]
	ldc r0, 38
	.loc	1 1638 0
	ldw r1, dp[uip_buf]
	add r1, r1, r0
	add r0, r4, 8
	bl xtcp_copy_word
	mkmsk r0, 1
	.loc	1 1639 0
	bl uip_add_rcv_nxt
	ldc r0, 66
	.loc	1 1640 0
	stw r0, dp[uip_flags]
	.loc	1 1641 0
	ldaw r0, r4[4]
	st16 r5, r0[r5]
	.loc	1 935 0
	ldaw r0, dp[uip_len]
	.loc	1 1642 0
	st16 r5, r0[r5]
	bu .LBB21_140
.LBB21_157:
	ldc r0, 32
	.loc	1 1648 0
	stw r0, dp[uip_flags]
	.loc	1 1649 0
	bl xtcpd_appcall
	ldc r0, 0
	.loc	1 1651 0
	ldw r1, dp[uip_conn]
	ldc r2, 25
	st8 r0, r1[r2]
	.loc	1 1341 0
	ldw r10, dp[uip_buf]
	bu .LBB21_92
.LBB21_158:
	.loc	1 1667 0
	ld8u r1, r1[r9]
	mov r2, r1
	zext r2, 1
	bf r2, .LBB21_165
	ldc r2, 16
	and r0, r0, r2
	bt r0, .LBB21_165
	.loc	1 1668 0
	ldaw r5, r4[4]
	ld16s r0, r5[r9]
	zext r0, 16
	bt r0, .LBB21_225
	mov r7, r11
	.loc	1 1671 0
	ld16s r0, r8[r9]
	add r0, r0, 1
	zext r0, 16
	bl uip_add_rcv_nxt
	.loc	1 1672 0
	ldw r0, dp[uip_flags]
	ldc r1, 16
	or r1, r0, r1
	stw r1, dp[uip_flags]
	.loc	1 1673 0
	ld16s r1, r8[r9]
	zext r1, 16
	bf r1, .LBB21_163
	ldc r1, 18
	.loc	1 1674 0
	or r0, r0, r1
	stw r0, dp[uip_flags]
.LBB21_163:
	.loc	1 1676 0
	bl xtcpd_appcall
	mkmsk r0, 1
	.loc	1 1677 0
	st16 r0, r5[r9]
	.loc	1 1678 0
	st8 r6, r7[r9]
	ldc r0, 27
	.loc	1 1679 0
	st8 r9, r4[r0]
.LBB21_164:
	.loc	1 1680 0
	ldw r0, dp[uip_buf]
	ldc r1, 47
	ldc r2, 17
	st8 r2, r0[r1]
	bu .LBB21_217
.LBB21_165:
	ldc r0, 32
	.loc	1 1686 0
	and r0, r1, r0
	bf r0, .LBB21_167
	ldc r0, 53
	.loc	1 1700 0
	ld8u r2, r10[r0]
	ldc r1, 52
	ld8u r3, r10[r1]
	shl r3, r3, 8
	or r2, r3, r2
	ldw r3, dp[uip_appdata]
	add r2, r3, r2
	stw r2, dp[uip_appdata]
	.loc	1 1702 0
	ld8u r0, r10[r0]
	ld8u r1, r10[r1]
	shl r1, r1, 8
	or r0, r1, r0
	ld16s r1, r8[r9]
	sub r0, r1, r0
	st16 r0, r8[r9]
	bu .LBB21_168
.LBB21_167:
	.loc	1 1711 0
	ld16s r0, r8[r9]
.LBB21_168:
	zext r0, 16
	bf r0, .LBB21_171
	ld8u r1, r11[r9]
	ldc r2, 16
	and r1, r1, r2
	bt r1, .LBB21_171
	ldc r1, 2
	.loc	1 1716 0
	ldw r2, dp[uip_flags]
	or r1, r2, r1
	stw r1, dp[uip_flags]
	.loc	1 1717 0
	bl uip_add_rcv_nxt
	.loc	1 1732 0
	ldw r10, dp[uip_buf]
.LBB21_171:
	ldc r0, 49
	ld8u r0, r10[r0]
	ldc r1, 48
	ld8u r1, r10[r1]
	shl r1, r1, 8
	or r0, r1, r0
	ldaw r1, dp[tmp16]
	st16 r0, r1[r9]
	mov r3, r0
	zext r3, 16
	.loc	1 1733 0
	ldaw r2, r4[5]
	ld16s r2, r2[r9]
	zext r2, 16
	lsu r11, r2, r3
	bt r11, .LBB21_173
	bt r3, .LBB21_174
.LBB21_173:
	.loc	1 1734 0
	st16 r2, r1[r9]
	mov r0, r2
.LBB21_174:
	ldc r1, 18
	.loc	1 1736 0
	add r1, r4, r1
	st16 r0, r1[r9]
	.loc	1 1754 0
	ldaw r0, dp[uip_flags]
	ld8u r0, r0[r9]
	zext r0, 2
	bf r0, .LBB21_225
	.loc	1 1755 0
	ldaw r0, dp[uip_slen]
	st16 r9, r0[r9]
.LBB21_176:
	.loc	1 1756 0
	bl xtcpd_appcall
	ldc r1, 32
	.loc	1 1760 0
	ldw r0, dp[uip_flags]
	and r1, r0, r1
	bf r1, .LBB21_180
	.loc	1 1761 0
	ldaw r1, dp[uip_slen]
	ldc r0, 0
	st16 r0, r1[r0]
	ldc r1, 25
	.loc	1 1762 0
	st8 r0, r4[r1]
.LBB21_178:
	ldc r0, 47
	ldc r1, 20
.LBB21_179:
	.loc	1 1763 0
	ldw r2, dp[uip_buf]
	st8 r1, r2[r0]
	bu .LBB21_217
.LBB21_180:
	ldc r1, 16
	.loc	1 1767 0
	and r0, r0, r1
	bf r0, .LBB21_182
	.loc	1 1768 0
	ldaw r1, dp[uip_slen]
	.loc	1 1769 0
	ldc r0, 0
	.loc	1 1768 0
	st16 r0, r1[r0]
	.loc	1 1769 0
	ldaw r1, r4[4]
	mkmsk r2, 1
	st16 r2, r1[r0]
	ldc r1, 25
	ldc r2, 4
	.loc	1 1770 0
	st8 r2, r4[r1]
	ldc r1, 27
	.loc	1 1771 0
	st8 r0, r4[r1]
	ldc r0, 47
	ldc r1, 17
	bu .LBB21_179
.LBB21_182:
	ldc r1, 27
	.loc	1 1780 0
	ldc r0, 0
	.loc	1 1777 0
	st8 r0, r4[r1]
	.loc	1 1780 0
	ldaw r1, dp[uip_slen]
	ld16s r2, r1[r0]
	zext r2, 16
	bt r2, .LBB21_186
	.loc	1 1833 0
	ldw r0, dp[uip_sappdata]
	stw r0, dp[uip_appdata]
.LBB21_184:
	.loc	1 1847 0
	ldc r0, 0
	ldaw r1, dp[uip_flags]
	ld8u r1, r1[r0]
	ldc r2, 2
	and r1, r1, r2
	bf r1, .LBB21_225
	.loc	1 1848 0
	ldaw r1, dp[uip_len]
	ldc r2, 40
	st16 r2, r1[r0]
	ldc r0, 47
	ldc r1, 16
	bu .LBB21_197
.LBB21_186:
	.loc	1 1798 0
	ldaw r2, dp[uip_flags]
	ld8u r2, r2[r0]
	zext r2, 1
	bf r2, .LBB21_188
	.loc	1 1799 0
	ldaw r2, r4[4]
	st16 r0, r2[r0]
.LBB21_188:
	.loc	1 1806 0
	ldw r2, r4[4]
	mov r3, r2
	zext r3, 16
	bt r3, .LBB21_192
	shr r2, r2, 16
	.loc	1 1811 0
	ld16s r3, r1[r0]
	zext r3, 16
	lsu r11, r2, r3
	bf r11, .LBB21_191
	.loc	1 1812 0
	st16 r2, r1[r0]
	mov r3, r2
.LBB21_191:
	.loc	1 1817 0
	ldaw r1, r4[4]
	st16 r3, r1[r0]
	bu .LBB21_194
.LBB21_192:
	.loc	1 1825 0
	st16 r2, r1[r0]
	.loc	1 1833 0
	ldw r0, dp[uip_sappdata]
	stw r0, dp[uip_appdata]
	bu .LBB21_195
.LBB21_193:
	.loc	1 846 0
	stw r2, dp[uip_flags]
	.loc	1 847 0
	bl xtcpd_appcall
.LBB21_194:
	.loc	1 1837 0
	ldc r0, 0
	ldaw r1, dp[uip_slen]
	ld16s r0, r1[r0]
	zext r0, 16
	.loc	1 1833 0
	ldw r1, dp[uip_sappdata]
	stw r1, dp[uip_appdata]
	.loc	1 1837 0
	bf r0, .LBB21_184
.LBB21_195:
	ldaw r1, r4[4]
	ldc r0, 0
	ld16s r1, r1[r0]
	zext r1, 16
	bf r1, .LBB21_184
	.loc	1 1839 0
	ldaw r1, r1[10]
	ldaw r2, dp[uip_len]
	st16 r1, r2[r0]
	ldc r0, 47
	ldc r1, 24
.LBB21_197:
	.loc	1 1841 0
	ldw r2, dp[uip_buf]
	st8 r1, r2[r0]
	bu .LBB21_218
.LBB21_198:
	.loc	1 1857 0
	ldaw r0, dp[uip_flags]
	ld8u r0, r0[r9]
	zext r0, 1
	bf r0, .LBB21_225
	.loc	1 1858 0
	st8 r9, r11[r9]
	ldc r0, 16
	bu .LBB21_120
.LBB21_200:
	mov r6, r11
	.loc	1 1868 0
	ld16s r0, r8[r9]
	zext r0, 16
	bf r0, .LBB21_202
	.loc	1 1869 0
	bl uip_add_rcv_nxt
	.loc	1 1871 0
	ldw r10, dp[uip_buf]
.LBB21_202:
	ldc r0, 47
	ld8u r1, r10[r0]
	zext r1, 1
	.loc	1 1872 0
	ldw r0, dp[uip_flags]
	zext r0, 1
	.loc	1 1871 0
	bf r1, .LBB21_207
	.loc	1 1872 0
	bf r0, .LBB21_205
	.loc	1 1873 0
	st8 r5, r6[r9]
	ldc r0, 26
	.loc	1 1874 0
	st8 r9, r4[r0]
	.loc	1 1875 0
	ldaw r0, r4[4]
	st16 r9, r0[r9]
	bu .LBB21_206
.LBB21_205:
	ldc r0, 6
	.loc	1 1877 0
	st8 r0, r6[r9]
.LBB21_206:
	mkmsk r0, 1
	.loc	1 1879 0
	bl uip_add_rcv_nxt
	ldc r0, 16
	.loc	1 1880 0
	stw r0, dp[uip_flags]
	.loc	1 1881 0
	bl xtcpd_appcall
	bu .LBB21_216
.LBB21_207:
	.loc	1 1883 0
	bf r0, .LBB21_215
	ldc r0, 5
	.loc	1 1884 0
	st8 r0, r6[r9]
	.loc	1 1885 0
	ldaw r0, r4[4]
	st16 r9, r0[r9]
	bu .LBB21_225
.LBB21_209:
	mov r6, r11
	.loc	1 1894 0
	ld16s r0, r8[r9]
	zext r0, 16
	bf r0, .LBB21_211
	.loc	1 1895 0
	bl uip_add_rcv_nxt
	.loc	1 1897 0
	ldw r10, dp[uip_buf]
.LBB21_211:
	ldc r0, 47
	ld8u r0, r10[r0]
	zext r0, 1
	bf r0, .LBB21_215
	.loc	1 1898 0
	st8 r5, r6[r9]
	ldc r0, 26
	.loc	1 1899 0
	st8 r9, r4[r0]
	bu .LBB21_206
.LBB21_213:
	.loc	1 1914 0
	ldaw r0, dp[uip_flags]
	ld8u r0, r0[r9]
	zext r0, 1
	bf r0, .LBB21_225
	.loc	1 1915 0
	st8 r5, r11[r9]
	ldc r0, 26
	.loc	1 1916 0
	st8 r9, r4[r0]
	bu .LBB21_225
.LBB21_215:
	.loc	1 1888 0
	ld16s r0, r8[r9]
	zext r0, 16
	bf r0, .LBB21_225
.LBB21_216:
	.loc	1 1923 0
	ldw r0, dp[uip_buf]
	ldc r1, 16
	ldc r2, 47
	st8 r1, r0[r2]
.LBB21_217:
	.loc	1 1924 0
	ldc r0, 0
	ldaw r1, dp[uip_len]
	ldc r2, 40
	st16 r2, r1[r0]
.LBB21_218:
	.loc	1 1925 0
	ldw r0, dp[uip_buf]
	ldc r1, 46
	ldc r2, 80
	st8 r2, r0[r1]
.LBB21_219:
	ldc r0, 42
	.loc	1 1931 0
	ldw r1, dp[uip_buf]
	add r0, r1, r0
	add r1, r4, 8
	bl xtcp_copy_word
	ldc r0, 38
	.loc	1 1933 0
	ldw r1, dp[uip_buf]
	add r0, r1, r0
	ldaw r1, r4[3]
	bl xtcp_copy_word
	ldc r0, 23
	ldc r1, 6
	.loc	1 1948 0
	ldw r2, dp[uip_buf]
	st8 r1, r2[r0]
	.loc	1 1950 0
	add r0, r4, 4
	.loc	1 1951 0
	ldc r5, 0
	.loc	1 1950 0
	ld16s r0, r0[r5]
	ldc r1, 34
	ldw r2, dp[uip_buf]
	add r1, r2, r1
	st16 r0, r1[r5]
	.loc	1 1951 0
	add r0, r4, 6
	ld16s r0, r0[r5]
	ldw r1, dp[uip_buf]
	ldaw r1, r1[9]
	st16 r0, r1[r5]
	ldc r0, 26
	.loc	1 1953 0
	ldw r1, dp[uip_buf]
	add r0, r1, r0
.Ltmp347:
	.loc	1 332 0
	ldaw r1, dp[uip_hostaddr]
.Ltmp348:
	bl xtcp_copy_word
.Ltmp349:
	ldc r0, 30
.Ltmp350:
	.loc	1 1954 0
	ldw r1, dp[uip_buf]
	add r0, r1, r0
.Ltmp351:
	.loc	1 332 0
	mov r1, r4
	bl xtcp_copy_word
.Ltmp352:
	ldc r0, 25
.Ltmp353:
	.loc	1 1956 0
	ld8u r0, r4[r0]
	ldc r1, 16
	and r1, r0, r1
	.loc	1 1959 0
	ldw r0, dp[uip_buf]
	.loc	1 1956 0
	bf r1, .LBB21_221
.Ltmp354:
	ldc r1, 49
	.loc	1 1959 0
	st8 r5, r0[r1]
	ldc r1, 48
	st8 r5, r0[r1]
	bu .LBB21_222
.LBB21_221:
	ldc r1, 48
	ldc r2, 5
	.loc	1 1961 0
	st8 r2, r0[r1]
	ldc r0, 49
	ldw r1, cp[.LCPI21_0]
	.loc	1 1962 0
	ldw r2, dp[uip_buf]
	st8 r1, r2[r0]
.LBB21_222:
	.loc	1 1965 0
	ldw r0, dp[uip_buf]
	ldc r1, 22
	ldc r2, 64
	st8 r2, r0[r1]
	mkmsk r0, 1
	.loc	1 1972 0
	ldaw r1, dp[uip_len]
	ld8u r0, r1[r0]
	ldc r2, 16
	ldw r3, dp[uip_buf]
	st8 r0, r3[r2]
	.loc	1 1973 0
	ldc r0, 0
	ld8u r1, r1[r0]
	ldc r2, 17
	ldw r3, dp[uip_buf]
	st8 r1, r3[r2]
	ldc r2, 53
	.loc	1 1976 0
	ldw r1, dp[uip_buf]
	st8 r0, r1[r2]
	ldc r2, 52
	st8 r0, r1[r2]
.LBB21_223:
	.loc	1 1987 0
	ldw r0, dp[uip_buf]
	ldc r1, 14
	ldc r2, 69
	st8 r2, r0[r1]
	mkmsk r0, 4
	.loc	1 1995 0
	ldc r4, 0
	.loc	1 1988 0
	ldw r1, dp[uip_buf]
	st8 r4, r1[r0]
	ldc r1, 21
	.loc	1 1989 0
	ldw r0, dp[uip_buf]
	st8 r4, r0[r1]
	ldc r1, 20
	st8 r4, r0[r1]
	.loc	1 1990 0
	ldaw r0, dp[ipid]
	ld16s r1, r0[r4]
	add r1, r1, 1
	st16 r1, r0[r4]
	.loc	1 1991 0
	shr r1, r1, 8
	ldc r2, 18
	ldw r3, dp[uip_buf]
	st8 r1, r3[r2]
	.loc	1 1992 0
	ld8u r0, r0[r4]
	ldc r1, 19
	ldw r2, dp[uip_buf]
	st8 r0, r2[r1]
	.loc	1 1994 0
	ldw r0, dp[uip_buf]
	ldaw r0, r0[6]
	st16 r4, r0[r4]
	.loc	1 1995 0
	ldw r0, dp[uip_buf]
	ldaw r5, r0[6]
	bl uip_ipchksum
	not r0, r0
	st16 r0, r5[r4]
	bu .LBB21_226
.LBB21_224:
	.loc	1 1231 0
	ldc r0, 0
	ldaw r1, dp[c]
	st8 r11, r1[r0]
.LBB21_225:
	.loc	1 2007 0
	ldaw r0, dp[uip_len]
	ldc r1, 0
	st16 r1, r0[r1]
.LBB21_226:
	ldc r0, 0
	.loc	1 2005 0
	stw r0, dp[uip_flags]
	.loc	1 2006 0
	ldw r10, sp[3]
	ldw r9, sp[4]
	ldw r8, sp[5]
	ldw r7, sp[6]
	ldw r6, sp[7]
	ldw r5, sp[8]
	ldw r4, sp[9]
	retsp 10
.Ltmp355:
.Ltmp356:
	.size	uip_process, .Ltmp356-uip_process
.Lfunc_end21:
.Ltmp357:
	.cfi_endproc
.Leh_func_end21:

	.cc_bottom uip_process.function
	.set	uip_process.nstackwords,((uip_ipchksum.nstackwords $M upper_layer_chksum.nstackwords $M uip_add_rcv_nxt.nstackwords $M uip_add32.nstackwords $M xtcp_compare_words.nstackwords $M xtcp_copy_word.nstackwords $M xtcp_increment_word.nstackwords $M xtcpd_appcall.nstackwords) + 10)
	.globl	uip_process.nstackwords
	.set	uip_process.maxcores,uip_add32.maxcores $M uip_add_rcv_nxt.maxcores $M uip_ipchksum.maxcores $M upper_layer_chksum.maxcores $M xtcp_compare_words.maxcores $M xtcp_copy_word.maxcores $M xtcp_increment_word.maxcores $M xtcpd_appcall.maxcores $M 1
	.globl	uip_process.maxcores
	.set	uip_process.maxtimers,uip_add32.maxtimers $M uip_add_rcv_nxt.maxtimers $M uip_ipchksum.maxtimers $M upper_layer_chksum.maxtimers $M xtcp_compare_words.maxtimers $M xtcp_copy_word.maxtimers $M xtcp_increment_word.maxtimers $M xtcpd_appcall.maxtimers $M 0
	.globl	uip_process.maxtimers
	.set	uip_process.maxchanends,uip_add32.maxchanends $M uip_add_rcv_nxt.maxchanends $M uip_ipchksum.maxchanends $M upper_layer_chksum.maxchanends $M xtcp_compare_words.maxchanends $M xtcp_copy_word.maxchanends $M xtcp_increment_word.maxchanends $M xtcpd_appcall.maxchanends $M 0
	.globl	uip_process.maxchanends
	.cc_top uip_udp_new.function
	.globl	uip_udp_new
	.align	2
	.type	uip_udp_new,@function
uip_udp_new:
.Ltmp366:
	.cfi_startproc
.Lfunc_begin22:
	.loc	1 508 0
	entsp 10
.Ltmp367:
	.cfi_def_cfa_offset 40
.Ltmp368:
	.cfi_offset 15, 0
	.loc	1 507 0 prologue_end
.Ltmp369:
	stw r4, sp[9]
.Ltmp370:
	.cfi_offset 4, -4
	stw r5, sp[8]
.Ltmp371:
	.cfi_offset 5, -8
	stw r6, sp[7]
.Ltmp372:
	.cfi_offset 6, -12
	stw r7, sp[6]
.Ltmp373:
	.cfi_offset 7, -16
	stw r8, sp[5]
.Ltmp374:
	.cfi_offset 8, -20
	stw r9, sp[4]
.Ltmp375:
	.cfi_offset 9, -24
	stw r10, sp[3]
.Ltmp376:
	.cfi_offset 10, -28
	stw r1, sp[1]
.Ltmp377:
	stw r0, sp[2]
.Ltmp378:
	.loc	1 513 0
	ldc r4, 0
	ldaw r0, dp[lastport]
	ld16s r8, r0[r4]
	ldc r9, 31999
	ldc r10, 65280
	ldc r0, 10
	ldc r5, 96
	.loc	1 520 0
	ldaw r3, dp[uip_udp_conns]
	bu .LBB22_2
.LBB22_1:
	.loc	1 519 0
	ldaw r1, dp[c]
	st8 r7, r1[r4]
.LBB22_2:
	.loc	1 513 0
	add r8, r8, 1
	mov r1, r8
	zext r1, 16
	.loc	1 515 0
	lsu r1, r9, r1
	bf r1, .LBB22_4
	ldc r8, 4096
.LBB22_4:
	.loc	1 2013 0
.Ltmp379:
	shl r1, r8, 8
.Ltmp380:
	.loc	1 515 0
	and r2, r8, r10
	.loc	1 2013 0
.Ltmp381:
	shr r2, r2, 8
	or r11, r1, r2
	mov r1, r4
	mov r7, r4
	bu .LBB22_7
.Ltmp382:
.LBB22_5:
	.loc	1 520 0
	mul r2, r1, r5
	add r2, r3, r2
	add r2, r2, 4
	ld16s r2, r2[r4]
	zext r2, 16
	mov r6, r11
	zext r6, 16
	eq r2, r2, r6
	bt r2, .LBB22_1
	.loc	1 519 0
	add r7, r7, 1
	add r1, r1, 1
.LBB22_7:
	mov r2, r1
	zext r2, 8
	lsu r2, r2, r0
	bt r2, .LBB22_5
	ldc r9, 0
	.loc	1 513 0
	ldaw r1, dp[lastport]
	st16 r8, r1[r9]
	.loc	1 519 0
	ldaw r1, dp[c]
	st8 r7, r1[r9]
	mov r7, r9
	mov r1, r9
	bu .LBB22_11
.LBB22_9:
	.loc	1 527 0
	mul r8, r7, r5
	add r4, r3, r8
	add r10, r4, 4
	ld16s r2, r10[r9]
	zext r2, 16
	bf r2, .LBB22_13
	.loc	1 526 0
	add r1, r1, 1
	add r7, r7, 1
.LBB22_11:
	mov r2, r7
	zext r2, 8
	lsu r2, r2, r0
	bt r2, .LBB22_9
	ldc r0, 0
	.loc	1 519 0
	ldaw r2, dp[c]
	.loc	1 526 0
	st8 r1, r2[r0]
	bu .LBB22_18
.LBB22_13:
	ldc r0, 0
	.loc	1 519 0
	ldaw r2, dp[c]
	.loc	1 526 0
	st8 r1, r2[r0]
.Ltmp383:
	ldw r1, sp[2]
.Ltmp384:
	.loc	1 533 0
	bf r4, .LBB22_18
.Ltmp385:
	.loc	1 538 0
	ldc r5, 0
	.loc	1 537 0
	st16 r11, r10[r5]
	.loc	1 538 0
	add r6, r3, r8
	add r0, r6, 6
	ldw r2, sp[1]
	st16 r2, r0[r5]
	.loc	1 540 0
	bt r1, .LBB22_16
.Ltmp386:
	.loc	1 541 0
	stw r5, r4[0]
	bu .LBB22_17
.LBB22_16:
.Ltmp387:
	.loc	1 332 0
	mov r0, r4
	bl xtcp_copy_word
.Ltmp388:
.LBB22_17:
	ldc r0, 8
	ldc r1, 64
	.loc	1 545 0
	st8 r1, r6[r0]
	ldc r0, 9
	.loc	1 546 0
	st8 r5, r6[r0]
	mov r0, r4
.Ltmp389:
.LBB22_18:
	.loc	1 534 0
	ldw r10, sp[3]
	ldw r9, sp[4]
	ldw r8, sp[5]
	ldw r7, sp[6]
	ldw r6, sp[7]
	ldw r5, sp[8]
	ldw r4, sp[9]
	retsp 10
.Ltmp390:
.Ltmp391:
	.size	uip_udp_new, .Ltmp391-uip_udp_new
.Lfunc_end22:
.Ltmp392:
	.cfi_endproc
.Leh_func_end22:

	.cc_bottom uip_udp_new.function
	.set	uip_udp_new.nstackwords,(xtcp_copy_word.nstackwords + 10)
	.globl	uip_udp_new.nstackwords
	.set	uip_udp_new.maxcores,xtcp_copy_word.maxcores $M 1
	.globl	uip_udp_new.maxcores
	.set	uip_udp_new.maxtimers,xtcp_copy_word.maxtimers $M 0
	.globl	uip_udp_new.maxtimers
	.set	uip_udp_new.maxchanends,xtcp_copy_word.maxchanends $M 0
	.globl	uip_udp_new.maxchanends
	.cc_top uip_init.function
	.globl	uip_init
	.align	2
	.type	uip_init,@function
uip_init:
.Ltmp396:
	.cfi_startproc
.Lfunc_begin23:
	.loc	1 423 0
	entsp 3
.Ltmp397:
	.cfi_def_cfa_offset 12
.Ltmp398:
	.cfi_offset 15, 0
	.loc	1 424 0 prologue_end
.Ltmp399:
	stw r4, sp[2]
.Ltmp400:
	.cfi_offset 4, -4
	stw r5, sp[1]
.Ltmp401:
	.cfi_offset 5, -8
	ldaw r0, dp[uip_listenports]
	.loc	1 428 0
	ldc r4, 0
	ldc r5, 20
	.loc	1 424 0
	mov r1, r4
	mov r2, r5
	bl memset
	.loc	1 425 0
	ldaw r0, dp[uip_udp_listenports]
	mov r1, r4
	mov r2, r5
	bl memset
	.loc	1 426 0
	ldaw r0, dp[uip_conns]
	ldc r2, 1120
	mov r1, r4
	bl memset
	.loc	1 428 0
	ldaw r0, dp[lastport]
	ldc r1, 1024
	st16 r1, r0[r4]
	.loc	1 432 0
	ldaw r0, dp[uip_udp_conns]
	ldc r2, 960
	mov r1, r4
	bl memset
	.loc	1 434 0
	ldw r5, sp[1]
	ldw r4, sp[2]
	retsp 3
.Ltmp402:
.Ltmp403:
	.size	uip_init, .Ltmp403-uip_init
.Lfunc_end23:
.Ltmp404:
	.cfi_endproc
.Leh_func_end23:

	.cc_bottom uip_init.function
	.set	uip_init.nstackwords,(memset.nstackwords + 3)
	.globl	uip_init.nstackwords
	.set	uip_init.maxcores,1
	.globl	uip_init.maxcores
	.set	uip_init.maxtimers,0
	.globl	uip_init.maxtimers
	.set	uip_init.maxchanends,0
	.globl	uip_init.maxchanends
	.section	.dp.bss,"awd",@nobits
	.cc_top uip_ethaddr.data
	.globl	uip_ethaddr
	.align	4
	.type	uip_ethaddr,@object
	.size uip_ethaddr,6
uip_ethaddr:
	.space	6
	.cc_bottom uip_ethaddr.data
	.cc_top ipid.data
	.align	4
	.type	ipid,@object
	.size ipid,2
ipid:
	.short	0
	.space	2
	.cc_bottom ipid.data
	.cc_top c.data
	.align	4
	.type	c,@object
	.size c,1
c:
	.byte	0
	.space	3
	.cc_bottom c.data
	.cc_top uip_listenports.data
	.globl	uip_listenports.globound
	.set	uip_listenports.globound,10
	.globl	uip_listenports
	.align	4
	.type	uip_listenports,@object
	.size uip_listenports,20
uip_listenports:
	.space	20
	.cc_bottom uip_listenports.data
	.cc_top uip_udp_listenports.data
	.globl	uip_udp_listenports.globound
	.set	uip_udp_listenports.globound,10
	.globl	uip_udp_listenports
	.align	4
	.type	uip_udp_listenports,@object
	.size uip_udp_listenports,20
uip_udp_listenports:
	.space	20
	.cc_bottom uip_udp_listenports.data
	.cc_top lastport.data
	.align	4
	.type	lastport,@object
	.size lastport,2
lastport:
	.short	0
	.space	2
	.cc_bottom lastport.data
	.cc_top uip_conns.data
	.globl	uip_conns.globound
	.set	uip_conns.globound,10
	.globl	uip_conns
	.align	4
	.type	uip_conns,@object
	.size uip_conns,1120
uip_conns:
	.space	1120
	.cc_bottom uip_conns.data
	.cc_top iss.data
	.align	4
	.type	iss,@object
	.size iss,4
iss:
	.space	4
	.cc_bottom iss.data
	.cc_top uip_slen.data
	.globl	uip_slen
	.align	4
	.type	uip_slen,@object
	.size uip_slen,2
uip_slen:
	.short	0
	.space	2
	.cc_bottom uip_slen.data
	.cc_top uip_sappdata.data
	.globl	uip_sappdata
	.align	4
	.type	uip_sappdata,@object
	.size uip_sappdata,4
uip_sappdata:
	.long	0
	.cc_bottom uip_sappdata.data
	.cc_top uip_acc32.data
	.globl	uip_acc32.globound
	.set	uip_acc32.globound,4
	.globl	uip_acc32
	.align	4
	.type	uip_acc32,@object
	.size uip_acc32,4
uip_acc32:
	.space	4
	.cc_bottom uip_acc32.data
	.cc_top uip_conn.data
	.globl	uip_conn
	.align	4
	.type	uip_conn,@object
	.size uip_conn,4
uip_conn:
	.long	0
	.cc_bottom uip_conn.data
	.cc_top uip_appdata.data
	.globl	uip_appdata
	.align	4
	.type	uip_appdata,@object
	.size uip_appdata,4
uip_appdata:
	.long	0
	.cc_bottom uip_appdata.data
	.cc_top uip_flags.data
	.globl	uip_flags
	.align	4
	.type	uip_flags,@object
	.size uip_flags,4
uip_flags:
	.long	0
	.cc_bottom uip_flags.data
	.cc_top uip_len.data
	.globl	uip_len
	.align	4
	.type	uip_len,@object
	.size uip_len,2
uip_len:
	.short	0
	.space	2
	.cc_bottom uip_len.data
	.cc_top uip_udp_conn.data
	.globl	uip_udp_conn
	.align	4
	.type	uip_udp_conn,@object
	.size uip_udp_conn,4
uip_udp_conn:
	.long	0
	.cc_bottom uip_udp_conn.data
	.cc_top uip_hostaddr.data
	.globl	uip_hostaddr.globound
	.set	uip_hostaddr.globound,2
	.globl	uip_hostaddr
	.align	4
	.type	uip_hostaddr,@object
	.size uip_hostaddr,4
uip_hostaddr:
	.space	4
	.cc_bottom uip_hostaddr.data
	.section	.dp.rodata,"awd",@progbits
	.cc_top all_zeroes_addr.data
	.align	4
	.type	all_zeroes_addr,@object
	.size all_zeroes_addr,4
all_zeroes_addr:
	.space	4
	.cc_bottom all_zeroes_addr.data
	.cc_top all_ones_addr.data
	.align	4
	.type	all_ones_addr,@object
	.size all_ones_addr,4
all_ones_addr:
	.space	4,255
	.cc_bottom all_ones_addr.data
	.section	.dp.bss,"awd",@nobits
	.cc_top uip_udp_conns.data
	.globl	uip_udp_conns.globound
	.set	uip_udp_conns.globound,10
	.globl	uip_udp_conns
	.align	4
	.type	uip_udp_conns,@object
	.size uip_udp_conns,960
uip_udp_conns:
	.space	960
	.cc_bottom uip_udp_conns.data
	.cc_top tmp16.data
	.align	4
	.type	tmp16,@object
	.size tmp16,2
tmp16:
	.short	0
	.space	2
	.cc_bottom tmp16.data
	.cc_top opt.data
	.align	4
	.type	opt,@object
	.size opt,1
opt:
	.byte	0
	.space	3
	.cc_bottom opt.data
	.cc_top uip_netmask.data
	.globl	uip_netmask.globound
	.set	uip_netmask.globound,2
	.globl	uip_netmask
	.align	4
	.type	uip_netmask,@object
	.size uip_netmask,4
uip_netmask:
	.space	4
	.cc_bottom uip_netmask.data
	.cc_top uip_draddr.data
	.globl	uip_draddr.globound
	.set	uip_draddr.globound,2
	.globl	uip_draddr
	.align	4
	.type	uip_draddr,@object
	.size uip_draddr,4
uip_draddr:
	.space	4
	.cc_bottom uip_draddr.data
	.cfi_sections .debug_frame
	.text
.Ltext_end:
	.section	.dp.data,"awd",@progbits
.Ldata_end:
	.text
.Lsection_end1: