	.file	"/home/vdelacruz/Documents/Ethernet sin mii/module_xtcp/src/xtcp_uip/uip_single_server.xc"

	.inline_definition delay_seconds
	.inline_definition delay_milliseconds
	.inline_definition delay_microseconds
	.inline_definition xtcp_complete_send
	.set uip_single_server.savedstate,13
	.globl uip_single_server.savedstate
	.set usage.anon.0,0
	.set usage.anon.1,0
	.set usage.anon.2,0
	.set usage.anon.3,0
	.set usage.anon.4,0
	.set usage.anon.5,0
	.set usage.anon.6,0
	.set usage.anon.7,0
	.set usage.anon.8,0
	.set usage.anon.9,0
	.globread usage.anon.6,uip_len,"/home/vdelacruz/Documents/Ethernet sin mii/module_xtcp/src/xtcp_uip/uip_single_server.xc:209: error: previously used here"
	.globread xcoredev_send,uip_len,"/home/vdelacruz/Documents/Ethernet sin mii/module_xtcp/src/xtcp_uip/uip_single_server.xc:121: error: previously used here"
	.globwrite usage.anon.6,usage.anon.7,"/home/vdelacruz/Documents/Ethernet sin mii/module_xtcp/src/xtcp_uip/uip_single_server.xc:197: error: previously used here"
	.globwrite usage.anon.6,uip_buf32,"/home/vdelacruz/Documents/Ethernet sin mii/module_xtcp/src/xtcp_uip/uip_single_server.xc:225: error: previously used here"
	.globwrite xcoredev_send,usage.anon.5,"/home/vdelacruz/Documents/Ethernet sin mii/module_xtcp/src/xtcp_uip/uip_single_server.xc:132: error: previously used here"
	.globwrite xcoredev_send,usage.anon.4,"/home/vdelacruz/Documents/Ethernet sin mii/module_xtcp/src/xtcp_uip/uip_single_server.xc:130: error: previously used here"
	.globwrite xcoredev_send,uip_buf32,"/home/vdelacruz/Documents/Ethernet sin mii/module_xtcp/src/xtcp_uip/uip_single_server.xc:126: error: previously used here"
	.call uip_single_server,usage.anon.9
	.call uip_single_server,usage.anon.6
	.call uip_single_server,smi_init
	.call uip_single_server,mii_initialise
	.call uip_single_server,eth_phy_config
	.call usage.anon.9,usage.anon.8
	.call usage.anon.9,mii_driver
	.call usage.anon.6,xtcpd_service_clients
	.call usage.anon.6,xtcpd_check_connection_poll
	.call usage.anon.6,xtcp_tx_buffer
	.call usage.anon.6,xtcp_process_udp_acks
	.call usage.anon.6,xtcp_process_periodic_timer
	.call usage.anon.6,xtcp_process_incoming_packet
	.call usage.anon.6,uip_xtcp_checkstate
	.call usage.anon.6,uip_server_init
	.call usage.anon.6,uip_linkup
	.call usage.anon.6,uip_linkdown
	.call usage.anon.6,uip_arp_timer
	.call usage.anon.6,smi_check_link_state
	.call usage.anon.6,mii_restart_buffer
	.call usage.anon.6,mii_out_init
	.call usage.anon.6,mii_get_in_buffer
	.call usage.anon.6,mii_free_in_buffer
	.call usage.anon.6,mii_buffer_init
	.call usage.anon.6,copy_packet
	.call usage.anon.6,autoip_periodic
	.call xcoredev_send,mii_out_packet_done
	.call xcoredev_send,mii_out_packet
	.call usage.anon.3,xtcp_send
	.call usage.anon.2,delay_ticks_longlong
	.call usage.anon.1,delay_ticks_longlong
	.call usage.anon.0,delay_ticks_longlong
	.par usage.anon.9,usage.anon.6,"/home/vdelacruz/Documents/Ethernet sin mii/module_xtcp/src/xtcp_uip/uip_single_server.xc:263: error: use of `%s' violates parallel usage rules"
	.set usage.anon.9.locnoside, 1
	.set usage.anon.0.locnoside, 1
	.set usage.anon.1.locnoside, 1
	.set usage.anon.2.locnoside, 1
	.set usage.anon.9.locnochandec, 1
	.set usage.anon.0.locnochandec, 1
	.set usage.anon.1.locnochandec, 1
	.set usage.anon.2.locnochandec, 1
	.set usage.anon.3.locnochandec, 1
	.set xcoredev_send.locnochandec, 1
	.set copy_packet.locnochandec, 1
	.set usage.anon.6.locnochandec, 1
	.set usage.anon.8.locnochandec, 1
	.set usage.anon.9.locnoglobalaccess, 1
	.set usage.anon.0.locnoglobalaccess, 1
	.set usage.anon.1.locnoglobalaccess, 1
	.set usage.anon.2.locnoglobalaccess, 1
	.set usage.anon.3.locnoglobalaccess, 1
	.set copy_packet.locnoglobalaccess, 1
	.set usage.anon.8.locnoglobalaccess, 1
	.set uip_single_server.locnoglobalaccess, 1
	.set usage.anon.9.locnointerfaceaccess, 1
	.set usage.anon.0.locnointerfaceaccess, 1
	.set usage.anon.1.locnointerfaceaccess, 1
	.set usage.anon.2.locnointerfaceaccess, 1
	.set usage.anon.3.locnointerfaceaccess, 1
	.set xcoredev_send.locnointerfaceaccess, 1
	.set copy_packet.locnointerfaceaccess, 1
	.set usage.anon.6.locnointerfaceaccess, 1
	.set usage.anon.8.locnointerfaceaccess, 1
	.set uip_single_server.locnointerfaceaccess, 1
	.set usage.anon.9.locnonotificationselect, 1
	.set usage.anon.0.locnonotificationselect, 1
	.set usage.anon.1.locnonotificationselect, 1
	.set usage.anon.2.locnonotificationselect, 1
	.set usage.anon.3.locnonotificationselect, 1
	.set xcoredev_send.locnonotificationselect, 1
	.set copy_packet.locnonotificationselect, 1
	.set usage.anon.6.locnonotificationselect, 1
	.set usage.anon.8.locnonotificationselect, 1
	.set uip_single_server.locnonotificationselect, 1
	.globpassesref copy_packet, uip_buf32,"/home/vdelacruz/Documents/Ethernet sin mii/module_xtcp/src/xtcp_uip/uip_single_server.xc:225: error: call to `copy_packet' in `theServer' makes alias of global 'uip_buf32'"
	.overlay_subgraph_conflict uip_single_server.task.mii_driver.0, uip_single_server.task.theServer.1


	.file	1 "/home/vdelacruz/Documents/Ethernet sin mii/module_xtcp/src/xtcp_uip/uip_single_server.xc"
	.file	2 "/home/vdelacruz/Documents/Ethernet sin mii/app_simple_webserver/.build_IPV4/timer.h"
	.file	3 "/home/vdelacruz/Documents/Ethernet sin mii/app_simple_webserver/.build_IPV4/xtcp_client.h"
	.text
.Ltext_begin:
	.section	.dp.data,"awd",@progbits
	.text
	.cc_top uip_single_server.function
	.globl	uip_single_server
	.align	4
	.type	uip_single_server,@function
uip_single_server:
.Ltmp2:
	.cfi_startproc
.Lfunc_begin0:
	.loc	1 255 0
.Lxtalabel0:
	entsp 15
.Ltmp3:
	.cfi_def_cfa_offset 60
.Ltmp4:
	.cfi_offset 15, 0
	.loc	1 250 0 prologue_end
.Ltmp5:
	stw r4, sp[14]
.Ltmp6:
	.cfi_offset 4, -4
	mov r4, r1
	stw r4, sp[1]
	stw r2, sp[2]
	stw r3, sp[3]
	ldw r1, sp[19]
	stw r1, sp[4]
	ldw r1, sp[16]
	stw r1, sp[5]
	ldw r1, sp[17]
	stw r1, sp[6]
	ldw r1, sp[18]
	stw r1, sp[7]
	.loc	1 256 0
.Ltmp7:
	getr r3, 2
	getr r1, 2
	setd res[r3], r1
	setd res[r1], r3
	stw r3, sp[8]
	stw r1, sp[9]
	getr r3, 2
	getr r1, 2
	setd res[r3], r1
	setd res[r1], r3
	stw r3, sp[10]
	stw r1, sp[11]
	.loc	1 257 0
.Ltmp8:
	getr r3, 2
	getr r1, 2
	setd res[r3], r1
	setd res[r1], r3
	stw r3, sp[12]
	stw r1, sp[13]
	.loc	1 258 0
	mov r1, r2
.Lxta.call_labels0:
	bl mii_initialise
.Ltmp9:
	.loc	1 260 0
	mov r0, r4
.Lxta.call_labels1:
	bl smi_init
	mkmsk r0, 1
	.loc	1 261 0
	mov r1, r4
.Lxta.call_labels2:
	bl eth_phy_config
	ldaw r0, sp[1]
	.loc	1 261 0
	ldaw r1, dp[par.desc.1]
	bl __start_other_cores
.Ltmp10:
.Ltmp11:
	.size	uip_single_server, .Ltmp11-uip_single_server
.Lfunc_end0:
.Ltmp12:
	.cfi_endproc
.Leh_func_end0:

	.align	4
	.cc_bottom uip_single_server.function
	.set	uip_single_server.nstackwords,((mii_initialise.nstackwords $M smi_init.nstackwords $M eth_phy_config.nstackwords $M (par.extra_stackwords + 1 + uip_single_server.task.mii_driver.0.nstackwords + 1 + uip_single_server.task.theServer.1.nstackwords)) + 15)
	.globl	uip_single_server.nstackwords
	.set	uip_single_server.maxcores,(0 + uip_single_server.task.mii_driver.0.maxcores + uip_single_server.task.theServer.1.maxcores) $M eth_phy_config.maxcores $M mii_initialise.maxcores $M smi_init.maxcores $M 1
	.globl	uip_single_server.maxcores
	.set	uip_single_server.maxtimers,(1 + uip_single_server.task.mii_driver.0.maxtimers + uip_single_server.task.theServer.1.maxtimers) $M eth_phy_config.maxtimers $M mii_initialise.maxtimers $M smi_init.maxtimers $M 0
	.globl	uip_single_server.maxtimers
	.set	uip_single_server.maxchanends,(6 + (0 + uip_single_server.task.mii_driver.0.maxchanends + uip_single_server.task.theServer.1.maxchanends)) $M (6 + eth_phy_config.maxchanends) $M (6 + mii_initialise.maxchanends) $M (6 + smi_init.maxchanends) $M 6
	.globl	uip_single_server.maxchanends
	.cc_top xcoredev_send.function
	.globl	xcoredev_send
	.align	4
	.type	xcoredev_send,@function
xcoredev_send:
.Ltmp19:
	.cfi_startproc
.Lfunc_begin1:
	.loc	1 79 0
.Lxtalabel1:
	entsp 7
.Ltmp20:
	.cfi_def_cfa_offset 28
.Ltmp21:
	.cfi_offset 15, 0
	.loc	1 78 0 prologue_end
.Ltmp22:
	stw r4, sp[6]
.Ltmp23:
	.cfi_offset 4, -4
	stw r5, sp[5]
.Ltmp24:
	.cfi_offset 5, -8
	stw r6, sp[4]
.Ltmp25:
	.cfi_offset 6, -12
	stw r7, sp[3]
.Ltmp26:
	.cfi_offset 7, -16
	stw r8, sp[2]
.Ltmp27:
	.cfi_offset 8, -20
	mov r5, r0
.Ltmp28:
	ldc r4, 0
	.loc	1 121 0
.Ltmp29:
	ldaw r0, dp[uip_len]
	ld16s r6, r0[r4]
	ldaw r7, dp[tx_buf_in_use.static.b]
	ld8u r0, r7[r4]
	.loc	1 122 0
	eq r0, r0, 1
	bf r0, .LBB1_2
.Lxtalabel2:
	.loc	1 123 0
	mov r0, r5
.Lxta.call_labels3:
	bl mii_out_packet_done
.LBB1_2:
.Lxtalabel3:
	.loc	1 121 0
	zext r6, 16
	ldc r0, 59
	.loc	1 124 0
	lsu r0, r0, r6
	bt r0, .LBB1_6
	.loc	1 126 0
.Ltmp30:
	add r1, r6, 1
	ldc r8, 60
	lsu r0, r8, r1
	bt r0, .LBB1_5
	mov r1, r8
.LBB1_5:
	ldaw r0, dp[uip_buf32]
	add r0, r0, r6
	sub r2, r1, r6
	ldc r1, 0
	bl memset
	mkmsk r0, 4
	bu .LBB1_7
.Ltmp31:
.LBB1_6:
.Lxtalabel4:
	.loc	1 129 0
	add r0, r6, 3
	shr r0, r0, 2
.Ltmp32:
	mov r8, r6
	.loc	1 130 0
.Ltmp33:
	bf r0, .LBB1_11
.Ltmp34:
.LBB1_7:
	mkmsk r1, 1
	lsu r1, r1, r0
	bf r1, .LBB1_9
	shl r2, r0, 2
	bu .LBB1_10
.LBB1_9:
	ldc r2, 4
.LBB1_10:
	ldaw r0, dp[txbuf.static]
	ldaw r1, dp[uip_buf32]
	bl __memcpy_4
	mov r6, r8
.Ltmp35:
.LBB1_11:
.Lxtalabel5:
	ldc r0, 380
	.loc	1 131 0
	stw r0, sp[1]
	ldaw r1, dp[txbuf.static]
	mov r0, r5
	mov r2, r4
	mov r3, r6
.Lxta.call_labels4:
	bl mii_out_packet
	mkmsk r0, 1
	st8 r0, r7[r4]
	ldw r8, sp[2]
	ldw r7, sp[3]
	ldw r6, sp[4]
	ldw r5, sp[5]
.Ltmp36:
	ldw r4, sp[6]
	retsp 7
.Ltmp37:
.Ltmp38:
	.size	xcoredev_send, .Ltmp38-xcoredev_send
.Lfunc_end1:
.Ltmp39:
	.cfi_endproc
.Leh_func_end1:

	.align	4
	.cc_bottom xcoredev_send.function
	.set	xcoredev_send.nstackwords,((mii_out_packet_done.nstackwords $M memset.nstackwords $M __memcpy_4.nstackwords $M mii_out_packet.nstackwords) + 7)
	.globl	xcoredev_send.nstackwords
	.set	xcoredev_send.maxcores,mii_out_packet.maxcores $M mii_out_packet_done.maxcores $M 1
	.globl	xcoredev_send.maxcores
	.set	xcoredev_send.maxtimers,mii_out_packet.maxtimers $M mii_out_packet_done.maxtimers $M 0
	.globl	xcoredev_send.maxtimers
	.set	xcoredev_send.maxchanends,mii_out_packet.maxchanends $M mii_out_packet_done.maxchanends $M 0
	.globl	xcoredev_send.maxchanends
	.cc_top copy_packet.function
	.globl	copy_packet
	.align	4
	.type	copy_packet,@function
copy_packet:
.Ltmp40:
	.cfi_startproc
.Lfunc_begin2:
	.loc	1 138 0
.Lxtalabel6:
	.loc	1 139 0 prologue_end
	add r2, r2, 3
.Ltmp41:
	shr r2, r2, 2
.Ltmp42:
	.loc	1 141 0
	bf r2, .LBB2_3
.Ltmp43:
	ldc r3, 0
.LBB2_2:
.Lxtalabel7:
.Ltmp44:
	.loc	1 143 0
	#APP
	ldw r11, r1[r3]
	#NO_APP
.Ltmp45:
	.loc	1 144 0
	#APP
	stw r11, r0[r3]
	#NO_APP
	.loc	1 141 0
	add r3, r3, 1
	lsu r11, r3, r2
.Ltmp46:
.Lxta.loop_labels0:
	# LOOPMARKER 0
	bt r11, .LBB2_2
.Ltmp47:
.LBB2_3:
.Lxtalabel8:
	retsp 0
.Ltmp48:
	.size	copy_packet, .Ltmp48-copy_packet
.Lfunc_end2:
.Ltmp49:
	.cfi_endproc
.Leh_func_end2:

	.align	4
	.cc_bottom copy_packet.function
	.set	copy_packet.nstackwords,0
	.globl	copy_packet.nstackwords
	.set	copy_packet.maxcores,1
	.globl	copy_packet.maxcores
	.set	copy_packet.maxtimers,0
	.globl	copy_packet.maxtimers
	.set	copy_packet.maxchanends,0
	.globl	copy_packet.maxchanends
	.cc_top theServer.function
	.section	.cp.rodata.cst4,"aMc",@progbits,4
	.cc_top .LCPI3_0.data
	.align	4
.LCPI3_0:
	.long	10000000
	.cc_bottom .LCPI3_0.data
	.text
	.align	4
	.type	theServer,@function
theServer:
.Ltmp58:
	.cfi_startproc
.Lfunc_begin3:
	.loc	1 151 0
.Lxtalabel9:
	entsp 3364
.Ltmp59:
	.cfi_def_cfa_offset 13456
.Ltmp60:
	.cfi_offset 15, 0
	.loc	1 148 0 prologue_end
.Ltmp61:
	stw r4, sp[3363]
.Ltmp62:
	.cfi_offset 4, -4
	stw r5, sp[3362]
.Ltmp63:
	.cfi_offset 5, -8
	stw r6, sp[3361]
.Ltmp64:
	.cfi_offset 6, -12
	stw r7, sp[3360]
.Ltmp65:
	.cfi_offset 7, -16
	stw r8, sp[3359]
.Ltmp66:
	.cfi_offset 8, -20
	stw r9, sp[3358]
.Ltmp67:
	.cfi_offset 9, -24
	stw r10, sp[3357]
.Ltmp68:
	.cfi_offset 10, -28
	stw r3, sp[3]
.Ltmp69:
	mov r5, r2
.Ltmp70:
	mov r6, r1
.Ltmp71:
	mov r4, r0
.Ltmp72:
	ldw r0, sp[3369]
	.loc	1 168 0
.Ltmp73:
	stw r0, sp[1]
	ldw r0, sp[3365]
	ldw r1, sp[3366]
	ldw r2, sp[3367]
	ldw r3, sp[3368]
.Ltmp74:
.Lxta.call_labels5:
	bl uip_server_init
	ldc r0, 3200
	.loc	1 170 0
	stw r0, sp[2]
	stw r0, sp[1]
	ldaw r10, sp[3208]
	ldaw r3, sp[8]
	mov r0, r10
	mov r1, r4
.Ltmp75:
	mov r2, r5
.Lxta.call_labels6:
	bl mii_buffer_init
.Ltmp76:
	.loc	1 173 0
	ldaw r0, dp[__timers]
	get r11, id
	ldw r7, r0[r11]
	.loc	1 171 0
	mov r0, r6
.Lxta.call_labels7:
	bl mii_out_init
	.loc	1 173 0
	setc res[r7], 1
	.loc	1 173 0
.Lxta.endpoint_labels0:
	in r0, res[r7]
.Ltmp77:
	stw r0, sp[7]
	ldap r11, .Ltmp78
	.loc	1 183 0
	setv res[r5], r11
	ldc r0, 65
	.loc	1 219 0
	add r0, r10, r0
	stw r0, sp[6]
	ldc r0, 0
	ldc r9, 1526
	.loc	1 144 0
.Ltmp79:
	ldaw r8, dp[uip_buf32]
	stw r0, sp[4]
	stw r0, sp[5]
	bu .LBB3_1
.Ltmp80:
.LBB3_4:
.Lxtalabel10:
	bt r4, .LBB3_6
.Lxtalabel11:
	.loc	1 192 0
.Ltmp81:
.Lxta.call_labels8:
	bl uip_linkdown
	.loc	1 194 0
	ldw r0, dp[linkstate.static]
.LBB3_6:
.Lxtalabel12:
.Ltmp82:
	bf r4, .LBB3_9
.Ltmp83:
.Lxtalabel13:
	bt r0, .LBB3_9
.Lxtalabel14:
	.loc	1 195 0
.Lxta.call_labels9:
	bl uip_linkup
.Ltmp84:
.LBB3_9:
.Lxtalabel15:
	ldw r1, sp[5]
	.loc	1 200 0
	add r1, r1, 1
	ldc r0, 100
	eq r0, r1, r0
	.loc	1 197 0
.Ltmp85:
	stw r4, dp[linkstate.static]
.Ltmp86:
	.loc	1 200 0
	bf r0, .LBB3_11
.Ltmp87:
.Lxtalabel16:
	.loc	1 202 0
.Lxta.call_labels10:
	bl uip_arp_timer
	ldc r1, 0
.LBB3_11:
.Lxtalabel17:
	stw r1, sp[5]
	ldw r1, sp[4]
	.loc	1 206 0
	add r1, r1, 1
	eq r0, r1, 5
	bf r0, .LBB3_13
.Lxtalabel18:
	.loc	1 208 0
.Lxta.call_labels11:
	bl autoip_periodic
	.loc	1 209 0
	ldc r1, 0
	ldaw r0, dp[uip_len]
	ld16s r0, r0[r1]
	zext r0, 16
	bf r0, .LBB3_13
.Lxtalabel19:
	.loc	1 210 0
	mov r0, r6
.Lxta.call_labels12:
	bl xtcp_tx_buffer
	ldc r1, 0
.LBB3_13:
.Lxtalabel20:
	stw r1, sp[4]
	.loc	1 215 0
	mov r0, r6
.Lxta.call_labels13:
	bl xtcp_process_periodic_timer
.LBB3_1:
	.loc	1 174 0
	ldw r0, sp[7]
	ldw r1, cp[.LCPI3_0]
	add r0, r0, r1
	stw r0, sp[7]
.Ltmp88:
.LBB3_2:
.Lxtalabel21:
	ldw r0, sp[3365]
	ldw r1, sp[3366]
	ldw r2, sp[3369]
	.loc	1 178 0
.Lxta.call_labels14:
	bl xtcpd_service_clients
	.loc	1 179 0
	mov r0, r6
.Lxta.call_labels15:
	bl xtcpd_check_connection_poll
	.loc	1 180 0
.Lxta.call_labels16:
	bl uip_xtcp_checkstate
	.loc	1 181 0
	mov r0, r6
.Lxta.call_labels17:
	bl xtcp_process_udp_acks
	.loc	1 183 0
	clre
	ldw r0, sp[7]
	setd res[r7], r0
	setc res[r7], 9
	ldap r11, .Ltmp89
	setv res[r7], r11
	eeu res[r7]
	eeu res[r5]
	.loc	1 235 0
	setsr 1
	clrsr 1
	bu .Ltmp88
.Ltmp89:
.LBB3_3:
.Lxtalabel22:
	.loc	1 184 0
.Ltmp90:
.Lxta.endpoint_labels1:
	in r0, res[r7]
.Ltmp91:
	.loc	1 190 0
	ldw r0, sp[3]
.Lxta.call_labels18:
	bl smi_check_link_state
	mov r4, r0
.Ltmp92:
	.loc	1 191 0
	ldw r0, dp[linkstate.static]
	bf r0, .LBB3_6
	bu .LBB3_4
.Ltmp93:
.Ltmp78:
.LBB3_15:
.Lxtalabel23:
	.loc	1 219 0
.Lxta.endpoint_labels2:
	int r0, res[r5]
	.loc	1 219 0
	ldw r1, sp[6]
	ldc r2, 0
	st8 r0, r1[r2]
.LBB3_16:
.Lxtalabel24:
	.loc	1 221 0
	mov r0, r10
.Lxta.call_labels19:
	bl mii_get_in_buffer
	mov r4, r0
	.loc	1 222 0
	bf r4, .LBB3_2
.Lxtalabel25:
	.loc	1 224 0
.Ltmp94:
	lss r0, r9, r1
	bt r0, .LBB3_22
.Lxtalabel26:
	.loc	1 139 0
.Ltmp95:
	add r0, r1, 3
	shr r0, r0, 2
.Ltmp96:
	.loc	1 141 0
	bf r0, .LBB3_21
.Ltmp97:
	ldc r2, 0
.LBB3_20:
.Lxtalabel27:
	.loc	1 143 0
	#APP
	ldw r3, r4[r2]
	#NO_APP
.Ltmp98:
	.loc	1 144 0
	#APP
	stw r3, r8[r2]
	#NO_APP
	.loc	1 141 0
	add r2, r2, 1
	lsu r3, r2, r0
.Ltmp99:
.Lxta.loop_labels1:
	# LOOPMARKER 0
	bt r3, .LBB3_20
.Ltmp100:
.LBB3_21:
.Lxtalabel28:
	.loc	1 226 0
	mov r0, r6
.Lxta.call_labels20:
	bl xtcp_process_incoming_packet
.LBB3_22:
.Lxtalabel29:
.Ltmp101:
	.loc	1 228 0
	mov r0, r10
	mov r1, r4
.Lxta.call_labels21:
	bl mii_free_in_buffer
	.loc	1 229 0
	mov r0, r10
.Lxta.call_labels22:
	bl mii_restart_buffer
	bu .LBB3_16
.Ltmp102:
.Ltmp103:
	.size	theServer, .Ltmp103-theServer
.Lfunc_end3:
.Ltmp104:
	.cfi_endproc
.Leh_func_end3:

	.align	4
	.cc_bottom theServer.function
	.set	theServer.nstackwords,((uip_server_init.nstackwords $M mii_buffer_init.nstackwords $M mii_out_init.nstackwords $M xtcpd_service_clients.nstackwords $M xtcpd_check_connection_poll.nstackwords $M uip_xtcp_checkstate.nstackwords $M xtcp_process_udp_acks.nstackwords $M mii_get_in_buffer.nstackwords $M xtcp_process_incoming_packet.nstackwords $M mii_free_in_buffer.nstackwords $M mii_restart_buffer.nstackwords $M smi_check_link_state.nstackwords $M uip_linkup.nstackwords $M uip_arp_timer.nstackwords $M autoip_periodic.nstackwords $M xtcp_process_periodic_timer.nstackwords $M xtcp_tx_buffer.nstackwords $M uip_linkdown.nstackwords) + 3364)
	.set	theServer.maxcores,autoip_periodic.maxcores $M mii_buffer_init.maxcores $M mii_free_in_buffer.maxcores $M mii_get_in_buffer.maxcores $M mii_out_init.maxcores $M mii_restart_buffer.maxcores $M smi_check_link_state.maxcores $M uip_arp_timer.maxcores $M uip_linkdown.maxcores $M uip_linkup.maxcores $M uip_server_init.maxcores $M uip_xtcp_checkstate.maxcores $M xtcp_process_incoming_packet.maxcores $M xtcp_process_periodic_timer.maxcores $M xtcp_process_udp_acks.maxcores $M xtcp_tx_buffer.maxcores $M xtcpd_check_connection_poll.maxcores $M xtcpd_service_clients.maxcores $M 1
	.set	theServer.maxtimers,autoip_periodic.maxtimers $M mii_buffer_init.maxtimers $M mii_free_in_buffer.maxtimers $M mii_get_in_buffer.maxtimers $M mii_out_init.maxtimers $M mii_restart_buffer.maxtimers $M smi_check_link_state.maxtimers $M uip_arp_timer.maxtimers $M uip_linkdown.maxtimers $M uip_linkup.maxtimers $M uip_server_init.maxtimers $M uip_xtcp_checkstate.maxtimers $M xtcp_process_incoming_packet.maxtimers $M xtcp_process_periodic_timer.maxtimers $M xtcp_process_udp_acks.maxtimers $M xtcp_tx_buffer.maxtimers $M xtcpd_check_connection_poll.maxtimers $M xtcpd_service_clients.maxtimers $M 0
	.set	theServer.maxchanends,autoip_periodic.maxchanends $M mii_buffer_init.maxchanends $M mii_free_in_buffer.maxchanends $M mii_get_in_buffer.maxchanends $M mii_out_init.maxchanends $M mii_restart_buffer.maxchanends $M smi_check_link_state.maxchanends $M uip_arp_timer.maxchanends $M uip_linkdown.maxchanends $M uip_linkup.maxchanends $M uip_server_init.maxchanends $M uip_xtcp_checkstate.maxchanends $M xtcp_process_incoming_packet.maxchanends $M xtcp_process_periodic_timer.maxchanends $M xtcp_process_udp_acks.maxchanends $M xtcp_tx_buffer.maxchanends $M xtcpd_check_connection_poll.maxchanends $M xtcpd_service_clients.maxchanends $M 0
	.cc_top uip_single_server.task.mii_driver.0.function
	.align	4
	.type	uip_single_server.task.mii_driver.0,@function
uip_single_server.task.mii_driver.0:
.Ltmp106:
	.cfi_startproc
.Lfunc_begin4:
	.loc	1 264 0
.Lxtalabel30:
	entsp 1
.Ltmp107:
	.cfi_def_cfa_offset 4
.Ltmp108:
	.cfi_offset 15, 0
	.loc	1 264 0 prologue_end
.Ltmp109:
	ldw r1, r0[11]
.Ltmp110:
	.loc	1 247 0
	#APP
	#NO_APP
.Ltmp111:
	.loc	1 264 0
	ldw r2, r0[9]
	ldw r1, r0[7]
.Ltmp112:
	ldw r0, r0[1]
.Ltmp113:
	bl mii_driver
	retsp 1
.Ltmp114:
.Ltmp115:
	.size	uip_single_server.task.mii_driver.0, .Ltmp115-uip_single_server.task.mii_driver.0
.Lfunc_end4:
.Ltmp116:
	.cfi_endproc
.Leh_func_end4:

	.align	4
	.cc_bottom uip_single_server.task.mii_driver.0.function
	.set	uip_single_server.task.mii_driver.0.nstackwords,(mii_driver.nstackwords + 1)
	.set	uip_single_server.task.mii_driver.0.maxcores,mii_driver.maxcores $M 1
	.set	uip_single_server.task.mii_driver.0.maxtimers,mii_driver.maxtimers $M 0
	.set	uip_single_server.task.mii_driver.0.maxchanends,mii_driver.maxchanends $M 0
	.cc_top uip_single_server.task.theServer.1.function
	.align	4
	.type	uip_single_server.task.theServer.1,@function
uip_single_server.task.theServer.1:
.Ltmp122:
	.cfi_startproc
.Lfunc_begin5:
	.loc	1 265 0
	entsp 10
.Ltmp123:
	.cfi_def_cfa_offset 40
.Ltmp124:
	.cfi_offset 15, 0
	.loc	1 0 0 prologue_end
.Ltmp125:
	stw r4, sp[9]
.Ltmp126:
	.cfi_offset 4, -4
	stw r5, sp[8]
.Ltmp127:
	.cfi_offset 5, -8
	stw r6, sp[7]
.Ltmp128:
	.cfi_offset 6, -12
	stw r7, sp[6]
.Ltmp129:
	.cfi_offset 7, -16
	mov r11, r0
.Ltmp130:
	ldc r0, 48
	.loc	1 265 0
.Ltmp131:
	add r0, r11, r0
	ldw r2, r0[0]
	ldw r3, r11[0]
	ldw r1, r11[10]
	ldw r0, r11[8]
	ldw r4, r11[2]
	ldw r5, r11[4]
	ldw r6, r11[5]
	ldw r7, r11[6]
	ldw r11, r11[3]
.Ltmp132:
	.loc	1 265 0
	stw r11, sp[5]
	stw r7, sp[4]
	stw r6, sp[3]
	stw r5, sp[2]
	stw r4, sp[1]
.Lxta.call_labels23:
	bl theServer
.Ltmp133:
.Ltmp134:
	.size	uip_single_server.task.theServer.1, .Ltmp134-uip_single_server.task.theServer.1
.Lfunc_end5:
.Ltmp135:
	.cfi_endproc
.Leh_func_end5:

	.align	4
	.cc_bottom uip_single_server.task.theServer.1.function
	.set	uip_single_server.task.theServer.1.nstackwords,(theServer.nstackwords + 10)
	.set	uip_single_server.task.theServer.1.maxcores,theServer.maxcores $M 1
	.set	uip_single_server.task.theServer.1.maxtimers,theServer.maxtimers $M 0
	.set	uip_single_server.task.theServer.1.maxchanends,theServer.maxchanends $M 0
	.section	.dp.bss,"awd",@nobits
	.cc_top txbuf.static.data
	.align	4
	.type	txbuf.static,@object
	.size txbuf.static,1520
txbuf.static:
	.space	1520
	.cc_bottom txbuf.static.data
	.cc_top tx_buf_in_use.static.b.data
	.align	4
	.type	tx_buf_in_use.static.b,@object
	.size tx_buf_in_use.static.b,1
tx_buf_in_use.static.b:
	.byte	0
	.space	3
	.cc_bottom tx_buf_in_use.static.b.data
	.cc_top linkstate.static.data
	.align	4
	.type	linkstate.static,@object
	.size linkstate.static,4
linkstate.static:
	.long	0
	.cc_bottom linkstate.static.data
	.section	.dp.data,"awd",@progbits
	.cc_top par.desc.1.data
	.align	4
	.type	par.desc.1,@object
	.size par.desc.1,16
par.desc.1:
	.long	uip_single_server.task.mii_driver.0
	.long	uip_single_server.task.theServer.1.nstackwords
	.long	0
	.long	uip_single_server.task.theServer.1
	.cc_bottom par.desc.1.data
	.cfi_sections .debug_frame
	.text
.Ltext_end:
	.section	.dp.data,"awd",@progbits
.Ldata_end:
	.text
.Lsection_end1:
	.section	.xtacalltable,"",@progbits
.Lentries_start0:
	.long	.Lentries_end1-.Lentries_start0
	.long	0
	.ascii	 "/home/vdelacruz/Documents/Ethernet sin mii/app_simple_webserver/.build_IPV4"
	.byte	0
.cc_top cc_0,.Lxta.call_labels3
	.ascii	 "/home/vdelacruz/Documents/Ethernet sin mii/module_xtcp/src/xtcp_uip/uip_single_server.xc"
	.byte	0
	.long	123
	.long	.Lxta.call_labels3
.cc_bottom cc_0
.cc_top cc_1,.Lxta.call_labels4
	.ascii	 "/home/vdelacruz/Documents/Ethernet sin mii/module_xtcp/src/xtcp_uip/uip_single_server.xc"
	.byte	0
	.long	131
	.long	.Lxta.call_labels4
.cc_bottom cc_1
.cc_top cc_2,.Lxta.call_labels5
	.ascii	 "/home/vdelacruz/Documents/Ethernet sin mii/module_xtcp/src/xtcp_uip/uip_single_server.xc"
	.byte	0
	.long	168
	.long	.Lxta.call_labels5
.cc_bottom cc_2
.cc_top cc_3,.Lxta.call_labels6
	.ascii	 "/home/vdelacruz/Documents/Ethernet sin mii/module_xtcp/src/xtcp_uip/uip_single_server.xc"
	.byte	0
	.long	170
	.long	.Lxta.call_labels6
.cc_bottom cc_3
.cc_top cc_4,.Lxta.call_labels7
	.ascii	 "/home/vdelacruz/Documents/Ethernet sin mii/module_xtcp/src/xtcp_uip/uip_single_server.xc"
	.byte	0
	.long	171
	.long	.Lxta.call_labels7
.cc_bottom cc_4
.cc_top cc_5,.Lxta.call_labels14
	.ascii	 "/home/vdelacruz/Documents/Ethernet sin mii/module_xtcp/src/xtcp_uip/uip_single_server.xc"
	.byte	0
	.long	178
	.long	.Lxta.call_labels14
.cc_bottom cc_5
.cc_top cc_6,.Lxta.call_labels15
	.ascii	 "/home/vdelacruz/Documents/Ethernet sin mii/module_xtcp/src/xtcp_uip/uip_single_server.xc"
	.byte	0
	.long	179
	.long	.Lxta.call_labels15
.cc_bottom cc_6
.cc_top cc_7,.Lxta.call_labels16
	.ascii	 "/home/vdelacruz/Documents/Ethernet sin mii/module_xtcp/src/xtcp_uip/uip_single_server.xc"
	.byte	0
	.long	180
	.long	.Lxta.call_labels16
.cc_bottom cc_7
.cc_top cc_8,.Lxta.call_labels17
	.ascii	 "/home/vdelacruz/Documents/Ethernet sin mii/module_xtcp/src/xtcp_uip/uip_single_server.xc"
	.byte	0
	.long	181
	.long	.Lxta.call_labels17
.cc_bottom cc_8
.cc_top cc_9,.Lxta.call_labels18
	.ascii	 "/home/vdelacruz/Documents/Ethernet sin mii/module_xtcp/src/xtcp_uip/uip_single_server.xc"
	.byte	0
	.long	190
	.long	.Lxta.call_labels18
.cc_bottom cc_9
.cc_top cc_10,.Lxta.call_labels8
	.ascii	 "/home/vdelacruz/Documents/Ethernet sin mii/module_xtcp/src/xtcp_uip/uip_single_server.xc"
	.byte	0
	.long	192
	.long	.Lxta.call_labels8
.cc_bottom cc_10
.cc_top cc_11,.Lxta.call_labels9
	.ascii	 "/home/vdelacruz/Documents/Ethernet sin mii/module_xtcp/src/xtcp_uip/uip_single_server.xc"
	.byte	0
	.long	195
	.long	.Lxta.call_labels9
.cc_bottom cc_11
.cc_top cc_12,.Lxta.call_labels10
	.ascii	 "/home/vdelacruz/Documents/Ethernet sin mii/module_xtcp/src/xtcp_uip/uip_single_server.xc"
	.byte	0
	.long	202
	.long	.Lxta.call_labels10
.cc_bottom cc_12
.cc_top cc_13,.Lxta.call_labels11
	.ascii	 "/home/vdelacruz/Documents/Ethernet sin mii/module_xtcp/src/xtcp_uip/uip_single_server.xc"
	.byte	0
	.long	208
	.long	.Lxta.call_labels11
.cc_bottom cc_13
.cc_top cc_14,.Lxta.call_labels12
	.ascii	 "/home/vdelacruz/Documents/Ethernet sin mii/module_xtcp/src/xtcp_uip/uip_single_server.xc"
	.byte	0
	.long	210
	.long	.Lxta.call_labels12
.cc_bottom cc_14
.cc_top cc_15,.Lxta.call_labels13
	.ascii	 "/home/vdelacruz/Documents/Ethernet sin mii/module_xtcp/src/xtcp_uip/uip_single_server.xc"
	.byte	0
	.long	215
	.long	.Lxta.call_labels13
.cc_bottom cc_15
.cc_top cc_16,.Lxta.call_labels19
	.ascii	 "/home/vdelacruz/Documents/Ethernet sin mii/module_xtcp/src/xtcp_uip/uip_single_server.xc"
	.byte	0
	.long	221
	.long	.Lxta.call_labels19
.cc_bottom cc_16
.cc_top cc_17,.Lxta.call_labels20
	.ascii	 "/home/vdelacruz/Documents/Ethernet sin mii/module_xtcp/src/xtcp_uip/uip_single_server.xc"
	.byte	0
	.long	226
	.long	.Lxta.call_labels20
.cc_bottom cc_17
.cc_top cc_18,.Lxta.call_labels21
	.ascii	 "/home/vdelacruz/Documents/Ethernet sin mii/module_xtcp/src/xtcp_uip/uip_single_server.xc"
	.byte	0
	.long	228
	.long	.Lxta.call_labels21
.cc_bottom cc_18
.cc_top cc_19,.Lxta.call_labels22
	.ascii	 "/home/vdelacruz/Documents/Ethernet sin mii/module_xtcp/src/xtcp_uip/uip_single_server.xc"
	.byte	0
	.long	229
	.long	.Lxta.call_labels22
.cc_bottom cc_19
.cc_top cc_20,.Lxta.call_labels0
	.ascii	 "/home/vdelacruz/Documents/Ethernet sin mii/module_xtcp/src/xtcp_uip/uip_single_server.xc"
	.byte	0
	.long	258
	.long	.Lxta.call_labels0
.cc_bottom cc_20
.cc_top cc_21,.Lxta.call_labels1
	.ascii	 "/home/vdelacruz/Documents/Ethernet sin mii/module_xtcp/src/xtcp_uip/uip_single_server.xc"
	.byte	0
	.long	260
	.long	.Lxta.call_labels1
.cc_bottom cc_21
.cc_top cc_22,.Lxta.call_labels2
	.ascii	 "/home/vdelacruz/Documents/Ethernet sin mii/module_xtcp/src/xtcp_uip/uip_single_server.xc"
	.byte	0
	.long	261
	.long	.Lxta.call_labels2
.cc_bottom cc_22
.cc_top cc_23,.Lxta.call_labels23
	.ascii	 "/home/vdelacruz/Documents/Ethernet sin mii/module_xtcp/src/xtcp_uip/uip_single_server.xc"
	.byte	0
	.long	265
	.long	.Lxta.call_labels23
.cc_bottom cc_23
.Lentries_end1:
	.section	.xtaendpointtable,"",@progbits
.Lentries_start2:
	.long	.Lentries_end3-.Lentries_start2
	.long	0
	.ascii	 "/home/vdelacruz/Documents/Ethernet sin mii/app_simple_webserver/.build_IPV4"
	.byte	0
.cc_top cc_24,.Lxta.endpoint_labels0
	.ascii	 "/home/vdelacruz/Documents/Ethernet sin mii/module_xtcp/src/xtcp_uip/uip_single_server.xc"
	.byte	0
	.long	173
	.long	.Lxta.endpoint_labels0
.cc_bottom cc_24
.cc_top cc_25,.Lxta.endpoint_labels1
	.ascii	 "/home/vdelacruz/Documents/Ethernet sin mii/module_xtcp/src/xtcp_uip/uip_single_server.xc"
	.byte	0
	.long	183
	.long	.Lxta.endpoint_labels1
.cc_bottom cc_25
.cc_top cc_26,.Lxta.endpoint_labels2
	.ascii	 "/home/vdelacruz/Documents/Ethernet sin mii/module_xtcp/src/xtcp_uip/uip_single_server.xc"
	.byte	0
	.long	219
	.long	.Lxta.endpoint_labels2
.cc_bottom cc_26
.Lentries_end3:
	.section	.xtalabeltable,"",@progbits
.Lentries_start4:
	.long	.Lentries_end5-.Lentries_start4
	.long	0
	.ascii	 "/home/vdelacruz/Documents/Ethernet sin mii/app_simple_webserver/.build_IPV4"
	.byte	0
.cc_top cc_27,.Lxtalabel1
	.ascii	 "/home/vdelacruz/Documents/Ethernet sin mii/module_xtcp/src/xtcp_uip/uip_single_server.xc"
	.byte	0
	.long	79
	.long	80
	.long	.Lxtalabel1
.cc_bottom cc_27
.cc_top cc_28,.Lxtalabel1
	.ascii	 "/home/vdelacruz/Documents/Ethernet sin mii/module_xtcp/src/xtcp_uip/uip_single_server.xc"
	.byte	0
	.long	118
	.long	122
	.long	.Lxtalabel1
.cc_bottom cc_28
.cc_top cc_29,.Lxtalabel2
	.ascii	 "/home/vdelacruz/Documents/Ethernet sin mii/module_xtcp/src/xtcp_uip/uip_single_server.xc"
	.byte	0
	.long	123
	.long	123
	.long	.Lxtalabel2
.cc_bottom cc_29
.cc_top cc_30,.Lxtalabel3
	.ascii	 "/home/vdelacruz/Documents/Ethernet sin mii/module_xtcp/src/xtcp_uip/uip_single_server.xc"
	.byte	0
	.long	124
	.long	124
	.long	.Lxtalabel3
.cc_bottom cc_30
.cc_top cc_31,.Lxtalabel3
	.ascii	 "/home/vdelacruz/Documents/Ethernet sin mii/module_xtcp/src/xtcp_uip/uip_single_server.xc"
	.byte	0
	.long	125
	.long	125
	.long	.Lxtalabel3
.cc_bottom cc_31
.cc_top cc_32,.Lxtalabel4
	.ascii	 "/home/vdelacruz/Documents/Ethernet sin mii/module_xtcp/src/xtcp_uip/uip_single_server.xc"
	.byte	0
	.long	129
	.long	130
	.long	.Lxtalabel4
.cc_bottom cc_32
.cc_top cc_33,.Lxtalabel5
	.ascii	 "/home/vdelacruz/Documents/Ethernet sin mii/module_xtcp/src/xtcp_uip/uip_single_server.xc"
	.byte	0
	.long	131
	.long	134
	.long	.Lxtalabel5
.cc_bottom cc_33
.cc_top cc_34,.Lxtalabel6
	.ascii	 "/home/vdelacruz/Documents/Ethernet sin mii/module_xtcp/src/xtcp_uip/uip_single_server.xc"
	.byte	0
	.long	138
	.long	141
	.long	.Lxtalabel6
.cc_bottom cc_34
.cc_top cc_35,.Lxtalabel7
	.ascii	 "/home/vdelacruz/Documents/Ethernet sin mii/module_xtcp/src/xtcp_uip/uip_single_server.xc"
	.byte	0
	.long	142
	.long	145
	.long	.Lxtalabel7
.cc_bottom cc_35
.cc_top cc_36,.Lxtalabel27
	.ascii	 "/home/vdelacruz/Documents/Ethernet sin mii/module_xtcp/src/xtcp_uip/uip_single_server.xc"
	.byte	0
	.long	142
	.long	145
	.long	.Lxtalabel27
.cc_bottom cc_36
.cc_top cc_37,.Lxtalabel8
	.ascii	 "/home/vdelacruz/Documents/Ethernet sin mii/module_xtcp/src/xtcp_uip/uip_single_server.xc"
	.byte	0
	.long	146
	.long	146
	.long	.Lxtalabel8
.cc_bottom cc_37
.cc_top cc_38,.Lxtalabel28
	.ascii	 "/home/vdelacruz/Documents/Ethernet sin mii/module_xtcp/src/xtcp_uip/uip_single_server.xc"
	.byte	0
	.long	146
	.long	146
	.long	.Lxtalabel28
.cc_bottom cc_38
.cc_top cc_39,.Lxtalabel9
	.ascii	 "/home/vdelacruz/Documents/Ethernet sin mii/module_xtcp/src/xtcp_uip/uip_single_server.xc"
	.byte	0
	.long	152
	.long	176
	.long	.Lxtalabel9
.cc_bottom cc_39
.cc_top cc_40,.Lxtalabel21
	.ascii	 "/home/vdelacruz/Documents/Ethernet sin mii/module_xtcp/src/xtcp_uip/uip_single_server.xc"
	.byte	0
	.long	177
	.long	184
	.long	.Lxtalabel21
.cc_bottom cc_40
.cc_top cc_41,.Lxtalabel22
	.ascii	 "/home/vdelacruz/Documents/Ethernet sin mii/module_xtcp/src/xtcp_uip/uip_single_server.xc"
	.byte	0
	.long	185
	.long	191
	.long	.Lxtalabel22
.cc_bottom cc_41
.cc_top cc_42,.Lxtalabel10
	.ascii	 "/home/vdelacruz/Documents/Ethernet sin mii/module_xtcp/src/xtcp_uip/uip_single_server.xc"
	.byte	0
	.long	185
	.long	191
	.long	.Lxtalabel10
.cc_bottom cc_42
.cc_top cc_43,.Lxtalabel11
	.ascii	 "/home/vdelacruz/Documents/Ethernet sin mii/module_xtcp/src/xtcp_uip/uip_single_server.xc"
	.byte	0
	.long	192
	.long	193
	.long	.Lxtalabel11
.cc_bottom cc_43
.cc_top cc_44,.Lxtalabel13
	.ascii	 "/home/vdelacruz/Documents/Ethernet sin mii/module_xtcp/src/xtcp_uip/uip_single_server.xc"
	.byte	0
	.long	194
	.long	194
	.long	.Lxtalabel13
.cc_bottom cc_44
.cc_top cc_45,.Lxtalabel12
	.ascii	 "/home/vdelacruz/Documents/Ethernet sin mii/module_xtcp/src/xtcp_uip/uip_single_server.xc"
	.byte	0
	.long	194
	.long	194
	.long	.Lxtalabel12
.cc_bottom cc_45
.cc_top cc_46,.Lxtalabel14
	.ascii	 "/home/vdelacruz/Documents/Ethernet sin mii/module_xtcp/src/xtcp_uip/uip_single_server.xc"
	.byte	0
	.long	195
	.long	196
	.long	.Lxtalabel14
.cc_bottom cc_46
.cc_top cc_47,.Lxtalabel15
	.ascii	 "/home/vdelacruz/Documents/Ethernet sin mii/module_xtcp/src/xtcp_uip/uip_single_server.xc"
	.byte	0
	.long	197
	.long	200
	.long	.Lxtalabel15
.cc_bottom cc_47
.cc_top cc_48,.Lxtalabel16
	.ascii	 "/home/vdelacruz/Documents/Ethernet sin mii/module_xtcp/src/xtcp_uip/uip_single_server.xc"
	.byte	0
	.long	201
	.long	203
	.long	.Lxtalabel16
.cc_bottom cc_48
.cc_top cc_49,.Lxtalabel17
	.ascii	 "/home/vdelacruz/Documents/Ethernet sin mii/module_xtcp/src/xtcp_uip/uip_single_server.xc"
	.byte	0
	.long	204
	.long	206
	.long	.Lxtalabel17
.cc_bottom cc_49
.cc_top cc_50,.Lxtalabel18
	.ascii	 "/home/vdelacruz/Documents/Ethernet sin mii/module_xtcp/src/xtcp_uip/uip_single_server.xc"
	.byte	0
	.long	207
	.long	209
	.long	.Lxtalabel18
.cc_bottom cc_50
.cc_top cc_51,.Lxtalabel19
	.ascii	 "/home/vdelacruz/Documents/Ethernet sin mii/module_xtcp/src/xtcp_uip/uip_single_server.xc"
	.byte	0
	.long	210
	.long	211
	.long	.Lxtalabel19
.cc_bottom cc_51
.cc_top cc_52,.Lxtalabel20
	.ascii	 "/home/vdelacruz/Documents/Ethernet sin mii/module_xtcp/src/xtcp_uip/uip_single_server.xc"
	.byte	0
	.long	213
	.long	219
	.long	.Lxtalabel20
.cc_bottom cc_52
.cc_top cc_53,.Lxtalabel23
	.ascii	 "/home/vdelacruz/Documents/Ethernet sin mii/module_xtcp/src/xtcp_uip/uip_single_server.xc"
	.byte	0
	.long	220
	.long	220
	.long	.Lxtalabel23
.cc_bottom cc_53
.cc_top cc_54,.Lxtalabel24
	.ascii	 "/home/vdelacruz/Documents/Ethernet sin mii/module_xtcp/src/xtcp_uip/uip_single_server.xc"
	.byte	0
	.long	221
	.long	222
	.long	.Lxtalabel24
.cc_bottom cc_54
.cc_top cc_55,.Lxtalabel25
	.ascii	 "/home/vdelacruz/Documents/Ethernet sin mii/module_xtcp/src/xtcp_uip/uip_single_server.xc"
	.byte	0
	.long	223
	.long	224
	.long	.Lxtalabel25
.cc_bottom cc_55
.cc_top cc_56,.Lxtalabel26
	.ascii	 "/home/vdelacruz/Documents/Ethernet sin mii/module_xtcp/src/xtcp_uip/uip_single_server.xc"
	.byte	0
	.long	225
	.long	227
	.long	.Lxtalabel26
.cc_bottom cc_56
.cc_top cc_57,.Lxtalabel29
	.ascii	 "/home/vdelacruz/Documents/Ethernet sin mii/module_xtcp/src/xtcp_uip/uip_single_server.xc"
	.byte	0
	.long	228
	.long	230
	.long	.Lxtalabel29
.cc_bottom cc_57
.cc_top cc_58,.Lxtalabel29
	.ascii	 "/home/vdelacruz/Documents/Ethernet sin mii/module_xtcp/src/xtcp_uip/uip_single_server.xc"
	.byte	0
	.long	231
	.long	231
	.long	.Lxtalabel29
.cc_bottom cc_58
.cc_top cc_59,.Lxtalabel29
	.ascii	 "/home/vdelacruz/Documents/Ethernet sin mii/module_xtcp/src/xtcp_uip/uip_single_server.xc"
	.byte	0
	.long	232
	.long	235
	.long	.Lxtalabel29
.cc_bottom cc_59
.cc_top cc_60,.Lxtalabel21
	.ascii	 "/home/vdelacruz/Documents/Ethernet sin mii/module_xtcp/src/xtcp_uip/uip_single_server.xc"
	.byte	0
	.long	236
	.long	237
	.long	.Lxtalabel21
.cc_bottom cc_60
.cc_top cc_61,.Lxtalabel30
	.ascii	 "/home/vdelacruz/Documents/Ethernet sin mii/module_xtcp/src/xtcp_uip/uip_single_server.xc"
	.byte	0
	.long	247
	.long	248
	.long	.Lxtalabel30
.cc_bottom cc_61
.cc_top cc_62,.Lxtalabel0
	.ascii	 "/home/vdelacruz/Documents/Ethernet sin mii/module_xtcp/src/xtcp_uip/uip_single_server.xc"
	.byte	0
	.long	256
	.long	267
	.long	.Lxtalabel0
.cc_bottom cc_62
.Lentries_end5:
	.section	.xtalooplabeltable,"",@progbits
.Lentries_start6:
	.long	.Lentries_end7-.Lentries_start6
	.long	0
	.ascii	 "/home/vdelacruz/Documents/Ethernet sin mii/app_simple_webserver/.build_IPV4"
	.byte	0
.cc_top cc_63,.Lxta.loop_labels0
	.ascii	 "/home/vdelacruz/Documents/Ethernet sin mii/module_xtcp/src/xtcp_uip/uip_single_server.xc"
	.byte	0
	.long	142
	.long	145
	.long	.Lxta.loop_labels0
.cc_bottom cc_63
.cc_top cc_64,.Lxta.loop_labels1
	.ascii	 "/home/vdelacruz/Documents/Ethernet sin mii/module_xtcp/src/xtcp_uip/uip_single_server.xc"
	.byte	0
	.long	142
	.long	145
	.long	.Lxta.loop_labels1
.cc_bottom cc_64
.Lentries_end7:
