	.file	"/home/vdelacruz/Documents/Ethernet 2 Ports/module_xtcp/src/xtcp_uip/uip_server_support.c"

.set uip_linkdown.locnoside, 1

.set uip_linkdown.locnochandec, 1

.set uip_linkdown.locnoglobalaccess, 1

.set uip_linkdown.locnointerfaceaccess, 1

.set uip_linkdown.locnonotificationselect, 1

.set autoip_configured.locnoside, 1

.set autoip_configured.locnochandec, 1

.set autoip_configured.locnoglobalaccess, 1

.set autoip_configured.locnointerfaceaccess, 1

.set autoip_configured.locnonotificationselect, 1

.set dhcpc_configured.locnoside, 1

.set dhcpc_configured.locnochandec, 1

.set dhcpc_configured.locnoglobalaccess, 1

.set dhcpc_configured.locnointerfaceaccess, 1

.set dhcpc_configured.locnonotificationselect, 1

.set uip_linkup.locnoside, 1

.set uip_linkup.locnochandec, 1

.set uip_linkup.locnoglobalaccess, 1

.set uip_linkup.locnointerfaceaccess, 1

.set uip_linkup.locnonotificationselect, 1

.set uip_server_init.locnoside, 1

.set uip_server_init.locnochandec, 1

.set uip_server_init.locnoglobalaccess, 1

.set uip_server_init.locnointerfaceaccess, 1

.set uip_server_init.locnonotificationselect, 1

.set xtcp_tx_buffer.locnoside, 1

.set xtcp_tx_buffer.locnochandec, 1

.set xtcp_tx_buffer.locnoglobalaccess, 1

.set xtcp_tx_buffer.locnointerfaceaccess, 1

.set xtcp_tx_buffer.locnonotificationselect, 1

.set xtcp_process_periodic_timer.locnoside, 1

.set xtcp_process_periodic_timer.locnochandec, 1

.set xtcp_process_periodic_timer.locnoglobalaccess, 1

.set xtcp_process_periodic_timer.locnointerfaceaccess, 1

.set xtcp_process_periodic_timer.locnonotificationselect, 1

.set xtcp_process_udp_acks.locnoside, 1

.set xtcp_process_udp_acks.locnochandec, 1

.set xtcp_process_udp_acks.locnoglobalaccess, 1

.set xtcp_process_udp_acks.locnointerfaceaccess, 1

.set xtcp_process_udp_acks.locnonotificationselect, 1

.set xtcp_process_incoming_packet.locnoside, 1

.set xtcp_process_incoming_packet.locnochandec, 1

.set xtcp_process_incoming_packet.locnoglobalaccess, 1

.set xtcp_process_incoming_packet.locnointerfaceaccess, 1

.set xtcp_process_incoming_packet.locnonotificationselect, 1

.set xtcpd_check_connection_poll.locnoside, 1

.set xtcpd_check_connection_poll.locnochandec, 1

.set xtcpd_check_connection_poll.locnoglobalaccess, 1

.set xtcpd_check_connection_poll.locnointerfaceaccess, 1

.set xtcpd_check_connection_poll.locnonotificationselect, 1


	.file	1 "/home/vdelacruz/Documents/Ethernet 2 Ports/module_xtcp/src/xtcp_uip/uip_server_support.c"
	.file	2 "/home/vdelacruz/Documents/Ethernet 2 Ports/module_xtcp/src/xtcp_uip/uip-conf.h"
	.file	3 "/home/vdelacruz/Documents/Ethernet 2 Ports/module_xtcp/src/xtcp_client.h"
	.text
.Ltext_begin:
	.section	.dp.data,"awd",@progbits
	.text
	.cc_top uip_linkdown.function
	.globl	uip_linkdown
	.align	2
	.type	uip_linkdown,@function
uip_linkdown:
.Ltmp1:
	.cfi_startproc
.Lfunc_begin0:
	.loc	1 297 0
	entsp 1
.Ltmp2:
	.cfi_def_cfa_offset 4
.Ltmp3:
	.cfi_offset 15, 0
	ldaw r0, dp[dhcp_done.b]
	ldc r1, 0
	st8 r1, r0[r1]
	.loc	1 300 0 prologue_end
.Ltmp4:
	bl dhcpc_stop
	.loc	1 303 0
	bl autoip_stop
	.loc	1 305 0
	bl uip_xtcp_down
	.loc	1 306 0
	retsp 1
.Ltmp5:
.Ltmp6:
	.size	uip_linkdown, .Ltmp6-uip_linkdown
.Lfunc_end0:
.Ltmp7:
	.cfi_endproc
.Leh_func_end0:

	.cc_bottom uip_linkdown.function
	.set	uip_linkdown.nstackwords,((dhcpc_stop.nstackwords $M autoip_stop.nstackwords $M uip_xtcp_down.nstackwords) + 1)
	.globl	uip_linkdown.nstackwords
	.set	uip_linkdown.maxcores,autoip_stop.maxcores $M dhcpc_stop.maxcores $M uip_xtcp_down.maxcores $M 1
	.globl	uip_linkdown.maxcores
	.set	uip_linkdown.maxtimers,autoip_stop.maxtimers $M dhcpc_stop.maxtimers $M uip_xtcp_down.maxtimers $M 0
	.globl	uip_linkdown.maxtimers
	.set	uip_linkdown.maxchanends,autoip_stop.maxchanends $M dhcpc_stop.maxchanends $M uip_xtcp_down.maxchanends $M 0
	.globl	uip_linkdown.maxchanends
	.cc_top autoip_configured.function
	.globl	autoip_configured
	.align	2
	.type	autoip_configured,@function
autoip_configured:
.Ltmp12:
	.cfi_startproc
.Lfunc_begin1:
	.loc	1 230 0
	entsp 5
.Ltmp13:
	.cfi_def_cfa_offset 20
.Ltmp14:
	.cfi_offset 15, 0
	.loc	1 230 0 prologue_end
.Ltmp15:
	stw r4, sp[4]
.Ltmp16:
	.cfi_offset 4, -4
	stw r5, sp[3]
.Ltmp17:
	.cfi_offset 5, -8
	stw r6, sp[2]
.Ltmp18:
	.cfi_offset 6, -12
	mov r1, r0
.Ltmp19:
	ldc r5, 0
	ldaw r0, dp[dhcp_done.b]
	ld8u r0, r0[r5]
	.loc	1 231 0
.Ltmp20:
	bt r0, .LBB1_2
.Ltmp21:
	.loc	1 238 0
	ldaw r0, dp[uip_hostaddr]
	bl uip_ipaddr_copy
.Ltmp22:
	ldaw r4, sp[1]
	mkmsk r0, 32
	.loc	1 239 0
	st16 r0, r4[r5]
	ldc r0, 2
	or r6, r4, r0
	st16 r5, r6[r5]
	.loc	1 240 0
	ldaw r0, dp[uip_netmask]
	mov r1, r4
	bl uip_ipaddr_copy
	.loc	1 241 0
	st16 r5, r4[r5]
	st16 r5, r6[r5]
	.loc	1 242 0
	ldaw r0, dp[uip_draddr]
	mov r1, r4
	bl uip_ipaddr_copy
	.loc	1 243 0
	bl uip_xtcp_up
.LBB1_2:
	.loc	1 245 0
	ldw r6, sp[2]
	ldw r5, sp[3]
	ldw r4, sp[4]
	retsp 5
.Ltmp23:
.Ltmp24:
	.size	autoip_configured, .Ltmp24-autoip_configured
.Lfunc_end1:
	.file	4 "/home/vdelacruz/Documents/Ethernet 2 Ports/module_xtcp/src/xtcp_uip/uip.h"
.Ltmp25:
	.cfi_endproc
.Leh_func_end1:

	.cc_bottom autoip_configured.function
	.set	autoip_configured.nstackwords,((uip_ipaddr_copy.nstackwords $M uip_xtcp_up.nstackwords) + 5)
	.globl	autoip_configured.nstackwords
	.set	autoip_configured.maxcores,uip_ipaddr_copy.maxcores $M uip_xtcp_up.maxcores $M 1
	.globl	autoip_configured.maxcores
	.set	autoip_configured.maxtimers,uip_ipaddr_copy.maxtimers $M uip_xtcp_up.maxtimers $M 0
	.globl	autoip_configured.maxtimers
	.set	autoip_configured.maxchanends,uip_ipaddr_copy.maxchanends $M uip_xtcp_up.maxchanends $M 0
	.globl	autoip_configured.maxchanends
	.cc_top dhcpc_configured.function
	.globl	dhcpc_configured
	.align	2
	.type	dhcpc_configured,@function
dhcpc_configured:
.Ltmp28:
	.cfi_startproc
.Lfunc_begin2:
	.loc	1 214 0
	entsp 2
.Ltmp29:
	.cfi_def_cfa_offset 8
.Ltmp30:
	.cfi_offset 15, 0
	.loc	1 214 0 prologue_end
.Ltmp31:
	stw r4, sp[1]
.Ltmp32:
	.cfi_offset 4, -4
	mov r4, r0
.Ltmp33:
	.loc	1 219 0
	bl autoip_stop
	.loc	1 221 0
	ldaw r1, r4[9]
	ldaw r0, dp[uip_hostaddr]
	bl uip_ipaddr_copy
	ldc r0, 48
	.loc	1 222 0
	add r1, r4, r0
	ldaw r0, dp[uip_draddr]
	bl uip_ipaddr_copy
	.loc	1 223 0
	ldaw r1, r4[10]
	ldaw r0, dp[uip_netmask]
	bl uip_ipaddr_copy
	.loc	1 224 0
	bl uip_xtcp_up
	ldc r0, 0
	ldaw r1, dp[dhcp_done.b]
	mkmsk r2, 1
	st8 r2, r1[r0]
	.loc	1 226 0
	ldw r4, sp[1]
.Ltmp34:
	retsp 2
.Ltmp35:
.Ltmp36:
	.size	dhcpc_configured, .Ltmp36-dhcpc_configured
.Lfunc_end2:
	.file	5 "/home/vdelacruz/Documents/Ethernet 2 Ports/module_xtcp/src/xtcp_uip/pt.h"
	.file	6 "/home/vdelacruz/Documents/Ethernet 2 Ports/module_xtcp/src/xtcp_uip/dhcpc/dhcpc.h"
	.file	7 "/home/vdelacruz/Documents/Ethernet 2 Ports/module_xtcp/src/xtcp_server.h"
	.file	8 "/home/vdelacruz/Documents/Ethernet 2 Ports/module_xtcp/src/xtcp_uip/clock-arch.h"
	.file	9 "/home/vdelacruz/Documents/Ethernet 2 Ports/module_xtcp/src/xtcp_uip/xtcp_server_conf.h"
	.file	10 "/home/vdelacruz/Documents/Ethernet 2 Ports/module_xtcp/src/xtcp_uip/timer.h"
	.file	11 "/home/vdelacruz/Documents/Ethernet 2 Ports/module_xtcp/src/xtcp_uip/lc-switch.h"
.Ltmp37:
	.cfi_endproc
.Leh_func_end2:

	.cc_bottom dhcpc_configured.function
	.set	dhcpc_configured.nstackwords,((autoip_stop.nstackwords $M uip_ipaddr_copy.nstackwords $M uip_xtcp_up.nstackwords) + 2)
	.globl	dhcpc_configured.nstackwords
	.set	dhcpc_configured.maxcores,autoip_stop.maxcores $M uip_ipaddr_copy.maxcores $M uip_xtcp_up.maxcores $M 1
	.globl	dhcpc_configured.maxcores
	.set	dhcpc_configured.maxtimers,autoip_stop.maxtimers $M uip_ipaddr_copy.maxtimers $M uip_xtcp_up.maxtimers $M 0
	.globl	dhcpc_configured.maxtimers
	.set	dhcpc_configured.maxchanends,autoip_stop.maxchanends $M uip_ipaddr_copy.maxchanends $M uip_xtcp_up.maxchanends $M 0
	.globl	dhcpc_configured.maxchanends
	.cc_top uip_linkup.function
	.globl	uip_linkup
	.align	2
	.type	uip_linkup,@function
uip_linkup:
.Ltmp39:
	.cfi_startproc
.Lfunc_begin3:
	.loc	1 248 0
	entsp 1
.Ltmp40:
	.cfi_def_cfa_offset 4
.Ltmp41:
	.cfi_offset 15, 0
	.loc	1 249 0 prologue_end
.Ltmp42:
	bl get_uip_xtcp_ifstate
	bf r0, .LBB3_2
	.loc	1 250 0
	bl uip_xtcp_down
.LBB3_2:
	.loc	1 252 0
	ldw r0, dp[uip_static_ip]
	bf r0, .LBB3_4
	.loc	1 274 0
	ldaw r0, dp[uip_hostaddr]
	ldaw r1, dp[uip_static_ipconfig]
	bl uip_ipaddr_copy
	.loc	1 275 0
	ldaw r0, dp[uip_draddr]
	ldaw r1, dp[uip_static_ipconfig+8]
	bl uip_ipaddr_copy
	.loc	1 276 0
	ldaw r0, dp[uip_netmask]
	ldaw r1, dp[uip_static_ipconfig+4]
	bl uip_ipaddr_copy
	.loc	1 278 0
	bl uip_xtcp_up
	.loc	1 295 0
	retsp 1
.LBB3_4:
	ldaw r0, dp[dhcp_done.b]
	ldc r1, 0
	st8 r1, r0[r1]
	.loc	1 282 0
	bl dhcpc_stop
	.loc	1 286 0
	bl autoip_stop
	.loc	1 292 0
	bl dhcpc_start
	.loc	1 295 0
	retsp 1
.Ltmp43:
.Ltmp44:
	.size	uip_linkup, .Ltmp44-uip_linkup
.Lfunc_end3:
.Ltmp45:
	.cfi_endproc
.Leh_func_end3:

	.cc_bottom uip_linkup.function
	.set	uip_linkup.nstackwords,((get_uip_xtcp_ifstate.nstackwords $M dhcpc_stop.nstackwords $M autoip_stop.nstackwords $M dhcpc_start.nstackwords $M uip_ipaddr_copy.nstackwords $M uip_xtcp_up.nstackwords $M uip_xtcp_down.nstackwords) + 1)
	.globl	uip_linkup.nstackwords
	.set	uip_linkup.maxcores,autoip_stop.maxcores $M dhcpc_start.maxcores $M dhcpc_stop.maxcores $M get_uip_xtcp_ifstate.maxcores $M uip_ipaddr_copy.maxcores $M uip_xtcp_down.maxcores $M uip_xtcp_up.maxcores $M 1
	.globl	uip_linkup.maxcores
	.set	uip_linkup.maxtimers,autoip_stop.maxtimers $M dhcpc_start.maxtimers $M dhcpc_stop.maxtimers $M get_uip_xtcp_ifstate.maxtimers $M uip_ipaddr_copy.maxtimers $M uip_xtcp_down.maxtimers $M uip_xtcp_up.maxtimers $M 0
	.globl	uip_linkup.maxtimers
	.set	uip_linkup.maxchanends,autoip_stop.maxchanends $M dhcpc_start.maxchanends $M dhcpc_stop.maxchanends $M get_uip_xtcp_ifstate.maxchanends $M uip_ipaddr_copy.maxchanends $M uip_xtcp_down.maxchanends $M uip_xtcp_up.maxchanends $M 0
	.globl	uip_linkup.maxchanends
	.cc_top uip_server_init.function
	.section	.cp.rodata.cst4,"aMc",@progbits,4
	.cc_top .LCPI4_0.data
	.align	4
.LCPI4_0:
	.long	16842753
	.cc_bottom .LCPI4_0.data
	.text
	.globl	uip_server_init
	.align	2
	.type	uip_server_init,@function
uip_server_init:
.Ltmp51:
	.cfi_startproc
.Lfunc_begin4:
	.loc	1 54 0
	entsp 6
.Ltmp52:
	.cfi_def_cfa_offset 24
.Ltmp53:
	.cfi_offset 15, 0
	.loc	1 53 0 prologue_end
.Ltmp54:
	stw r4, sp[5]
.Ltmp55:
	.cfi_offset 4, -4
	stw r5, sp[4]
.Ltmp56:
	.cfi_offset 5, -8
	stw r6, sp[3]
.Ltmp57:
	.cfi_offset 6, -12
	stw r7, sp[2]
.Ltmp58:
	.cfi_offset 7, -16
	mov r6, r3
.Ltmp59:
	mov r7, r2
.Ltmp60:
	mov r4, r1
.Ltmp61:
	mov r5, r0
.Ltmp62:
	.loc	1 55 0
	bf r7, .LBB4_5
	.loc	1 56 0
	ldaw r0, dp[uip_static_ipconfig]
	ldc r2, 12
	mov r1, r7
	bl memcpy
	.loc	1 58 0
	ldaw r0, dp[uip_ethaddr]
	ldc r2, 6
	mov r1, r6
	bl memcpy
	.loc	1 60 0
	bl uip_init
	.loc	1 66 0
	ldw r0, r7[0]
	bf r0, .LBB4_3
	mkmsk r0, 1
	.loc	1 67 0
	stw r0, dp[uip_static_ip]
.LBB4_3:
.Ltmp63:
	.loc	1 79 0
	ldaw r0, dp[uip_hostaddr]
	mov r1, r7
	bl uip_ipaddr_copy
	.loc	1 80 0
	add r1, r7, 8
	ldaw r0, dp[uip_draddr]
	bl uip_ipaddr_copy
	.loc	1 81 0
	add r1, r7, 4
	ldaw r0, dp[uip_netmask]
.Ltmp64:
.LBB4_4:
	bl uip_ipaddr_copy
.Ltmp65:
	.loc	1 93 0
	ldc r0, 0
	ld8u r0, r6[r0]
	mkmsk r1, 1
	ld8u r1, r6[r1]
	add r0, r1, r0
	ldc r1, 2
	ld8u r1, r6[r1]
	add r0, r0, r1
	mkmsk r1, 2
	ld8u r1, r6[r1]
	add r0, r0, r1
	ldc r1, 4
	ld8u r1, r6[r1]
	add r0, r0, r1
	ldc r1, 5
	ld8u r1, r6[r1]
	add r0, r0, r1
.Ltmp66:
	ldw r1, cp[.LCPI4_0]
	.loc	1 94 0
	mul r0, r0, r1
.Ltmp67:
	bl autoip_init
	.loc	1 97 0
	ldaw r0, dp[uip_ethaddr]
	ldc r1, 6
	bl dhcpc_init
	.loc	1 99 0
	mov r0, r5
	mov r1, r4
	bl xtcpd_init
	.loc	1 101 0
	ldw r7, sp[2]
	ldw r6, sp[3]
.Ltmp68:
	ldw r5, sp[4]
.Ltmp69:
	ldw r4, sp[5]
.Ltmp70:
	retsp 6
.Ltmp71:
.LBB4_5:
	.loc	1 58 0
	ldaw r0, dp[uip_ethaddr]
	ldc r2, 6
	mov r1, r6
	bl memcpy
	.loc	1 60 0
	bl uip_init
	ldaw r7, sp[1]
	.loc	1 73 0
.Ltmp72:
	ldc r0, 0
	st16 r0, r7[r0]
	ldc r1, 2
	or r1, r7, r1
	st16 r0, r1[r0]
	.loc	1 74 0
	ldaw r0, dp[uip_hostaddr]
	mov r1, r7
	bl uip_ipaddr_copy
	.loc	1 75 0
	ldaw r0, dp[uip_draddr]
	mov r1, r7
	bl uip_ipaddr_copy
	.loc	1 76 0
	ldaw r0, dp[uip_netmask]
	mov r1, r7
	bu .LBB4_4
.Ltmp73:
.Ltmp74:
	.size	uip_server_init, .Ltmp74-uip_server_init
.Lfunc_end4:
	.file	12 "/home/vdelacruz/XMOS/xTIMEcomposer/Community_13.1.0//target/include/xccompat.h"
.Ltmp75:
	.cfi_endproc
.Leh_func_end4:

	.cc_bottom uip_server_init.function
	.set	uip_server_init.nstackwords,((autoip_init.nstackwords $M dhcpc_init.nstackwords $M xtcpd_init.nstackwords $M memcpy.nstackwords $M uip_init.nstackwords $M uip_ipaddr_copy.nstackwords) + 6)
	.globl	uip_server_init.nstackwords
	.set	uip_server_init.maxcores,autoip_init.maxcores $M dhcpc_init.maxcores $M uip_init.maxcores $M uip_ipaddr_copy.maxcores $M xtcpd_init.maxcores $M 1
	.globl	uip_server_init.maxcores
	.set	uip_server_init.maxtimers,autoip_init.maxtimers $M dhcpc_init.maxtimers $M uip_init.maxtimers $M uip_ipaddr_copy.maxtimers $M xtcpd_init.maxtimers $M 0
	.globl	uip_server_init.maxtimers
	.set	uip_server_init.maxchanends,autoip_init.maxchanends $M dhcpc_init.maxchanends $M uip_init.maxchanends $M uip_ipaddr_copy.maxchanends $M xtcpd_init.maxchanends $M 0
	.globl	uip_server_init.maxchanends
	.cc_top xtcp_tx_buffer.function
	.globl	xtcp_tx_buffer
	.align	2
	.type	xtcp_tx_buffer,@function
xtcp_tx_buffer:
.Ltmp77:
	.cfi_startproc
.Lfunc_begin5:
	.loc	1 48 0
	entsp 1
.Ltmp78:
	.cfi_def_cfa_offset 4
.Ltmp79:
	.cfi_offset 15, 0
	.loc	1 49 0 prologue_end
.Ltmp80:
	bl uip_split_output
.Ltmp81:
	.loc	1 50 0
	ldaw r0, dp[uip_len]
	ldc r1, 0
	st16 r1, r0[r1]
	.loc	1 51 0
	retsp 1
.Ltmp82:
.Ltmp83:
	.size	xtcp_tx_buffer, .Ltmp83-xtcp_tx_buffer
.Lfunc_end5:
.Ltmp84:
	.cfi_endproc
.Leh_func_end5:

	.cc_bottom xtcp_tx_buffer.function
	.set	xtcp_tx_buffer.nstackwords,(uip_split_output.nstackwords + 1)
	.globl	xtcp_tx_buffer.nstackwords
	.set	xtcp_tx_buffer.maxcores,uip_split_output.maxcores $M 1
	.globl	xtcp_tx_buffer.maxcores
	.set	xtcp_tx_buffer.maxtimers,uip_split_output.maxtimers $M 0
	.globl	xtcp_tx_buffer.maxtimers
	.set	xtcp_tx_buffer.maxchanends,uip_split_output.maxchanends $M 0
	.globl	xtcp_tx_buffer.maxchanends
	.cc_top xtcp_process_periodic_timer.function
	.globl	xtcp_process_periodic_timer
	.align	2
	.type	xtcp_process_periodic_timer,@function
xtcp_process_periodic_timer:
.Ltmp93:
	.cfi_startproc
.Lfunc_begin6:
	.loc	1 189 0
	entsp 8
.Ltmp94:
	.cfi_def_cfa_offset 32
.Ltmp95:
	.cfi_offset 15, 0
	.loc	1 188 0 prologue_end
.Ltmp96:
	stw r4, sp[7]
.Ltmp97:
	.cfi_offset 4, -4
	stw r5, sp[6]
.Ltmp98:
	.cfi_offset 5, -8
	stw r6, sp[5]
.Ltmp99:
	.cfi_offset 6, -12
	stw r7, sp[4]
.Ltmp100:
	.cfi_offset 7, -16
	stw r8, sp[3]
.Ltmp101:
	.cfi_offset 8, -20
	stw r9, sp[2]
.Ltmp102:
	.cfi_offset 9, -24
	stw r10, sp[1]
.Ltmp103:
	.cfi_offset 10, -28
	mov r4, r0
.Ltmp104:
	ldc r10, 0
.Ltmp105:
	ldc r5, 5
	.loc	1 198 0
.Ltmp106:
	ldaw r7, dp[uip_len]
	mov r9, r10
	ldc r8, 0
.LBB6_1:
	ldc r0, 96
	.loc	1 197 0
	mul r0, r9, r0
	ldaw r1, dp[uip_udp_conns]
	add r6, r1, r0
	stw r6, dp[uip_udp_conn]
	mov r0, r5
	bl uip_process
	.loc	1 198 0
	ld16s r0, r7[r10]
	zext r0, 16
	bf r0, .LBB6_3
	.loc	1 199 0
	mov r0, r6
	bl uip_arp_out
.Ltmp107:
	.loc	1 49 0
	mov r0, r4
	bl uip_split_output
	.loc	1 50 0
	st16 r10, r7[r10]
.Ltmp108:
.LBB6_3:
.xtaloop 10
	# LOOPMARKER 0
	.loc	1 196 0
	add r9, r9, 1
.Ltmp109:
	eq r0, r9, 10
	bf r0, .LBB6_1
.Ltmp110:
	ldc r9, 112
	.loc	1 205 0
.Ltmp111:
	ldaw r10, dp[uip_conns]
	ldc r5, 2
	.loc	1 206 0
	ldc r6, 0
.LBB6_5:
	.loc	1 205 0
	mul r0, r8, r9
	add r0, r10, r0
	stw r0, dp[uip_conn]
	mov r0, r5
	bl uip_process
	.loc	1 206 0
	ld16s r0, r7[r6]
	zext r0, 16
	bf r0, .LBB6_7
	.loc	1 207 0
	mov r0, r6
	bl uip_arp_out
.Ltmp112:
	.loc	1 49 0
	mov r0, r4
	bl uip_split_output
	.loc	1 50 0
	st16 r6, r7[r6]
.Ltmp113:
.LBB6_7:
.xtaloop 10
	# LOOPMARKER 1
	.loc	1 204 0
	add r8, r8, 1
.Ltmp114:
	eq r0, r8, 10
	bf r0, .LBB6_5
.Ltmp115:
	.loc	1 211 0
	ldw r10, sp[1]
	ldw r9, sp[2]
	ldw r8, sp[3]
	ldw r7, sp[4]
	ldw r6, sp[5]
	ldw r5, sp[6]
	ldw r4, sp[7]
	retsp 8
.Ltmp116:
.Ltmp117:
	.size	xtcp_process_periodic_timer, .Ltmp117-xtcp_process_periodic_timer
.Lfunc_end6:
.Ltmp118:
	.cfi_endproc
.Leh_func_end6:

	.cc_bottom xtcp_process_periodic_timer.function
	.set	xtcp_process_periodic_timer.nstackwords,((uip_process.nstackwords $M uip_arp_out.nstackwords $M uip_split_output.nstackwords) + 8)
	.globl	xtcp_process_periodic_timer.nstackwords
	.set	xtcp_process_periodic_timer.maxcores,uip_arp_out.maxcores $M uip_process.maxcores $M uip_split_output.maxcores $M 1
	.globl	xtcp_process_periodic_timer.maxcores
	.set	xtcp_process_periodic_timer.maxtimers,uip_arp_out.maxtimers $M uip_process.maxtimers $M uip_split_output.maxtimers $M 0
	.globl	xtcp_process_periodic_timer.maxtimers
	.set	xtcp_process_periodic_timer.maxchanends,uip_arp_out.maxchanends $M uip_process.maxchanends $M uip_split_output.maxchanends $M 0
	.globl	xtcp_process_periodic_timer.maxchanends
	.cc_top xtcp_process_udp_acks.function
	.globl	xtcp_process_udp_acks
	.align	2
	.type	xtcp_process_udp_acks,@function
xtcp_process_udp_acks:
.Ltmp127:
	.cfi_startproc
.Lfunc_begin7:
	.loc	1 176 0
	entsp 8
.Ltmp128:
	.cfi_def_cfa_offset 32
.Ltmp129:
	.cfi_offset 15, 0
	.loc	1 175 0 prologue_end
.Ltmp130:
	stw r4, sp[7]
.Ltmp131:
	.cfi_offset 4, -4
	stw r5, sp[6]
.Ltmp132:
	.cfi_offset 5, -8
	stw r6, sp[5]
.Ltmp133:
	.cfi_offset 6, -12
	stw r7, sp[4]
.Ltmp134:
	.cfi_offset 7, -16
	stw r8, sp[3]
.Ltmp135:
	.cfi_offset 8, -20
	stw r9, sp[2]
.Ltmp136:
	.cfi_offset 9, -24
	stw r10, sp[1]
.Ltmp137:
	.cfi_offset 10, -28
	mov r4, r0
.Ltmp138:
	ldc r10, 0
.Ltmp139:
	ldc r8, 2
	mkmsk r5, 3
	.loc	1 180 0
.Ltmp140:
	ldaw r9, dp[uip_len]
	mov r7, r10
.LBB7_1:
	ldc r0, 96
	.loc	1 178 0
	mul r0, r7, r0
	ldaw r1, dp[uip_udp_conns]
	add r6, r1, r0
	ldc r0, 9
	ld8u r0, r6[r0]
	and r0, r0, r8
	bf r0, .LBB7_4
	.loc	1 179 0
	stw r6, dp[uip_udp_conn]
	mov r0, r5
	bl uip_process
	.loc	1 180 0
	ld16s r0, r9[r10]
	zext r0, 16
	bf r0, .LBB7_4
	.loc	1 181 0
	mov r0, r6
	bl uip_arp_out
.Ltmp141:
	.loc	1 49 0
	mov r0, r4
	bl uip_split_output
	.loc	1 50 0
	st16 r10, r9[r10]
.Ltmp142:
.LBB7_4:
.xtaloop 10
	# LOOPMARKER 0
	.loc	1 177 0
	add r7, r7, 1
.Ltmp143:
	eq r0, r7, 10
	bf r0, .LBB7_1
.Ltmp144:
	.loc	1 186 0
	ldw r10, sp[1]
	ldw r9, sp[2]
	ldw r8, sp[3]
	ldw r7, sp[4]
	ldw r6, sp[5]
	ldw r5, sp[6]
	ldw r4, sp[7]
	retsp 8
.Ltmp145:
.Ltmp146:
	.size	xtcp_process_udp_acks, .Ltmp146-xtcp_process_udp_acks
.Lfunc_end7:
.Ltmp147:
	.cfi_endproc
.Leh_func_end7:

	.cc_bottom xtcp_process_udp_acks.function
	.set	xtcp_process_udp_acks.nstackwords,((uip_process.nstackwords $M uip_arp_out.nstackwords $M uip_split_output.nstackwords) + 8)
	.globl	xtcp_process_udp_acks.nstackwords
	.set	xtcp_process_udp_acks.maxcores,uip_arp_out.maxcores $M uip_process.maxcores $M uip_split_output.maxcores $M 1
	.globl	xtcp_process_udp_acks.maxcores
	.set	xtcp_process_udp_acks.maxtimers,uip_arp_out.maxtimers $M uip_process.maxtimers $M uip_split_output.maxtimers $M 0
	.globl	xtcp_process_udp_acks.maxtimers
	.set	xtcp_process_udp_acks.maxchanends,uip_arp_out.maxchanends $M uip_process.maxchanends $M uip_split_output.maxchanends $M 0
	.globl	xtcp_process_udp_acks.maxchanends
	.cc_top xtcp_process_incoming_packet.function
	.globl	xtcp_process_incoming_packet
	.align	2
	.type	xtcp_process_incoming_packet,@function
xtcp_process_incoming_packet:
.Ltmp154:
	.cfi_startproc
.Lfunc_begin8:
	.loc	1 144 0
	entsp 6
.Ltmp155:
	.cfi_def_cfa_offset 24
.Ltmp156:
	.cfi_offset 15, 0
	.loc	1 143 0 prologue_end
.Ltmp157:
	stw r4, sp[5]
.Ltmp158:
	.cfi_offset 4, -4
	stw r5, sp[4]
.Ltmp159:
	.cfi_offset 5, -8
	stw r6, sp[3]
.Ltmp160:
	.cfi_offset 6, -12
	stw r7, sp[2]
.Ltmp161:
	.cfi_offset 7, -16
	stw r8, sp[1]
.Ltmp162:
	.cfi_offset 8, -20
	mov r5, r1
.Ltmp163:
	mov r4, r0
.Ltmp164:
	.loc	1 145 0
	ldw r0, dp[uip_buf]
	ldaw r0, r0[3]
	ldc r6, 0
	ld16s r7, r0[r6]
	zext r7, 16
	ldc r0, 2048
	bl htons
	eq r0, r7, r0
	bf r0, .LBB8_8
	.loc	1 149 0
	ldc r6, 0
	.loc	1 146 0
	ldaw r7, dp[uip_len]
	st16 r5, r7[r6]
	mkmsk r0, 1
	.loc	1 148 0
	bl uip_process
	.loc	1 149 0
	ld16s r0, r7[r6]
	zext r0, 16
	bf r0, .LBB8_14
.Ltmp165:
	.loc	1 150 0
	ldw r0, dp[uip_conn]
	bt r0, .LBB8_6
	ldc r0, 23
	ldw r1, dp[uip_buf]
	ld8u r0, r1[r0]
	eq r1, r0, 1
	bt r1, .LBB8_6
	eq r0, r0, 6
	bt r0, .LBB8_6
	.loc	1 153 0
	ldw r0, dp[uip_udp_conn]
	bu .LBB8_7
.LBB8_6:
	ldc r0, 0
.Ltmp166:
.LBB8_7:
	.loc	1 155 0
	bl uip_arp_out
.Ltmp167:
	.loc	1 49 0
	mov r0, r4
	bl uip_split_output
	.loc	1 50 0
	st16 r6, r7[r6]
	bu .LBB8_14
.Ltmp168:
.LBB8_8:
	ldc r0, 2054
	.loc	1 158 0
	bl htons
	eq r0, r7, r0
	bf r0, .LBB8_14
.Ltmp169:
	.loc	1 159 0
	ldaw r7, dp[uip_len]
	st16 r5, r7[r6]
	.loc	1 160 0
	bl uip_arp_arpin
	.loc	1 162 0
	ld16s r0, r7[r6]
	zext r0, 16
	mov r8, r6
	bf r0, .LBB8_11
.Ltmp170:
	.loc	1 49 0
	mov r0, r4
	bl uip_split_output
	.loc	1 50 0
	ldc r8, 0
	st16 r8, r7[r8]
.Ltmp171:
.LBB8_11:
	ldc r0, 96
	.loc	1 166 0
.Ltmp172:
	mul r0, r8, r0
	ldaw r1, dp[uip_udp_conns]
	add r5, r1, r0
	stw r5, dp[uip_udp_conn]
	ldc r0, 6
	bl uip_process
	.loc	1 167 0
	ld16s r0, r7[r6]
	zext r0, 16
	bf r0, .LBB8_13
	.loc	1 168 0
	mov r0, r5
	bl uip_arp_out
.Ltmp173:
	.loc	1 49 0
	mov r0, r4
	bl uip_split_output
	.loc	1 50 0
	ldc r0, 0
	st16 r0, r7[r0]
.Ltmp174:
.LBB8_13:
.xtaloop 10
	# LOOPMARKER 0
	.loc	1 165 0
	add r8, r8, 1
.Ltmp175:
	eq r0, r8, 10
	bf r0, .LBB8_11
.Ltmp176:
.LBB8_14:
	.loc	1 173 0
	ldw r8, sp[1]
	ldw r7, sp[2]
	ldw r6, sp[3]
	ldw r5, sp[4]
	ldw r4, sp[5]
	retsp 6
.Ltmp177:
.Ltmp178:
	.size	xtcp_process_incoming_packet, .Ltmp178-xtcp_process_incoming_packet
.Lfunc_end8:
.Ltmp179:
	.cfi_endproc
.Leh_func_end8:

	.cc_bottom xtcp_process_incoming_packet.function
	.set	xtcp_process_incoming_packet.nstackwords,((htons.nstackwords $M uip_arp_arpin.nstackwords $M uip_process.nstackwords $M uip_arp_out.nstackwords $M uip_split_output.nstackwords) + 6)
	.globl	xtcp_process_incoming_packet.nstackwords
	.set	xtcp_process_incoming_packet.maxcores,htons.maxcores $M uip_arp_arpin.maxcores $M uip_arp_out.maxcores $M uip_process.maxcores $M uip_split_output.maxcores $M 1
	.globl	xtcp_process_incoming_packet.maxcores
	.set	xtcp_process_incoming_packet.maxtimers,htons.maxtimers $M uip_arp_arpin.maxtimers $M uip_arp_out.maxtimers $M uip_process.maxtimers $M uip_split_output.maxtimers $M 0
	.globl	xtcp_process_incoming_packet.maxtimers
	.set	xtcp_process_incoming_packet.maxchanends,htons.maxchanends $M uip_arp_arpin.maxchanends $M uip_arp_out.maxchanends $M uip_process.maxchanends $M uip_split_output.maxchanends $M 0
	.globl	xtcp_process_incoming_packet.maxchanends
	.cc_top xtcpd_check_connection_poll.function
	.globl	xtcpd_check_connection_poll
	.align	2
	.type	xtcpd_check_connection_poll,@function
xtcpd_check_connection_poll:
.Ltmp188:
	.cfi_startproc
.Lfunc_begin9:
	.loc	1 121 0
	entsp 8
.Ltmp189:
	.cfi_def_cfa_offset 32
.Ltmp190:
	.cfi_offset 15, 0
	.loc	1 120 0 prologue_end
.Ltmp191:
	stw r4, sp[7]
.Ltmp192:
	.cfi_offset 4, -4
	stw r5, sp[6]
.Ltmp193:
	.cfi_offset 5, -8
	stw r6, sp[5]
.Ltmp194:
	.cfi_offset 6, -12
	stw r7, sp[4]
.Ltmp195:
	.cfi_offset 7, -16
	stw r8, sp[3]
.Ltmp196:
	.cfi_offset 8, -20
	stw r9, sp[2]
.Ltmp197:
	.cfi_offset 9, -24
	stw r10, sp[1]
.Ltmp198:
	.cfi_offset 10, -28
	mov r4, r0
.Ltmp199:
	ldc r6, 0
.Ltmp200:
	ldc r7, 68
	ldc r8, 72
	.loc	1 125 0
.Ltmp201:
	ldaw r9, dp[uip_len]
	mov r5, r6
	ldc r10, 0
.LBB9_1:
	ldc r0, 112
	.loc	1 105 0
.Ltmp202:
	mul r0, r5, r0
	ldaw r1, dp[uip_conns]
	add r0, r1, r0
	ldc r1, 84
	add r1, r0, r1
	ldw r1, r1[0]
	add r2, r0, r7
	ldw r2, r2[0]
	or r1, r2, r1
	add r2, r0, r8
	ldw r2, r2[0]
	or r1, r1, r2
	ldc r2, 76
	add r2, r0, r2
	ldw r2, r2[0]
	or r1, r1, r2
	ldc r2, 88
	add r2, r0, r2
	ldw r2, r2[0]
	or r1, r1, r2
.Ltmp203:
	.loc	1 123 0
	bf r1, .LBB9_4
.Ltmp204:
	.loc	1 124 0
	stw r0, dp[uip_conn]
	mkmsk r0, 2
.Ltmp205:
	bl uip_process
	.loc	1 125 0
	ld16s r0, r9[r6]
	zext r0, 16
	bf r0, .LBB9_4
	.loc	1 126 0
	mov r0, r6
	bl uip_arp_out
.Ltmp206:
	.loc	1 49 0
	mov r0, r4
	bl uip_split_output
	.loc	1 50 0
	st16 r6, r9[r6]
.Ltmp207:
.LBB9_4:
.xtaloop 10
	# LOOPMARKER 0
	.loc	1 122 0
	add r5, r5, 1
.Ltmp208:
	eq r0, r5, 10
	bf r0, .LBB9_1
.Ltmp209:
	.loc	1 135 0
	ldc r5, 0
.LBB9_6:
	ldc r0, 96
	.loc	1 133 0
	mul r0, r10, r0
	ldaw r1, dp[uip_udp_conns]
	add r6, r1, r0
.Ltmp210:
	.loc	1 105 0
	add r0, r6, r7
	ldw r0, r0[0]
	ldc r1, 52
	add r1, r6, r1
	ldw r1, r1[0]
	or r0, r1, r0
	ldc r1, 56
	add r1, r6, r1
	ldw r1, r1[0]
	or r0, r0, r1
	ldc r1, 60
	add r1, r6, r1
	ldw r1, r1[0]
	or r0, r0, r1
	add r1, r6, r8
	ldw r1, r1[0]
	or r0, r0, r1
.Ltmp211:
	.loc	1 133 0
	bf r0, .LBB9_9
.Ltmp212:
	.loc	1 134 0
	stw r6, dp[uip_udp_conn]
	ldc r0, 5
	bl uip_process
	.loc	1 135 0
	ld16s r0, r9[r5]
	zext r0, 16
	bf r0, .LBB9_9
	.loc	1 136 0
	mov r0, r6
	bl uip_arp_out
.Ltmp213:
	.loc	1 49 0
	mov r0, r4
	bl uip_split_output
	.loc	1 50 0
	st16 r5, r9[r5]
.Ltmp214:
.LBB9_9:
.xtaloop 10
	# LOOPMARKER 1
	.loc	1 132 0
	add r10, r10, 1
.Ltmp215:
	eq r0, r10, 10
	bf r0, .LBB9_6
.Ltmp216:
	.loc	1 141 0
	ldw r10, sp[1]
	ldw r9, sp[2]
	ldw r8, sp[3]
	ldw r7, sp[4]
	ldw r6, sp[5]
	ldw r5, sp[6]
	ldw r4, sp[7]
	retsp 8
.Ltmp217:
.Ltmp218:
	.size	xtcpd_check_connection_poll, .Ltmp218-xtcpd_check_connection_poll
.Lfunc_end9:
.Ltmp219:
	.cfi_endproc
.Leh_func_end9:

	.cc_bottom xtcpd_check_connection_poll.function
	.set	xtcpd_check_connection_poll.nstackwords,((uip_process.nstackwords $M uip_arp_out.nstackwords $M uip_split_output.nstackwords) + 8)
	.globl	xtcpd_check_connection_poll.nstackwords
	.set	xtcpd_check_connection_poll.maxcores,uip_arp_out.maxcores $M uip_process.maxcores $M uip_split_output.maxcores $M 1
	.globl	xtcpd_check_connection_poll.maxcores
	.set	xtcpd_check_connection_poll.maxtimers,uip_arp_out.maxtimers $M uip_process.maxtimers $M uip_split_output.maxtimers $M 0
	.globl	xtcpd_check_connection_poll.maxtimers
	.set	xtcpd_check_connection_poll.maxchanends,uip_arp_out.maxchanends $M uip_process.maxchanends $M uip_split_output.maxchanends $M 0
	.globl	xtcpd_check_connection_poll.maxchanends
	.section	.dp.data,"awd",@progbits
	.cc_top uip_buf.data
	.globl	uip_buf
	.align	4
	.type	uip_buf,@object
	.size uip_buf,4
uip_buf:
	.long	uip_buf32
	.cc_bottom uip_buf.data
	.section	.dp.bss,"awd",@nobits
	.cc_top dhcp_done.b.data
	.align	4
	.type	dhcp_done.b,@object
	.size dhcp_done.b,1
dhcp_done.b:
	.byte	0
	.space	3
	.cc_bottom dhcp_done.b.data
	.cc_top uip_static_ip.data
	.globl	uip_static_ip
	.align	4
	.type	uip_static_ip,@object
	.size uip_static_ip,4
uip_static_ip:
	.long	0
	.cc_bottom uip_static_ip.data
	.cc_top uip_static_ipconfig.data
	.globl	uip_static_ipconfig
	.align	4
	.type	uip_static_ipconfig,@object
	.size uip_static_ipconfig,12
uip_static_ipconfig:
	.space	12
	.cc_bottom uip_static_ipconfig.data
	.cc_top uip_buf32.data
	.globl	uip_buf32.globound
	.set	uip_buf32.globound,382
	.globl	uip_buf32
	.align	4
	.type	uip_buf32,@object
	.size uip_buf32,1528
uip_buf32:
	.space	1528
	.cc_bottom uip_buf32.data
	.cfi_sections .debug_frame
	.text
.Ltext_end:
	.section	.dp.data,"awd",@progbits
.Ldata_end:
	.text
.Lsection_end1: