	.file	"../src/xhttpd.xc"

	.inline_definition delay_seconds
	.inline_definition delay_milliseconds
	.inline_definition delay_microseconds
	.inline_definition xtcp_complete_send
	.set usage.anon.0,0
	.set usage.anon.1,0
	.set usage.anon.2,0
	.set usage.anon.3,0
	.call xhttpd,xtcp_event
	.call xhttpd,printstrln
	.call xhttpd,httpd_init
	.call xhttpd,httpd_handle_event
	.call usage.anon.3,xtcp_send
	.call usage.anon.2,delay_ticks_longlong
	.call usage.anon.1,delay_ticks_longlong
	.call usage.anon.0,delay_ticks_longlong
	.set usage.anon.0.locnoside, 1
	.set usage.anon.1.locnoside, 1
	.set usage.anon.2.locnoside, 1
	.set usage.anon.0.locnochandec, 1
	.set usage.anon.1.locnochandec, 1
	.set usage.anon.2.locnochandec, 1
	.set usage.anon.3.locnochandec, 1
	.set xhttpd.locnochandec, 1
	.set usage.anon.0.locnoglobalaccess, 1
	.set usage.anon.1.locnoglobalaccess, 1
	.set usage.anon.2.locnoglobalaccess, 1
	.set usage.anon.3.locnoglobalaccess, 1
	.set xhttpd.locnoglobalaccess, 1
	.set usage.anon.0.locnointerfaceaccess, 1
	.set usage.anon.1.locnointerfaceaccess, 1
	.set usage.anon.2.locnointerfaceaccess, 1
	.set usage.anon.3.locnointerfaceaccess, 1
	.set xhttpd.locnointerfaceaccess, 1
	.set usage.anon.0.locnonotificationselect, 1
	.set usage.anon.1.locnonotificationselect, 1
	.set usage.anon.2.locnonotificationselect, 1
	.set usage.anon.3.locnonotificationselect, 1
	.set xhttpd.locnonotificationselect, 1
	.assert 1,xtcp_event.actnochandec,"../src/xhttpd.xc:24: error: call to function `xtcp_event' which declares a channel from within a transaction statement"


	.file	1 "/home/vdelacruz/Documents/Ethernet 2 Ports/app_simple_webserver/.build_IPV4/../src/xhttpd.xc"
	.file	2 "/home/vdelacruz/Documents/Ethernet 2 Ports/app_simple_webserver/.build_IPV4/timer.h"
	.file	3 "/home/vdelacruz/Documents/Ethernet 2 Ports/app_simple_webserver/.build_IPV4/xtcp_client.h"
	.text
.Ltext_begin:
	.section	.dp.data,"awd",@progbits
	.text
	.cc_top xhttpd.function
	.globl	xhttpd
	.align	4
	.type	xhttpd,@function
xhttpd:
.Ltmp4:
	.cfi_startproc
.Lfunc_begin0:
	.loc	1 13 0
.Lxtalabel0:
	entsp 13
.Ltmp5:
	.cfi_def_cfa_offset 52
.Ltmp6:
	.cfi_offset 15, 0
	.loc	1 12 0 prologue_end
.Ltmp7:
	stw r4, sp[12]
.Ltmp8:
	.cfi_offset 4, -4
	stw r5, sp[11]
.Ltmp9:
	.cfi_offset 5, -8
	stw r6, sp[10]
.Ltmp10:
	.cfi_offset 6, -12
	mov r4, r0
.Ltmp11:
	.loc	1 15 0
	ldaw r0, dp[.str]
	ldc r1, 41
.Lxta.call_labels0:
	bl printstrln
	.loc	1 17 0
	mov r0, r4
.Lxta.call_labels1:
	bl httpd_init
	.loc	1 22 0
	clre
	ldap r11, .Ltmp12
	setv res[r4], r11
	eeu res[r4]
	mkmsk r5, 1
	ldaw r6, sp[1]
	.loc	1 26 0
	
	.xtabranch .LBB0_1
waiteu
.Ltmp12:
.LBB0_1:
.Lxtalabel1:
	.loc	1 25 0
	chkct res[r4], 1
	.loc	1 25 0
	mov r0, r5
	mov r1, r4
	mov r2, r6
.Lxta.call_labels2:
	bl xtcp_event
	.loc	1 25 0
	bf r0, .LBB0_3
	outct res[r4], 1
	chkct res[r4], 1
	bu .LBB0_4
.LBB0_3:
	chkct res[r4], 1
	outct res[r4], 1
.LBB0_4:
.Lxtalabel2:
.Ltmp13:
	mov r0, r4
	mov r1, r6
	bl httpd_handle_event
	.loc	1 22 0
	clre
	ldap r11, .Ltmp12
	setv res[r4], r11
	eeu res[r4]
	.loc	1 26 0
	
	.xtabranch .LBB0_1
waiteu
.Ltmp14:
.Ltmp15:
	.size	xhttpd, .Ltmp15-xhttpd
.Lfunc_end0:
.Ltmp16:
	.cfi_endproc
.Leh_func_end0:

	.align	4
	.cc_bottom xhttpd.function
	.set	xhttpd.nstackwords,((printstrln.nstackwords $M httpd_init.nstackwords $M xtcp_event.nstackwords $M httpd_handle_event.nstackwords) + 13)
	.globl	xhttpd.nstackwords
	.set	xhttpd.maxcores,httpd_handle_event.maxcores $M httpd_init.maxcores $M printstrln.maxcores $M xtcp_event.maxcores $M 1
	.globl	xhttpd.maxcores
	.set	xhttpd.maxtimers,httpd_handle_event.maxtimers $M httpd_init.maxtimers $M printstrln.maxtimers $M xtcp_event.maxtimers $M 0
	.globl	xhttpd.maxtimers
	.set	xhttpd.maxchanends,httpd_handle_event.maxchanends $M httpd_init.maxchanends $M printstrln.maxchanends $M xtcp_event.maxchanends $M 0
	.globl	xhttpd.maxchanends
	.section	.dp.rodata,"awd",@progbits
	.cc_top .str.data
	.align	4
	.type	.str,@object
	.size .str,41
.str:
.asciiz "**WELCOME TO THE SIMPLE WEBSERVER DEMO**"
	.cc_bottom .str.data
	.cfi_sections .debug_frame
	.text
.Ltext_end:
	.section	.dp.data,"awd",@progbits
.Ldata_end:
	.text
.Lsection_end1:
	.section	.xtacalltable,"",@progbits
.Lentries_start0:
	.long	.Lentries_end1-.Lentries_start0
	.long	0
	.ascii	 "/home/vdelacruz/Documents/Ethernet 2 Ports/app_simple_webserver/.build_IPV4"
	.byte	0
.cc_top cc_0,.Lxta.call_labels0
	.ascii	 "../src/xhttpd.xc"
	.byte	0
	.long	15
	.long	.Lxta.call_labels0
.cc_bottom cc_0
.cc_top cc_1,.Lxta.call_labels1
	.ascii	 "../src/xhttpd.xc"
	.byte	0
	.long	17
	.long	.Lxta.call_labels1
.cc_bottom cc_1
.cc_top cc_2,.Lxta.call_labels2
	.ascii	 "../src/xhttpd.xc"
	.byte	0
	.long	24
	.long	.Lxta.call_labels2
.cc_bottom cc_2
.Lentries_end1:
	.section	.xtalabeltable,"",@progbits
.Lentries_start2:
	.long	.Lentries_end3-.Lentries_start2
	.long	0
	.ascii	 "/home/vdelacruz/Documents/Ethernet 2 Ports/app_simple_webserver/.build_IPV4"
	.byte	0
.cc_top cc_3,.Lxtalabel0
	.ascii	 "../src/xhttpd.xc"
	.byte	0
	.long	13
	.long	20
	.long	.Lxtalabel0
.cc_bottom cc_3
.cc_top cc_4,.Lxtalabel0
	.ascii	 "../src/xhttpd.xc"
	.byte	0
	.long	21
	.long	24
	.long	.Lxtalabel0
.cc_bottom cc_4
.cc_top cc_5,.Lxtalabel2
	.ascii	 "../src/xhttpd.xc"
	.byte	0
	.long	21
	.long	24
	.long	.Lxtalabel2
.cc_bottom cc_5
.cc_top cc_6,.Lxtalabel1
	.ascii	 "../src/xhttpd.xc"
	.byte	0
	.long	25
	.long	27
	.long	.Lxtalabel1
.cc_bottom cc_6
.Lentries_end3:
