	.file	"/home/vdelacruz/Documents/Ethernet sin mii/module_xtcp/src/xtcp_blocking_client.xc"

	.inline_definition xtcp_complete_send
	.set usage.anon.0,0
	.call xtcp_read,xtcp_send
	.call xtcp_read,xtcp_recvi
	.call xtcp_read,xtcp_event
	.call xtcp_read,xtcp_close
	.call xtcp_write,xtcp_sendi
	.call xtcp_write,xtcp_init_send
	.call xtcp_write,xtcp_event
	.call xtcp_write,xtcp_close
	.call xtcp_wait_for_connection,xtcp_event
	.call xtcp_wait_for_ifup,xtcp_event
	.call usage.anon.0,xtcp_send
	.set usage.anon.0.locnochandec, 1
	.set xtcp_wait_for_ifup.locnochandec, 1
	.set xtcp_wait_for_connection.locnochandec, 1
	.set xtcp_write.locnochandec, 1
	.set xtcp_read.locnochandec, 1
	.set usage.anon.0.locnoglobalaccess, 1
	.set xtcp_wait_for_ifup.locnoglobalaccess, 1
	.set xtcp_wait_for_connection.locnoglobalaccess, 1
	.set xtcp_write.locnoglobalaccess, 1
	.set xtcp_read.locnoglobalaccess, 1
	.set usage.anon.0.locnointerfaceaccess, 1
	.set xtcp_wait_for_ifup.locnointerfaceaccess, 1
	.set xtcp_wait_for_connection.locnointerfaceaccess, 1
	.set xtcp_write.locnointerfaceaccess, 1
	.set xtcp_read.locnointerfaceaccess, 1
	.set usage.anon.0.locnonotificationselect, 1
	.set xtcp_wait_for_ifup.locnonotificationselect, 1
	.set xtcp_wait_for_connection.locnonotificationselect, 1
	.set xtcp_write.locnonotificationselect, 1
	.set xtcp_read.locnonotificationselect, 1
	.assert 1,xtcp_event.actnochandec,"/home/vdelacruz/Documents/Ethernet sin mii/module_xtcp/src/xtcp_blocking_client.xc:13: error: call to function `xtcp_event' which declares a channel from within a transaction statement"


	.file	1 "/home/vdelacruz/Documents/Ethernet sin mii/module_xtcp/src/xtcp_blocking_client.xc"
	.file	2 "/home/vdelacruz/Documents/Ethernet sin mii/app_simple_webserver/.build_IPV4/xtcp_client.h"
	.text
.Ltext_begin:
	.section	.dp.data,"awd",@progbits
	.text
	.cc_top xtcp_wait_for_ifup.function
	.globl	xtcp_wait_for_ifup
	.align	2
	.type	xtcp_wait_for_ifup,@function
xtcp_wait_for_ifup:
.Ltmp4:
	.cfi_startproc
.Lfunc_begin0:
	.loc	1 9 0
.Lxtalabel0:
	entsp 13
.Ltmp5:
	.cfi_def_cfa_offset 52
.Ltmp6:
	.cfi_offset 15, 0
	.loc	1 8 0 prologue_end
.Ltmp7:
	stw r4, sp[12]
.Ltmp8:
	.cfi_offset 4, -4
	stw r5, sp[11]
.Ltmp9:
	.cfi_offset 5, -8
	stw r6, sp[10]
.Ltmp10:
	.cfi_offset 6, -12
	mov r4, r0
.Ltmp11:
	ldc r0, 11
	.loc	1 11 0
.Ltmp12:
	stw r0, sp[4]
	mkmsk r5, 1
	ldaw r6, sp[1]
.LBB0_1:
.Lxtalabel1:
	.loc	1 13 0
	chkct res[r4], 1
	.loc	1 13 0
	mov r0, r5
	mov r1, r4
	mov r2, r6
.Lxta.call_labels0:
	bl xtcp_event
	.loc	1 13 0
	bf r0, .LBB0_3
	outct res[r4], 1
	chkct res[r4], 1
	bu .LBB0_4
.LBB0_3:
	chkct res[r4], 1
	outct res[r4], 1
.LBB0_4:
.Ltmp13:
	.loc	1 14 0
	ldw r0, sp[4]
.Lxta.loop_labels0:
	# LOOPMARKER 0
	eq r0, r0, 9
	bf r0, .LBB0_1
.Ltmp14:
.Lxtalabel2:
	ldw r6, sp[10]
	ldw r5, sp[11]
	ldw r4, sp[12]
	retsp 13
.Ltmp15:
	.size	xtcp_wait_for_ifup, .Ltmp15-xtcp_wait_for_ifup
.Lfunc_end0:
.Ltmp16:
	.cfi_endproc
.Leh_func_end0:

	.cc_bottom xtcp_wait_for_ifup.function
	.set	xtcp_wait_for_ifup.nstackwords,(xtcp_event.nstackwords + 13)
	.globl	xtcp_wait_for_ifup.nstackwords
	.set	xtcp_wait_for_ifup.maxcores,xtcp_event.maxcores $M 1
	.globl	xtcp_wait_for_ifup.maxcores
	.set	xtcp_wait_for_ifup.maxtimers,xtcp_event.maxtimers $M 0
	.globl	xtcp_wait_for_ifup.maxtimers
	.set	xtcp_wait_for_ifup.maxchanends,xtcp_event.maxchanends $M 0
	.globl	xtcp_wait_for_ifup.maxchanends
	.cc_top xtcp_wait_for_connection.function
	.globl	xtcp_wait_for_connection
	.align	2
	.type	xtcp_wait_for_connection,@function
xtcp_wait_for_connection:
.Ltmp22:
	.cfi_startproc
.Lfunc_begin1:
	.loc	1 19 0
.Lxtalabel3:
	entsp 14
.Ltmp23:
	.cfi_def_cfa_offset 56
.Ltmp24:
	.cfi_offset 15, 0
	.loc	1 18 0 prologue_end
.Ltmp25:
	stw r4, sp[13]
.Ltmp26:
	.cfi_offset 4, -4
	stw r5, sp[12]
.Ltmp27:
	.cfi_offset 5, -8
	stw r6, sp[11]
.Ltmp28:
	.cfi_offset 6, -12
	stw r7, sp[10]
.Ltmp29:
	.cfi_offset 7, -16
	mov r5, r1
.Ltmp30:
	mov r4, r0
	ldc r0, 11
	.loc	1 21 0
.Ltmp31:
	stw r0, sp[4]
	mkmsk r6, 1
	ldaw r7, sp[1]
.LBB1_1:
.Lxtalabel4:
	.loc	1 23 0
	chkct res[r5], 1
	.loc	1 23 0
	mov r0, r6
	mov r1, r5
	mov r2, r7
.Lxta.call_labels1:
	bl xtcp_event
	.loc	1 23 0
	bf r0, .LBB1_3
	outct res[r5], 1
	chkct res[r5], 1
	bu .LBB1_4
.LBB1_3:
	chkct res[r5], 1
	outct res[r5], 1
.LBB1_4:
.Ltmp32:
	.loc	1 24 0
	ldw r0, sp[4]
.Lxta.loop_labels1:
	# LOOPMARKER 0
	bt r0, .LBB1_1
.Ltmp33:
.Lxtalabel5:
	ldaw r1, sp[1]
	ldc r2, 36
	.loc	1 25 0
	mov r0, r4
	bl __memcpy_4
	ldw r7, sp[10]
	ldw r6, sp[11]
	ldw r5, sp[12]
	ldw r4, sp[13]
	retsp 14
.Ltmp34:
.Ltmp35:
	.size	xtcp_wait_for_connection, .Ltmp35-xtcp_wait_for_connection
.Lfunc_end1:
.Ltmp36:
	.cfi_endproc
.Leh_func_end1:

	.cc_bottom xtcp_wait_for_connection.function
	.set	xtcp_wait_for_connection.nstackwords,((xtcp_event.nstackwords $M __memcpy_4.nstackwords) + 14)
	.globl	xtcp_wait_for_connection.nstackwords
	.set	xtcp_wait_for_connection.maxcores,xtcp_event.maxcores $M 1
	.globl	xtcp_wait_for_connection.maxcores
	.set	xtcp_wait_for_connection.maxtimers,xtcp_event.maxtimers $M 0
	.globl	xtcp_wait_for_connection.maxtimers
	.set	xtcp_wait_for_connection.maxchanends,xtcp_event.maxchanends $M 0
	.globl	xtcp_wait_for_connection.maxchanends
	.cc_top xtcp_write.function
	.globl	xtcp_write
	.align	2
	.type	xtcp_write,@function
xtcp_write:
.Ltmp45:
	.cfi_startproc
.Lfunc_begin2:
	.loc	1 32 0
.Lxtalabel6:
	entsp 10
.Ltmp46:
	.cfi_def_cfa_offset 40
.Ltmp47:
	.cfi_offset 15, 0
	.loc	1 28 0 prologue_end
.Ltmp48:
	stw r4, sp[9]
.Ltmp49:
	.cfi_offset 4, -4
	stw r5, sp[8]
.Ltmp50:
	.cfi_offset 5, -8
	stw r6, sp[7]
.Ltmp51:
	.cfi_offset 6, -12
	stw r7, sp[6]
.Ltmp52:
	.cfi_offset 7, -16
	stw r8, sp[5]
.Ltmp53:
	.cfi_offset 8, -20
	stw r9, sp[4]
.Ltmp54:
	.cfi_offset 9, -24
	stw r10, sp[3]
.Ltmp55:
	.cfi_offset 10, -28
	stw r3, sp[2]
.Ltmp56:
	mov r6, r2
.Ltmp57:
	mov r7, r1
.Ltmp58:
	mov r5, r0
.Ltmp59:
	.loc	1 36 0
	ldw r8, r7[0]
.Ltmp60:
	.loc	1 37 0
	mov r0, r5
	mov r1, r7
.Lxta.call_labels2:
	bl xtcp_init_send
	ldc r9, 0
	mov r0, r9
.LBB2_1:
	mov r10, r9
	mov r9, r0
	.loc	1 59 0
	sub r4, r9, r10
	bu .LBB2_3
.Ltmp61:
.LBB2_2:
.Lxtalabel7:
	.loc	1 43 0
	mov r0, r5
	mov r1, r7
.Lxta.call_labels3:
	bl xtcp_close
.LBB2_3:
.Lxtalabel8:
.Ltmp62:
	.loc	1 39 0
	chkct res[r5], 1
	mkmsk r0, 1
	.loc	1 39 0
	mov r1, r5
	mov r2, r7
.Lxta.call_labels4:
	bl xtcp_event
	.loc	1 39 0
	bf r0, .LBB2_5
	outct res[r5], 1
	chkct res[r5], 1
	bu .LBB2_6
.LBB2_5:
	chkct res[r5], 1
	outct res[r5], 1
.LBB2_6:
.Lxtalabel9:
.Ltmp63:
	.loc	1 40 0
	ldw r1, r7[3]
	ldc r0, 10
	lsu r2, r0, r1
	ldc r0, 0
	bt r2, .LBB2_3
.Ltmp64:
.Lxtalabel10:
	
	.xtabranch .Ljumptable0+2,.Ljumptable0+4,.Ljumptable0+6,.Ljumptable0+8,.Ljumptable0+10,.Ljumptable0+12,.Ljumptable0+14,.Ljumptable0+16,.Ljumptable0+18,.Ljumptable0+20,.Ljumptable0+22
.Ljumptable0:
		bru r1
	.jmptable .LBB2_2,.LBB2_13,.LBB2_8,.LBB2_8,.LBB2_12,.LBB2_15,.LBB2_15,.LBB2_15,.LBB2_3,.LBB2_3,.LBB2_14
.LBB2_8:
.Lxtalabel11:
	.loc	1 47 0
.Ltmp65:
	ldw r0, sp[2]
	sub r0, r0, r9
.Ltmp66:
	.loc	1 48 0
	ldw r4, r7[8]
.Ltmp67:
	lsu r1, r4, r0
	bt r1, .LBB2_10
.Ltmp68:
.Lxtalabel12:
	mov r4, r0
.LBB2_10:
.Lxtalabel13:
	ldw r0, sp[11]
	.loc	1 51 0
	stw r0, sp[1]
	mov r0, r5
	mov r1, r6
	mov r2, r9
	mov r3, r4
.Lxta.call_labels5:
	bl xtcp_sendi
	.loc	1 53 0
	add r0, r4, r9
	.loc	1 54 0
	bt r4, .LBB2_1
	bu .LBB2_11
.Ltmp69:
.LBB2_12:
.Lxtalabel14:
	ldw r0, sp[11]
	.loc	1 59 0
	stw r0, sp[1]
	mov r0, r5
	mov r1, r6
	mov r2, r10
	mov r3, r4
.Lxta.call_labels6:
	bl xtcp_sendi
	bu .LBB2_3
.LBB2_15:
.Lxtalabel15:
.Ltmp70:
	.loc	1 70 0
	ldw r0, r7[0]
	eq r0, r0, r8
	bf r0, .LBB2_3
.Ltmp71:
	ldc r0, 0
	bu .LBB2_14
.LBB2_11:
	mkmsk r0, 1
	bu .LBB2_14
.LBB2_13:
.Lxtalabel16:
.Ltmp72:
	.loc	1 62 0
	chkct res[r5], 1
	ldc r0, 0
	.loc	1 62 0
.Lxta.endpoint_labels0:
	out res[r5], r0
	.loc	1 63 0
	ldw r0, sp[2]
	eq r0, r10, r0
	.loc	1 62 0
	outct res[r5], 1
	chkct res[r5], 1
.Ltmp73:
.LBB2_14:
.Lxtalabel17:
	ldw r10, sp[3]
	ldw r9, sp[4]
	ldw r8, sp[5]
	ldw r7, sp[6]
	ldw r6, sp[7]
	ldw r5, sp[8]
	ldw r4, sp[9]
	retsp 10
.Ltmp74:
	.size	xtcp_write, .Ltmp74-xtcp_write
.Lfunc_end2:
.Ltmp75:
	.cfi_endproc
.Leh_func_end2:

	.cc_bottom xtcp_write.function
	.set	xtcp_write.nstackwords,((xtcp_init_send.nstackwords $M xtcp_event.nstackwords $M xtcp_close.nstackwords $M xtcp_sendi.nstackwords) + 10)
	.globl	xtcp_write.nstackwords
	.set	xtcp_write.maxcores,xtcp_close.maxcores $M xtcp_event.maxcores $M xtcp_init_send.maxcores $M xtcp_sendi.maxcores $M 1
	.globl	xtcp_write.maxcores
	.set	xtcp_write.maxtimers,xtcp_close.maxtimers $M xtcp_event.maxtimers $M xtcp_init_send.maxtimers $M xtcp_sendi.maxtimers $M 0
	.globl	xtcp_write.maxtimers
	.set	xtcp_write.maxchanends,xtcp_close.maxchanends $M xtcp_event.maxchanends $M xtcp_init_send.maxchanends $M xtcp_sendi.maxchanends $M 0
	.globl	xtcp_write.maxchanends
	.cc_top xtcp_read.function
	.globl	xtcp_read
	.align	2
	.type	xtcp_read,@function
xtcp_read:
.Ltmp84:
	.cfi_startproc
.Lfunc_begin3:
	.loc	1 89 0
.Lxtalabel18:
	entsp 8
.Ltmp85:
	.cfi_def_cfa_offset 32
.Ltmp86:
	.cfi_offset 15, 0
	.loc	1 85 0 prologue_end
.Ltmp87:
	stw r4, sp[7]
.Ltmp88:
	.cfi_offset 4, -4
	stw r5, sp[6]
.Ltmp89:
	.cfi_offset 5, -8
	stw r6, sp[5]
.Ltmp90:
	.cfi_offset 6, -12
	stw r7, sp[4]
.Ltmp91:
	.cfi_offset 7, -16
	stw r8, sp[3]
.Ltmp92:
	.cfi_offset 8, -20
	stw r9, sp[2]
.Ltmp93:
	.cfi_offset 9, -24
	stw r10, sp[1]
.Ltmp94:
	.cfi_offset 10, -28
	mov r4, r3
.Ltmp95:
	mov r5, r2
.Ltmp96:
	mov r6, r1
.Ltmp97:
	mov r7, r0
.Ltmp98:
	mkmsk r0, 1
	.loc	1 92 0
.Ltmp99:
	lss r0, r4, r0
	bf r0, .LBB3_2
.Ltmp100:
	ldc r0, 0
	bu .LBB3_14
.LBB3_2:
.Ltmp101:
	.loc	1 91 0
	ldw r10, r6[0]
.Ltmp102:
	ldc r9, 0
	mov r8, r9
.LBB3_3:
.Lxtalabel19:
	.loc	1 93 0
	chkct res[r7], 1
	mkmsk r0, 1
	.loc	1 93 0
	mov r1, r7
	mov r2, r6
.Lxta.call_labels7:
	bl xtcp_event
	.loc	1 93 0
	bf r0, .LBB3_5
	outct res[r7], 1
	chkct res[r7], 1
	bu .LBB3_6
.LBB3_5:
	chkct res[r7], 1
	outct res[r7], 1
.LBB3_6:
.Lxtalabel20:
	.loc	1 94 0
	ldw r1, r6[3]
	ldc r0, 10
	lsu r0, r0, r1
	bt r0, .LBB3_13
.Ltmp103:
.Lxtalabel21:
	mkmsk r0, 32
	
	.xtabranch .Ljumptable1+2,.Ljumptable1+4,.Ljumptable1+6,.Ljumptable1+8,.Ljumptable1+10,.Ljumptable1+12,.Ljumptable1+14,.Ljumptable1+16,.Ljumptable1+18,.Ljumptable1+20,.Ljumptable1+22
.Ljumptable1:
		bru r1
	.jmptable .LBB3_12,.LBB3_8,.LBB3_9,.LBB3_9,.LBB3_9,.LBB3_10,.LBB3_10,.LBB3_10,.LBB3_13,.LBB3_13,.LBB3_14
.LBB3_8:
.Lxtalabel22:
	.loc	1 102 0
.Ltmp104:
	mov r0, r7
	mov r1, r5
	mov r2, r8
	ldw r3, sp[9]
.Lxta.call_labels8:
	bl xtcp_recvi
.Ltmp105:
	.loc	1 103 0
	add r8, r0, r8
	bu .LBB3_13
.Ltmp106:
.LBB3_9:
.Lxtalabel23:
	.loc	1 109 0
	mov r0, r7
	mov r1, r9
	mov r2, r9
	mov r3, r9
.Lxta.call_labels9:
	bl xtcp_send
	bu .LBB3_13
.LBB3_10:
.Lxtalabel24:
	.loc	1 114 0
	ldw r0, r6[0]
	eq r0, r0, r10
	bf r0, .LBB3_13
	bu .LBB3_11
.LBB3_12:
.Lxtalabel25:
	.loc	1 97 0
	mov r0, r7
	mov r1, r6
.Lxta.call_labels10:
	bl xtcp_close
.LBB3_13:
.Lxtalabel26:
.Ltmp107:
	.loc	1 92 0
	lss r1, r8, r4
.Lxta.loop_labels2:
	# LOOPMARKER 0
	mov r0, r8
	bt r1, .LBB3_3
.Ltmp108:
.LBB3_14:
	ldw r10, sp[1]
	ldw r9, sp[2]
	ldw r8, sp[3]
	ldw r7, sp[4]
	ldw r6, sp[5]
	ldw r5, sp[6]
	ldw r4, sp[7]
	retsp 8
.LBB3_11:
	mkmsk r0, 32
	bu .LBB3_14
.Ltmp109:
	.size	xtcp_read, .Ltmp109-xtcp_read
.Lfunc_end3:
.Ltmp110:
	.cfi_endproc
.Leh_func_end3:

	.cc_bottom xtcp_read.function
	.set	xtcp_read.nstackwords,((xtcp_event.nstackwords $M xtcp_close.nstackwords $M xtcp_recvi.nstackwords $M xtcp_send.nstackwords) + 8)
	.globl	xtcp_read.nstackwords
	.set	xtcp_read.maxcores,xtcp_close.maxcores $M xtcp_event.maxcores $M xtcp_recvi.maxcores $M xtcp_send.maxcores $M 1
	.globl	xtcp_read.maxcores
	.set	xtcp_read.maxtimers,xtcp_close.maxtimers $M xtcp_event.maxtimers $M xtcp_recvi.maxtimers $M xtcp_send.maxtimers $M 0
	.globl	xtcp_read.maxtimers
	.set	xtcp_read.maxchanends,xtcp_close.maxchanends $M xtcp_event.maxchanends $M xtcp_recvi.maxchanends $M xtcp_send.maxchanends $M 0
	.globl	xtcp_read.maxchanends
	.cfi_sections .debug_frame
.Ltext_end:
	.section	.dp.data,"awd",@progbits
.Ldata_end:
	.text
.Lsection_end1:
	.section	.xtacalltable,"",@progbits
.Lentries_start0:
	.long	.Lentries_end1-.Lentries_start0
	.long	0
	.ascii	 "/home/vdelacruz/Documents/Ethernet sin mii/app_simple_webserver/.build_IPV4"
	.byte	0
.cc_top cc_0,.Lxta.call_labels0
	.ascii	 "/home/vdelacruz/Documents/Ethernet sin mii/module_xtcp/src/xtcp_blocking_client.xc"
	.byte	0
	.long	13
	.long	.Lxta.call_labels0
.cc_bottom cc_0
.cc_top cc_1,.Lxta.call_labels1
	.ascii	 "/home/vdelacruz/Documents/Ethernet sin mii/module_xtcp/src/xtcp_blocking_client.xc"
	.byte	0
	.long	23
	.long	.Lxta.call_labels1
.cc_bottom cc_1
.cc_top cc_2,.Lxta.call_labels2
	.ascii	 "/home/vdelacruz/Documents/Ethernet sin mii/module_xtcp/src/xtcp_blocking_client.xc"
	.byte	0
	.long	37
	.long	.Lxta.call_labels2
.cc_bottom cc_2
.cc_top cc_3,.Lxta.call_labels4
	.ascii	 "/home/vdelacruz/Documents/Ethernet sin mii/module_xtcp/src/xtcp_blocking_client.xc"
	.byte	0
	.long	39
	.long	.Lxta.call_labels4
.cc_bottom cc_3
.cc_top cc_4,.Lxta.call_labels3
	.ascii	 "/home/vdelacruz/Documents/Ethernet sin mii/module_xtcp/src/xtcp_blocking_client.xc"
	.byte	0
	.long	43
	.long	.Lxta.call_labels3
.cc_bottom cc_4
.cc_top cc_5,.Lxta.call_labels5
	.ascii	 "/home/vdelacruz/Documents/Ethernet sin mii/module_xtcp/src/xtcp_blocking_client.xc"
	.byte	0
	.long	51
	.long	.Lxta.call_labels5
.cc_bottom cc_5
.cc_top cc_6,.Lxta.call_labels6
	.ascii	 "/home/vdelacruz/Documents/Ethernet sin mii/module_xtcp/src/xtcp_blocking_client.xc"
	.byte	0
	.long	59
	.long	.Lxta.call_labels6
.cc_bottom cc_6
.cc_top cc_7,.Lxta.call_labels7
	.ascii	 "/home/vdelacruz/Documents/Ethernet sin mii/module_xtcp/src/xtcp_blocking_client.xc"
	.byte	0
	.long	93
	.long	.Lxta.call_labels7
.cc_bottom cc_7
.cc_top cc_8,.Lxta.call_labels10
	.ascii	 "/home/vdelacruz/Documents/Ethernet sin mii/module_xtcp/src/xtcp_blocking_client.xc"
	.byte	0
	.long	97
	.long	.Lxta.call_labels10
.cc_bottom cc_8
.cc_top cc_9,.Lxta.call_labels8
	.ascii	 "/home/vdelacruz/Documents/Ethernet sin mii/module_xtcp/src/xtcp_blocking_client.xc"
	.byte	0
	.long	102
	.long	.Lxta.call_labels8
.cc_bottom cc_9
.cc_top cc_10,.Lxta.call_labels9
	.ascii	 "/home/vdelacruz/Documents/Ethernet sin mii/module_xtcp/src/xtcp_blocking_client.xc"
	.byte	0
	.long	109
	.long	.Lxta.call_labels9
.cc_bottom cc_10
.Lentries_end1:
	.section	.xtaendpointtable,"",@progbits
.Lentries_start2:
	.long	.Lentries_end3-.Lentries_start2
	.long	0
	.ascii	 "/home/vdelacruz/Documents/Ethernet sin mii/app_simple_webserver/.build_IPV4"
	.byte	0
.cc_top cc_11,.Lxta.endpoint_labels0
	.ascii	 "/home/vdelacruz/Documents/Ethernet sin mii/module_xtcp/src/xtcp_blocking_client.xc"
	.byte	0
	.long	62
	.long	.Lxta.endpoint_labels0
.cc_bottom cc_11
.Lentries_end3:
	.section	.xtalabeltable,"",@progbits
.Lentries_start4:
	.long	.Lentries_end5-.Lentries_start4
	.long	0
	.ascii	 "/home/vdelacruz/Documents/Ethernet sin mii/app_simple_webserver/.build_IPV4"
	.byte	0
.cc_top cc_12,.Lxtalabel0
	.ascii	 "/home/vdelacruz/Documents/Ethernet sin mii/module_xtcp/src/xtcp_blocking_client.xc"
	.byte	0
	.long	9
	.long	12
	.long	.Lxtalabel0
.cc_bottom cc_12
.cc_top cc_13,.Lxtalabel1
	.ascii	 "/home/vdelacruz/Documents/Ethernet sin mii/module_xtcp/src/xtcp_blocking_client.xc"
	.byte	0
	.long	13
	.long	14
	.long	.Lxtalabel1
.cc_bottom cc_13
.cc_top cc_14,.Lxtalabel2
	.ascii	 "/home/vdelacruz/Documents/Ethernet sin mii/module_xtcp/src/xtcp_blocking_client.xc"
	.byte	0
	.long	15
	.long	16
	.long	.Lxtalabel2
.cc_bottom cc_14
.cc_top cc_15,.Lxtalabel3
	.ascii	 "/home/vdelacruz/Documents/Ethernet sin mii/module_xtcp/src/xtcp_blocking_client.xc"
	.byte	0
	.long	19
	.long	22
	.long	.Lxtalabel3
.cc_bottom cc_15
.cc_top cc_16,.Lxtalabel4
	.ascii	 "/home/vdelacruz/Documents/Ethernet sin mii/module_xtcp/src/xtcp_blocking_client.xc"
	.byte	0
	.long	23
	.long	24
	.long	.Lxtalabel4
.cc_bottom cc_16
.cc_top cc_17,.Lxtalabel5
	.ascii	 "/home/vdelacruz/Documents/Ethernet sin mii/module_xtcp/src/xtcp_blocking_client.xc"
	.byte	0
	.long	25
	.long	26
	.long	.Lxtalabel5
.cc_bottom cc_17
.cc_top cc_18,.Lxtalabel6
	.ascii	 "/home/vdelacruz/Documents/Ethernet sin mii/module_xtcp/src/xtcp_blocking_client.xc"
	.byte	0
	.long	32
	.long	38
	.long	.Lxtalabel6
.cc_bottom cc_18
.cc_top cc_19,.Lxtalabel8
	.ascii	 "/home/vdelacruz/Documents/Ethernet sin mii/module_xtcp/src/xtcp_blocking_client.xc"
	.byte	0
	.long	39
	.long	42
	.long	.Lxtalabel8
.cc_bottom cc_19
.cc_top cc_20,.Lxtalabel7
	.ascii	 "/home/vdelacruz/Documents/Ethernet sin mii/module_xtcp/src/xtcp_blocking_client.xc"
	.byte	0
	.long	43
	.long	45
	.long	.Lxtalabel7
.cc_bottom cc_20
.cc_top cc_21,.Lxtalabel9
	.ascii	 "/home/vdelacruz/Documents/Ethernet sin mii/module_xtcp/src/xtcp_blocking_client.xc"
	.byte	0
	.long	46
	.long	46
	.long	.Lxtalabel9
.cc_bottom cc_21
.cc_top cc_22,.Lxtalabel10
	.ascii	 "/home/vdelacruz/Documents/Ethernet sin mii/module_xtcp/src/xtcp_blocking_client.xc"
	.byte	0
	.long	46
	.long	46
	.long	.Lxtalabel10
.cc_bottom cc_22
.cc_top cc_23,.Lxtalabel13
	.ascii	 "/home/vdelacruz/Documents/Ethernet sin mii/module_xtcp/src/xtcp_blocking_client.xc"
	.byte	0
	.long	47
	.long	48
	.long	.Lxtalabel13
.cc_bottom cc_23
.cc_top cc_24,.Lxtalabel12
	.ascii	 "/home/vdelacruz/Documents/Ethernet sin mii/module_xtcp/src/xtcp_blocking_client.xc"
	.byte	0
	.long	47
	.long	48
	.long	.Lxtalabel12
.cc_bottom cc_24
.cc_top cc_25,.Lxtalabel11
	.ascii	 "/home/vdelacruz/Documents/Ethernet sin mii/module_xtcp/src/xtcp_blocking_client.xc"
	.byte	0
	.long	47
	.long	48
	.long	.Lxtalabel11
.cc_bottom cc_25
.cc_top cc_26,.Lxtalabel13
	.ascii	 "/home/vdelacruz/Documents/Ethernet sin mii/module_xtcp/src/xtcp_blocking_client.xc"
	.byte	0
	.long	50
	.long	54
	.long	.Lxtalabel13
.cc_bottom cc_26
.cc_top cc_27,.Lxtalabel12
	.ascii	 "/home/vdelacruz/Documents/Ethernet sin mii/module_xtcp/src/xtcp_blocking_client.xc"
	.byte	0
	.long	50
	.long	54
	.long	.Lxtalabel12
.cc_bottom cc_27
.cc_top cc_28,.Lxtalabel11
	.ascii	 "/home/vdelacruz/Documents/Ethernet sin mii/module_xtcp/src/xtcp_blocking_client.xc"
	.byte	0
	.long	50
	.long	54
	.long	.Lxtalabel11
.cc_bottom cc_28
.cc_top cc_29,.Lxtalabel11
	.ascii	 "/home/vdelacruz/Documents/Ethernet sin mii/module_xtcp/src/xtcp_blocking_client.xc"
	.byte	0
	.long	55
	.long	55
	.long	.Lxtalabel11
.cc_bottom cc_29
.cc_top cc_30,.Lxtalabel12
	.ascii	 "/home/vdelacruz/Documents/Ethernet sin mii/module_xtcp/src/xtcp_blocking_client.xc"
	.byte	0
	.long	55
	.long	55
	.long	.Lxtalabel12
.cc_bottom cc_30
.cc_top cc_31,.Lxtalabel13
	.ascii	 "/home/vdelacruz/Documents/Ethernet sin mii/module_xtcp/src/xtcp_blocking_client.xc"
	.byte	0
	.long	55
	.long	55
	.long	.Lxtalabel13
.cc_bottom cc_31
.cc_top cc_32,.Lxtalabel14
	.ascii	 "/home/vdelacruz/Documents/Ethernet sin mii/module_xtcp/src/xtcp_blocking_client.xc"
	.byte	0
	.long	59
	.long	61
	.long	.Lxtalabel14
.cc_bottom cc_32
.cc_top cc_33,.Lxtalabel16
	.ascii	 "/home/vdelacruz/Documents/Ethernet sin mii/module_xtcp/src/xtcp_blocking_client.xc"
	.byte	0
	.long	62
	.long	63
	.long	.Lxtalabel16
.cc_bottom cc_33
.cc_top cc_34,.Lxtalabel10
	.ascii	 "/home/vdelacruz/Documents/Ethernet sin mii/module_xtcp/src/xtcp_blocking_client.xc"
	.byte	0
	.long	68
	.long	68
	.long	.Lxtalabel10
.cc_bottom cc_34
.cc_top cc_35,.Lxtalabel9
	.ascii	 "/home/vdelacruz/Documents/Ethernet sin mii/module_xtcp/src/xtcp_blocking_client.xc"
	.byte	0
	.long	68
	.long	68
	.long	.Lxtalabel9
.cc_bottom cc_35
.cc_top cc_36,.Lxtalabel15
	.ascii	 "/home/vdelacruz/Documents/Ethernet sin mii/module_xtcp/src/xtcp_blocking_client.xc"
	.byte	0
	.long	70
	.long	70
	.long	.Lxtalabel15
.cc_bottom cc_36
.cc_top cc_37,.Lxtalabel15
	.ascii	 "/home/vdelacruz/Documents/Ethernet sin mii/module_xtcp/src/xtcp_blocking_client.xc"
	.byte	0
	.long	71
	.long	73
	.long	.Lxtalabel15
.cc_bottom cc_37
.cc_top cc_38,.Lxtalabel10
	.ascii	 "/home/vdelacruz/Documents/Ethernet sin mii/module_xtcp/src/xtcp_blocking_client.xc"
	.byte	0
	.long	76
	.long	79
	.long	.Lxtalabel10
.cc_bottom cc_38
.cc_top cc_39,.Lxtalabel9
	.ascii	 "/home/vdelacruz/Documents/Ethernet sin mii/module_xtcp/src/xtcp_blocking_client.xc"
	.byte	0
	.long	76
	.long	79
	.long	.Lxtalabel9
.cc_bottom cc_39
.cc_top cc_40,.Lxtalabel17
	.ascii	 "/home/vdelacruz/Documents/Ethernet sin mii/module_xtcp/src/xtcp_blocking_client.xc"
	.byte	0
	.long	81
	.long	82
	.long	.Lxtalabel17
.cc_bottom cc_40
.cc_top cc_41,.Lxtalabel18
	.ascii	 "/home/vdelacruz/Documents/Ethernet sin mii/module_xtcp/src/xtcp_blocking_client.xc"
	.byte	0
	.long	89
	.long	92
	.long	.Lxtalabel18
.cc_bottom cc_41
.cc_top cc_42,.Lxtalabel19
	.ascii	 "/home/vdelacruz/Documents/Ethernet sin mii/module_xtcp/src/xtcp_blocking_client.xc"
	.byte	0
	.long	93
	.long	96
	.long	.Lxtalabel19
.cc_bottom cc_42
.cc_top cc_43,.Lxtalabel25
	.ascii	 "/home/vdelacruz/Documents/Ethernet sin mii/module_xtcp/src/xtcp_blocking_client.xc"
	.byte	0
	.long	97
	.long	99
	.long	.Lxtalabel25
.cc_bottom cc_43
.cc_top cc_44,.Lxtalabel22
	.ascii	 "/home/vdelacruz/Documents/Ethernet sin mii/module_xtcp/src/xtcp_blocking_client.xc"
	.byte	0
	.long	100
	.long	106
	.long	.Lxtalabel22
.cc_bottom cc_44
.cc_top cc_45,.Lxtalabel20
	.ascii	 "/home/vdelacruz/Documents/Ethernet sin mii/module_xtcp/src/xtcp_blocking_client.xc"
	.byte	0
	.long	107
	.long	107
	.long	.Lxtalabel20
.cc_bottom cc_45
.cc_top cc_46,.Lxtalabel21
	.ascii	 "/home/vdelacruz/Documents/Ethernet sin mii/module_xtcp/src/xtcp_blocking_client.xc"
	.byte	0
	.long	107
	.long	107
	.long	.Lxtalabel21
.cc_bottom cc_46
.cc_top cc_47,.Lxtalabel23
	.ascii	 "/home/vdelacruz/Documents/Ethernet sin mii/module_xtcp/src/xtcp_blocking_client.xc"
	.byte	0
	.long	109
	.long	111
	.long	.Lxtalabel23
.cc_bottom cc_47
.cc_top cc_48,.Lxtalabel20
	.ascii	 "/home/vdelacruz/Documents/Ethernet sin mii/module_xtcp/src/xtcp_blocking_client.xc"
	.byte	0
	.long	112
	.long	112
	.long	.Lxtalabel20
.cc_bottom cc_48
.cc_top cc_49,.Lxtalabel21
	.ascii	 "/home/vdelacruz/Documents/Ethernet sin mii/module_xtcp/src/xtcp_blocking_client.xc"
	.byte	0
	.long	112
	.long	112
	.long	.Lxtalabel21
.cc_bottom cc_49
.cc_top cc_50,.Lxtalabel24
	.ascii	 "/home/vdelacruz/Documents/Ethernet sin mii/module_xtcp/src/xtcp_blocking_client.xc"
	.byte	0
	.long	114
	.long	114
	.long	.Lxtalabel24
.cc_bottom cc_50
.cc_top cc_51,.Lxtalabel24
	.ascii	 "/home/vdelacruz/Documents/Ethernet sin mii/module_xtcp/src/xtcp_blocking_client.xc"
	.byte	0
	.long	115
	.long	115
	.long	.Lxtalabel24
.cc_bottom cc_51
.cc_top cc_52,.Lxtalabel24
	.ascii	 "/home/vdelacruz/Documents/Ethernet sin mii/module_xtcp/src/xtcp_blocking_client.xc"
	.byte	0
	.long	116
	.long	117
	.long	.Lxtalabel24
.cc_bottom cc_52
.cc_top cc_53,.Lxtalabel20
	.ascii	 "/home/vdelacruz/Documents/Ethernet sin mii/module_xtcp/src/xtcp_blocking_client.xc"
	.byte	0
	.long	118
	.long	119
	.long	.Lxtalabel20
.cc_bottom cc_53
.cc_top cc_54,.Lxtalabel21
	.ascii	 "/home/vdelacruz/Documents/Ethernet sin mii/module_xtcp/src/xtcp_blocking_client.xc"
	.byte	0
	.long	118
	.long	119
	.long	.Lxtalabel21
.cc_bottom cc_54
.cc_top cc_55,.Lxtalabel26
	.ascii	 "/home/vdelacruz/Documents/Ethernet sin mii/module_xtcp/src/xtcp_blocking_client.xc"
	.byte	0
	.long	120
	.long	120
	.long	.Lxtalabel26
.cc_bottom cc_55
.Lentries_end5:
	.section	.xtalooplabeltable,"",@progbits
.Lentries_start6:
	.long	.Lentries_end7-.Lentries_start6
	.long	0
	.ascii	 "/home/vdelacruz/Documents/Ethernet sin mii/app_simple_webserver/.build_IPV4"
	.byte	0
.cc_top cc_56,.Lxta.loop_labels0
	.ascii	 "/home/vdelacruz/Documents/Ethernet sin mii/module_xtcp/src/xtcp_blocking_client.xc"
	.byte	0
	.long	13
	.long	14
	.long	.Lxta.loop_labels0
.cc_bottom cc_56
.cc_top cc_57,.Lxta.loop_labels1
	.ascii	 "/home/vdelacruz/Documents/Ethernet sin mii/module_xtcp/src/xtcp_blocking_client.xc"
	.byte	0
	.long	23
	.long	24
	.long	.Lxta.loop_labels1
.cc_bottom cc_57
.cc_top cc_58,.Lxta.loop_labels2
	.ascii	 "/home/vdelacruz/Documents/Ethernet sin mii/module_xtcp/src/xtcp_blocking_client.xc"
	.byte	0
	.long	93
	.long	120
	.long	.Lxta.loop_labels2
.cc_bottom cc_58
.Lentries_end7:
